
bmguest.axf:     file format elf32-littlearm


Disassembly of section .text:

40000000 <guest_start>:
40000000:	ea0005d6 	b	40001760 <common_guest_entry>

40000004 <main>:
40000004:	e92d4800 	push	{fp, lr}
40000008:	e28db004 	add	fp, sp, #4
4000000c:	e3010dec 	movw	r0, #7660	; 0x1dec
40000010:	e3440000 	movt	r0, #16384	; 0x4000
40000014:	eb000642 	bl	40001924 <uart_print>
40000018:	e3010df8 	movw	r0, #7672	; 0x1df8
4000001c:	e3440000 	movt	r0, #16384	; 0x4000
40000020:	eb00063f 	bl	40001924 <uart_print>
40000024:	eafffffe 	b	40000024 <main+0x20>

40000028 <nrm_delay>:
40000028:	e52db004 	push	{fp}		; (str fp, [sp, #-4]!)
4000002c:	e28db000 	add	fp, sp, #0
40000030:	e24dd00c 	sub	sp, sp, #12
40000034:	e3a03000 	mov	r3, #0
40000038:	e50b3008 	str	r3, [fp, #-8]
4000003c:	e3a03000 	mov	r3, #0
40000040:	e50b3008 	str	r3, [fp, #-8]
40000044:	ea000002 	b	40000054 <nrm_delay+0x2c>
40000048:	e51b3008 	ldr	r3, [fp, #-8]
4000004c:	e2833001 	add	r3, r3, #1
40000050:	e50b3008 	str	r3, [fp, #-8]
40000054:	e51b2008 	ldr	r2, [fp, #-8]
40000058:	e30f3ffe 	movw	r3, #65534	; 0xfffe
4000005c:	e1520003 	cmp	r2, r3
40000060:	dafffff8 	ble	40000048 <nrm_delay+0x20>
40000064:	e28bd000 	add	sp, fp, #0
40000068:	e8bd0800 	pop	{fp}
4000006c:	e12fff1e 	bx	lr

40000070 <nrm_loop>:
40000070:	e92d4800 	push	{fp, lr}
40000074:	e28db004 	add	fp, sp, #4
40000078:	e24dd008 	sub	sp, sp, #8
4000007c:	e3a03000 	mov	r3, #0
40000080:	e50b3008 	str	r3, [fp, #-8]
40000084:	eb000670 	bl	40001a4c <uart_init>
40000088:	e3010e18 	movw	r0, #7704	; 0x1e18
4000008c:	e3440000 	movt	r0, #16384	; 0x4000
40000090:	eb000623 	bl	40001924 <uart_print>
40000094:	e3a00001 	mov	r0, #1
40000098:	eb000633 	bl	4000196c <uart_print_hex32>
4000009c:	e3010e24 	movw	r0, #7716	; 0x1e24
400000a0:	e3440000 	movt	r0, #16384	; 0x4000
400000a4:	eb00061e 	bl	40001924 <uart_print>
400000a8:	eb0001d5 	bl	40000804 <gic_init>
400000ac:	e3a00000 	mov	r0, #0
400000b0:	eb0002dc 	bl	40000c28 <vtimer_mask>
400000b4:	f1080080 	cpsie	i
400000b8:	e3a03000 	mov	r3, #0
400000bc:	e50b3008 	str	r3, [fp, #-8]
400000c0:	ea000030 	b	40000188 <nrm_loop+0x118>
400000c4:	e3010e18 	movw	r0, #7704	; 0x1e18
400000c8:	e3440000 	movt	r0, #16384	; 0x4000
400000cc:	eb000614 	bl	40001924 <uart_print>
400000d0:	e3010e44 	movw	r0, #7748	; 0x1e44
400000d4:	e3440000 	movt	r0, #16384	; 0x4000
400000d8:	eb000611 	bl	40001924 <uart_print>
400000dc:	e51b3008 	ldr	r3, [fp, #-8]
400000e0:	e1a00003 	mov	r0, r3
400000e4:	eb000620 	bl	4000196c <uart_print_hex32>
400000e8:	e3010e50 	movw	r0, #7760	; 0x1e50
400000ec:	e3440000 	movt	r0, #16384	; 0x4000
400000f0:	eb00060b 	bl	40001924 <uart_print>
400000f4:	ebffffcb 	bl	40000028 <nrm_delay>
400000f8:	e51b3008 	ldr	r3, [fp, #-8]
400000fc:	e2033001 	and	r3, r3, #1
40000100:	e6ef3073 	uxtb	r3, r3
40000104:	e3530000 	cmp	r3, #0
40000108:	0a00000d 	beq	40000144 <nrm_loop+0xd4>
4000010c:	e3010e18 	movw	r0, #7704	; 0x1e18
40000110:	e3440000 	movt	r0, #16384	; 0x4000
40000114:	eb000602 	bl	40001924 <uart_print>
40000118:	e3010e54 	movw	r0, #7764	; 0x1e54
4000011c:	e3440000 	movt	r0, #16384	; 0x4000
40000120:	eb0005ff 	bl	40001924 <uart_print>
40000124:	e14fff7e 	hvc	65534	; 0xfffe
40000128:	e3010e18 	movw	r0, #7704	; 0x1e18
4000012c:	e3440000 	movt	r0, #16384	; 0x4000
40000130:	eb0005fb 	bl	40001924 <uart_print>
40000134:	e3010e64 	movw	r0, #7780	; 0x1e64
40000138:	e3440000 	movt	r0, #16384	; 0x4000
4000013c:	eb0005f8 	bl	40001924 <uart_print>
40000140:	ea00000c 	b	40000178 <nrm_loop+0x108>
40000144:	e3010e18 	movw	r0, #7704	; 0x1e18
40000148:	e3440000 	movt	r0, #16384	; 0x4000
4000014c:	eb0005f4 	bl	40001924 <uart_print>
40000150:	e3010e80 	movw	r0, #7808	; 0x1e80
40000154:	e3440000 	movt	r0, #16384	; 0x4000
40000158:	eb0005f1 	bl	40001924 <uart_print>
4000015c:	e14fff7d 	hvc	65533	; 0xfffd
40000160:	e3010e18 	movw	r0, #7704	; 0x1e18
40000164:	e3440000 	movt	r0, #16384	; 0x4000
40000168:	eb0005ed 	bl	40001924 <uart_print>
4000016c:	e3010e90 	movw	r0, #7824	; 0x1e90
40000170:	e3440000 	movt	r0, #16384	; 0x4000
40000174:	eb0005ea 	bl	40001924 <uart_print>
40000178:	ebffffaa 	bl	40000028 <nrm_delay>
4000017c:	e51b3008 	ldr	r3, [fp, #-8]
40000180:	e2833001 	add	r3, r3, #1
40000184:	e50b3008 	str	r3, [fp, #-8]
40000188:	e51b2008 	ldr	r2, [fp, #-8]
4000018c:	e300312b 	movw	r3, #299	; 0x12b
40000190:	e1520003 	cmp	r2, r3
40000194:	daffffca 	ble	400000c4 <nrm_loop+0x54>
40000198:	e3010e18 	movw	r0, #7704	; 0x1e18
4000019c:	e3440000 	movt	r0, #16384	; 0x4000
400001a0:	eb0005df 	bl	40001924 <uart_print>
400001a4:	e3010eb0 	movw	r0, #7856	; 0x1eb0
400001a8:	e3440000 	movt	r0, #16384	; 0x4000
400001ac:	eb0005dc 	bl	40001924 <uart_print>
400001b0:	e3010ec8 	movw	r0, #7880	; 0x1ec8
400001b4:	e3440000 	movt	r0, #16384	; 0x4000
400001b8:	eb0005d9 	bl	40001924 <uart_print>
400001bc:	ebffff90 	bl	40000004 <main>
400001c0:	e24bd004 	sub	sp, fp, #4
400001c4:	e8bd8800 	pop	{fp, pc}

400001c8 <_except_unhandled>:
400001c8:	e52db004 	push	{fp}		; (str fp, [sp, #-4]!)
400001cc:	e28db000 	add	fp, sp, #0
400001d0:	e24dd00c 	sub	sp, sp, #12
400001d4:	e50b0008 	str	r0, [fp, #-8]
400001d8:	e28bd000 	add	sp, fp, #0
400001dc:	e8bd0800 	pop	{fp}
400001e0:	e12fff1e 	bx	lr

400001e4 <_except_svc>:
400001e4:	e52db004 	push	{fp}		; (str fp, [sp, #-4]!)
400001e8:	e28db000 	add	fp, sp, #0
400001ec:	e24dd00c 	sub	sp, sp, #12
400001f0:	e50b0008 	str	r0, [fp, #-8]
400001f4:	e28bd000 	add	sp, fp, #0
400001f8:	e8bd0800 	pop	{fp}
400001fc:	e12fff1e 	bx	lr

40000200 <_except_irq>:
40000200:	e92d4800 	push	{fp, lr}
40000204:	e28db004 	add	fp, sp, #4
40000208:	e24dd008 	sub	sp, sp, #8
4000020c:	e50b0008 	str	r0, [fp, #-8]
40000210:	e3a00000 	mov	r0, #0
40000214:	e51b1008 	ldr	r1, [fp, #-8]
40000218:	eb0001cd 	bl	40000954 <gic_interrupt>
4000021c:	e24bd004 	sub	sp, fp, #4
40000220:	e8bd8800 	pop	{fp, pc}

40000224 <smp_processor_id>:
40000224:	e92d0810 	push	{r4, fp}
40000228:	e28db004 	add	fp, sp, #4
4000022c:	e24dd008 	sub	sp, sp, #8
40000230:	ee104fb0 	mrc	15, 0, r4, cr0, cr0, {5}
40000234:	e50b4008 	str	r4, [fp, #-8]
40000238:	e51b3008 	ldr	r3, [fp, #-8]
4000023c:	e6ef3073 	uxtb	r3, r3
40000240:	e1a00003 	mov	r0, r3
40000244:	e24bd004 	sub	sp, fp, #4
40000248:	e8bd0810 	pop	{r4, fp}
4000024c:	e12fff1e 	bx	lr

40000250 <gic_test_vdev_access>:
40000250:	e92d4800 	push	{fp, lr}
40000254:	e28db004 	add	fp, sp, #4
40000258:	e24dd008 	sub	sp, sp, #8
4000025c:	e3023060 	movw	r3, #8288	; 0x2060
40000260:	e3443000 	movt	r3, #16384	; 0x4000
40000264:	e5933004 	ldr	r3, [r3, #4]
40000268:	e2833f41 	add	r3, r3, #260	; 0x104
4000026c:	e3a02002 	mov	r2, #2
40000270:	e5832000 	str	r2, [r3]
40000274:	e3023060 	movw	r3, #8288	; 0x2060
40000278:	e3443000 	movt	r3, #16384	; 0x4000
4000027c:	e5933004 	ldr	r3, [r3, #4]
40000280:	e2833f61 	add	r3, r3, #388	; 0x184
40000284:	e3a02002 	mov	r2, #2
40000288:	e5832000 	str	r2, [r3]
4000028c:	e3023060 	movw	r3, #8288	; 0x2060
40000290:	e3443000 	movt	r3, #16384	; 0x4000
40000294:	e5933004 	ldr	r3, [r3, #4]
40000298:	e2833c01 	add	r3, r3, #256	; 0x100
4000029c:	e3a02002 	mov	r2, #2
400002a0:	e5832000 	str	r2, [r3]
400002a4:	e3023060 	movw	r3, #8288	; 0x2060
400002a8:	e3443000 	movt	r3, #16384	; 0x4000
400002ac:	e5933004 	ldr	r3, [r3, #4]
400002b0:	e2833d06 	add	r3, r3, #384	; 0x180
400002b4:	e3a02002 	mov	r2, #2
400002b8:	e5832000 	str	r2, [r3]
400002bc:	e3023060 	movw	r3, #8288	; 0x2060
400002c0:	e3443000 	movt	r3, #16384	; 0x4000
400002c4:	e5933004 	ldr	r3, [r3, #4]
400002c8:	e2833c01 	add	r3, r3, #256	; 0x100
400002cc:	e3a02102 	mov	r2, #-2147483648	; 0x80000000
400002d0:	e5832000 	str	r2, [r3]
400002d4:	e3023060 	movw	r3, #8288	; 0x2060
400002d8:	e3443000 	movt	r3, #16384	; 0x4000
400002dc:	e5933004 	ldr	r3, [r3, #4]
400002e0:	e2833d06 	add	r3, r3, #384	; 0x180
400002e4:	e3a02102 	mov	r2, #-2147483648	; 0x80000000
400002e8:	e5832000 	str	r2, [r3]
400002ec:	e3023060 	movw	r3, #8288	; 0x2060
400002f0:	e3443000 	movt	r3, #16384	; 0x4000
400002f4:	e5933004 	ldr	r3, [r3, #4]
400002f8:	e2833c01 	add	r3, r3, #256	; 0x100
400002fc:	e50b3008 	str	r3, [fp, #-8]
40000300:	e51b3008 	ldr	r3, [fp, #-8]
40000304:	e2833002 	add	r3, r3, #2
40000308:	e3a0200f 	mov	r2, #15
4000030c:	e5c32000 	strb	r2, [r3]
40000310:	e3023060 	movw	r3, #8288	; 0x2060
40000314:	e3443000 	movt	r3, #16384	; 0x4000
40000318:	e5933004 	ldr	r3, [r3, #4]
4000031c:	e2833c01 	add	r3, r3, #256	; 0x100
40000320:	e5933000 	ldr	r3, [r3]
40000324:	e1a00003 	mov	r0, r3
40000328:	eb00058f 	bl	4000196c <uart_print_hex32>
4000032c:	e3010f00 	movw	r0, #7936	; 0x1f00
40000330:	e3440000 	movt	r0, #16384	; 0x4000
40000334:	eb00057a 	bl	40001924 <uart_print>
40000338:	e3023060 	movw	r3, #8288	; 0x2060
4000033c:	e3443000 	movt	r3, #16384	; 0x4000
40000340:	e5933004 	ldr	r3, [r3, #4]
40000344:	e2833d06 	add	r3, r3, #384	; 0x180
40000348:	e50b3008 	str	r3, [fp, #-8]
4000034c:	e51b3008 	ldr	r3, [fp, #-8]
40000350:	e2833002 	add	r3, r3, #2
40000354:	e3a0200f 	mov	r2, #15
40000358:	e5c32000 	strb	r2, [r3]
4000035c:	e3023060 	movw	r3, #8288	; 0x2060
40000360:	e3443000 	movt	r3, #16384	; 0x4000
40000364:	e5933004 	ldr	r3, [r3, #4]
40000368:	e2833c01 	add	r3, r3, #256	; 0x100
4000036c:	e5933000 	ldr	r3, [r3]
40000370:	e1a00003 	mov	r0, r3
40000374:	eb00057c 	bl	4000196c <uart_print_hex32>
40000378:	e3010f00 	movw	r0, #7936	; 0x1f00
4000037c:	e3440000 	movt	r0, #16384	; 0x4000
40000380:	eb000567 	bl	40001924 <uart_print>
40000384:	e24bd004 	sub	sp, fp, #4
40000388:	e8bd8800 	pop	{fp, pc}

4000038c <gic_dump_registers>:
4000038c:	e92d4810 	push	{r4, fp, lr}
40000390:	e28db008 	add	fp, sp, #8
40000394:	e24dd00c 	sub	sp, sp, #12
40000398:	ee104f10 	mrc	15, 0, r4, cr0, cr0, {0}
4000039c:	e50b4010 	str	r4, [fp, #-16]
400003a0:	e51b3010 	ldr	r3, [fp, #-16]
400003a4:	e50b3014 	str	r3, [fp, #-20]
400003a8:	e3010f04 	movw	r0, #7940	; 0x1f04
400003ac:	e3440000 	movt	r0, #16384	; 0x4000
400003b0:	eb00055b 	bl	40001924 <uart_print>
400003b4:	e51b0014 	ldr	r0, [fp, #-20]
400003b8:	eb00056b 	bl	4000196c <uart_print_hex32>
400003bc:	e3010f00 	movw	r0, #7936	; 0x1f00
400003c0:	e3440000 	movt	r0, #16384	; 0x4000
400003c4:	eb000556 	bl	40001924 <uart_print>
400003c8:	e51b2014 	ldr	r2, [fp, #-20]
400003cc:	e30f3ff0 	movw	r3, #65520	; 0xfff0
400003d0:	e0023003 	and	r3, r2, r3
400003d4:	e30c20f0 	movw	r2, #49392	; 0xc0f0
400003d8:	e1530002 	cmp	r3, r2
400003dc:	1a00007b 	bne	400005d0 <gic_dump_registers+0x244>
400003e0:	e3010f0c 	movw	r0, #7948	; 0x1f0c
400003e4:	e3440000 	movt	r0, #16384	; 0x4000
400003e8:	eb00054d 	bl	40001924 <uart_print>
400003ec:	e3023060 	movw	r3, #8288	; 0x2060
400003f0:	e3443000 	movt	r3, #16384	; 0x4000
400003f4:	e5933000 	ldr	r3, [r3]
400003f8:	e1a00003 	mov	r0, r3
400003fc:	eb00055a 	bl	4000196c <uart_print_hex32>
40000400:	e3010f00 	movw	r0, #7936	; 0x1f00
40000404:	e3440000 	movt	r0, #16384	; 0x4000
40000408:	eb000545 	bl	40001924 <uart_print>
4000040c:	e3010f1c 	movw	r0, #7964	; 0x1f1c
40000410:	e3440000 	movt	r0, #16384	; 0x4000
40000414:	eb000542 	bl	40001924 <uart_print>
40000418:	e3023060 	movw	r3, #8288	; 0x2060
4000041c:	e3443000 	movt	r3, #16384	; 0x4000
40000420:	e5933004 	ldr	r3, [r3, #4]
40000424:	e1a00003 	mov	r0, r3
40000428:	eb00054f 	bl	4000196c <uart_print_hex32>
4000042c:	e3010f00 	movw	r0, #7936	; 0x1f00
40000430:	e3440000 	movt	r0, #16384	; 0x4000
40000434:	eb00053a 	bl	40001924 <uart_print>
40000438:	e3010f28 	movw	r0, #7976	; 0x1f28
4000043c:	e3440000 	movt	r0, #16384	; 0x4000
40000440:	eb000537 	bl	40001924 <uart_print>
40000444:	e3023060 	movw	r3, #8288	; 0x2060
40000448:	e3443000 	movt	r3, #16384	; 0x4000
4000044c:	e5933004 	ldr	r3, [r3, #4]
40000450:	e2833004 	add	r3, r3, #4
40000454:	e5933000 	ldr	r3, [r3]
40000458:	e1a00003 	mov	r0, r3
4000045c:	eb000542 	bl	4000196c <uart_print_hex32>
40000460:	e3010f00 	movw	r0, #7936	; 0x1f00
40000464:	e3440000 	movt	r0, #16384	; 0x4000
40000468:	eb00052d 	bl	40001924 <uart_print>
4000046c:	e3010f34 	movw	r0, #7988	; 0x1f34
40000470:	e3440000 	movt	r0, #16384	; 0x4000
40000474:	eb00052a 	bl	40001924 <uart_print>
40000478:	e3023060 	movw	r3, #8288	; 0x2060
4000047c:	e3443000 	movt	r3, #16384	; 0x4000
40000480:	e5933008 	ldr	r3, [r3, #8]
40000484:	e1a00003 	mov	r0, r3
40000488:	eb000537 	bl	4000196c <uart_print_hex32>
4000048c:	e3010f00 	movw	r0, #7936	; 0x1f00
40000490:	e3440000 	movt	r0, #16384	; 0x4000
40000494:	eb000522 	bl	40001924 <uart_print>
40000498:	e3010f40 	movw	r0, #8000	; 0x1f40
4000049c:	e3440000 	movt	r0, #16384	; 0x4000
400004a0:	eb00051f 	bl	40001924 <uart_print>
400004a4:	e3023060 	movw	r3, #8288	; 0x2060
400004a8:	e3443000 	movt	r3, #16384	; 0x4000
400004ac:	e5933008 	ldr	r3, [r3, #8]
400004b0:	e5933000 	ldr	r3, [r3]
400004b4:	e1a00003 	mov	r0, r3
400004b8:	eb00052b 	bl	4000196c <uart_print_hex32>
400004bc:	e3010f00 	movw	r0, #7936	; 0x1f00
400004c0:	e3440000 	movt	r0, #16384	; 0x4000
400004c4:	eb000516 	bl	40001924 <uart_print>
400004c8:	e3010f4c 	movw	r0, #8012	; 0x1f4c
400004cc:	e3440000 	movt	r0, #16384	; 0x4000
400004d0:	eb000513 	bl	40001924 <uart_print>
400004d4:	e3023060 	movw	r3, #8288	; 0x2060
400004d8:	e3443000 	movt	r3, #16384	; 0x4000
400004dc:	e5933008 	ldr	r3, [r3, #8]
400004e0:	e2833004 	add	r3, r3, #4
400004e4:	e5933000 	ldr	r3, [r3]
400004e8:	e1a00003 	mov	r0, r3
400004ec:	eb00051e 	bl	4000196c <uart_print_hex32>
400004f0:	e3010f00 	movw	r0, #7936	; 0x1f00
400004f4:	e3440000 	movt	r0, #16384	; 0x4000
400004f8:	eb000509 	bl	40001924 <uart_print>
400004fc:	e3010f58 	movw	r0, #8024	; 0x1f58
40000500:	e3440000 	movt	r0, #16384	; 0x4000
40000504:	eb000506 	bl	40001924 <uart_print>
40000508:	e3023060 	movw	r3, #8288	; 0x2060
4000050c:	e3443000 	movt	r3, #16384	; 0x4000
40000510:	e5933008 	ldr	r3, [r3, #8]
40000514:	e2833008 	add	r3, r3, #8
40000518:	e5933000 	ldr	r3, [r3]
4000051c:	e1a00003 	mov	r0, r3
40000520:	eb000511 	bl	4000196c <uart_print_hex32>
40000524:	e3010f00 	movw	r0, #7936	; 0x1f00
40000528:	e3440000 	movt	r0, #16384	; 0x4000
4000052c:	eb0004fc 	bl	40001924 <uart_print>
40000530:	e3010f64 	movw	r0, #8036	; 0x1f64
40000534:	e3440000 	movt	r0, #16384	; 0x4000
40000538:	eb0004f9 	bl	40001924 <uart_print>
4000053c:	e3023060 	movw	r3, #8288	; 0x2060
40000540:	e3443000 	movt	r3, #16384	; 0x4000
40000544:	e5933008 	ldr	r3, [r3, #8]
40000548:	e2833014 	add	r3, r3, #20
4000054c:	e5933000 	ldr	r3, [r3]
40000550:	e1a00003 	mov	r0, r3
40000554:	eb000504 	bl	4000196c <uart_print_hex32>
40000558:	e3010f00 	movw	r0, #7936	; 0x1f00
4000055c:	e3440000 	movt	r0, #16384	; 0x4000
40000560:	eb0004ef 	bl	40001924 <uart_print>
40000564:	e3010f70 	movw	r0, #8048	; 0x1f70
40000568:	e3440000 	movt	r0, #16384	; 0x4000
4000056c:	eb0004ec 	bl	40001924 <uart_print>
40000570:	e3023060 	movw	r3, #8288	; 0x2060
40000574:	e3443000 	movt	r3, #16384	; 0x4000
40000578:	e5933008 	ldr	r3, [r3, #8]
4000057c:	e2833018 	add	r3, r3, #24
40000580:	e5933000 	ldr	r3, [r3]
40000584:	e1a00003 	mov	r0, r3
40000588:	eb0004f7 	bl	4000196c <uart_print_hex32>
4000058c:	e3010f00 	movw	r0, #7936	; 0x1f00
40000590:	e3440000 	movt	r0, #16384	; 0x4000
40000594:	eb0004e2 	bl	40001924 <uart_print>
40000598:	e3010f7c 	movw	r0, #8060	; 0x1f7c
4000059c:	e3440000 	movt	r0, #16384	; 0x4000
400005a0:	eb0004df 	bl	40001924 <uart_print>
400005a4:	e3023060 	movw	r3, #8288	; 0x2060
400005a8:	e3443000 	movt	r3, #16384	; 0x4000
400005ac:	e5933008 	ldr	r3, [r3, #8]
400005b0:	e28330fc 	add	r3, r3, #252	; 0xfc
400005b4:	e5933000 	ldr	r3, [r3]
400005b8:	e1a00003 	mov	r0, r3
400005bc:	eb0004ea 	bl	4000196c <uart_print_hex32>
400005c0:	e3010f00 	movw	r0, #7936	; 0x1f00
400005c4:	e3440000 	movt	r0, #16384	; 0x4000
400005c8:	eb0004d5 	bl	40001924 <uart_print>
400005cc:	ebffff1f 	bl	40000250 <gic_test_vdev_access>
400005d0:	e24bd008 	sub	sp, fp, #8
400005d4:	e8bd8810 	pop	{r4, fp, pc}

400005d8 <gic_init_baseaddr>:
400005d8:	e92d4810 	push	{r4, fp, lr}
400005dc:	e28db008 	add	fp, sp, #8
400005e0:	e24dd01c 	sub	sp, sp, #28
400005e4:	e50b0020 	str	r0, [fp, #-32]
400005e8:	e3e03000 	mvn	r3, #0
400005ec:	e50b3010 	str	r3, [fp, #-16]
400005f0:	ee104f10 	mrc	15, 0, r4, cr0, cr0, {0}
400005f4:	e50b4014 	str	r4, [fp, #-20]
400005f8:	e51b3014 	ldr	r3, [fp, #-20]
400005fc:	e50b3018 	str	r3, [fp, #-24]
40000600:	e3010f04 	movw	r0, #7940	; 0x1f04
40000604:	e3440000 	movt	r0, #16384	; 0x4000
40000608:	eb0004c5 	bl	40001924 <uart_print>
4000060c:	e51b0018 	ldr	r0, [fp, #-24]
40000610:	eb0004d5 	bl	4000196c <uart_print_hex32>
40000614:	e3010f00 	movw	r0, #7936	; 0x1f00
40000618:	e3440000 	movt	r0, #16384	; 0x4000
4000061c:	eb0004c0 	bl	40001924 <uart_print>
40000620:	e51b2018 	ldr	r2, [fp, #-24]
40000624:	e30f3ff0 	movw	r3, #65520	; 0xfff0
40000628:	e0023003 	and	r3, r2, r3
4000062c:	e30c20f0 	movw	r2, #49392	; 0xc0f0
40000630:	e1530002 	cmp	r3, r2
40000634:	1a000016 	bne	40000694 <gic_init_baseaddr+0xbc>
40000638:	e51b2020 	ldr	r2, [fp, #-32]
4000063c:	e3023060 	movw	r3, #8288	; 0x2060
40000640:	e3443000 	movt	r3, #16384	; 0x4000
40000644:	e5832000 	str	r2, [r3]
40000648:	e3023060 	movw	r3, #8288	; 0x2060
4000064c:	e3443000 	movt	r3, #16384	; 0x4000
40000650:	e5933000 	ldr	r3, [r3]
40000654:	e2833a01 	add	r3, r3, #4096	; 0x1000
40000658:	e1a02003 	mov	r2, r3
4000065c:	e3023060 	movw	r3, #8288	; 0x2060
40000660:	e3443000 	movt	r3, #16384	; 0x4000
40000664:	e5832004 	str	r2, [r3, #4]
40000668:	e3023060 	movw	r3, #8288	; 0x2060
4000066c:	e3443000 	movt	r3, #16384	; 0x4000
40000670:	e5933000 	ldr	r3, [r3]
40000674:	e2833a02 	add	r3, r3, #8192	; 0x2000
40000678:	e1a02003 	mov	r2, r3
4000067c:	e3023060 	movw	r3, #8288	; 0x2060
40000680:	e3443000 	movt	r3, #16384	; 0x4000
40000684:	e5832008 	str	r2, [r3, #8]
40000688:	e3a03000 	mov	r3, #0
4000068c:	e50b3010 	str	r3, [fp, #-16]
40000690:	ea00000f 	b	400006d4 <gic_init_baseaddr+0xfc>
40000694:	e3010f88 	movw	r0, #8072	; 0x1f88
40000698:	e3440000 	movt	r0, #16384	; 0x4000
4000069c:	eb0004a0 	bl	40001924 <uart_print>
400006a0:	e3010f9c 	movw	r0, #8092	; 0x1f9c
400006a4:	e3440000 	movt	r0, #16384	; 0x4000
400006a8:	eb00049d 	bl	40001924 <uart_print>
400006ac:	e51b2018 	ldr	r2, [fp, #-24]
400006b0:	e30f3ff0 	movw	r3, #65520	; 0xfff0
400006b4:	e0023003 	and	r3, r2, r3
400006b8:	e1a00003 	mov	r0, r3
400006bc:	eb0004aa 	bl	4000196c <uart_print_hex32>
400006c0:	e3010f00 	movw	r0, #7936	; 0x1f00
400006c4:	e3440000 	movt	r0, #16384	; 0x4000
400006c8:	eb000495 	bl	40001924 <uart_print>
400006cc:	e3e03001 	mvn	r3, #1
400006d0:	e50b3010 	str	r3, [fp, #-16]
400006d4:	e51b3010 	ldr	r3, [fp, #-16]
400006d8:	e1a00003 	mov	r0, r3
400006dc:	e24bd008 	sub	sp, fp, #8
400006e0:	e8bd8810 	pop	{r4, fp, pc}

400006e4 <gic_enable_irq>:
400006e4:	e52db004 	push	{fp}		; (str fp, [sp, #-4]!)
400006e8:	e28db000 	add	fp, sp, #0
400006ec:	e24dd00c 	sub	sp, sp, #12
400006f0:	e50b0008 	str	r0, [fp, #-8]
400006f4:	e3023060 	movw	r3, #8288	; 0x2060
400006f8:	e3443000 	movt	r3, #16384	; 0x4000
400006fc:	e5932004 	ldr	r2, [r3, #4]
40000700:	e51b3008 	ldr	r3, [fp, #-8]
40000704:	e1a032a3 	lsr	r3, r3, #5
40000708:	e2833040 	add	r3, r3, #64	; 0x40
4000070c:	e1a03103 	lsl	r3, r3, #2
40000710:	e0823003 	add	r3, r2, r3
40000714:	e51b2008 	ldr	r2, [fp, #-8]
40000718:	e202201f 	and	r2, r2, #31
4000071c:	e3a01001 	mov	r1, #1
40000720:	e1a02211 	lsl	r2, r1, r2
40000724:	e5832000 	str	r2, [r3]
40000728:	e3a03000 	mov	r3, #0
4000072c:	e1a00003 	mov	r0, r3
40000730:	e28bd000 	add	sp, fp, #0
40000734:	e8bd0800 	pop	{fp}
40000738:	e12fff1e 	bx	lr

4000073c <gic_disable_irq>:
4000073c:	e52db004 	push	{fp}		; (str fp, [sp, #-4]!)
40000740:	e28db000 	add	fp, sp, #0
40000744:	e24dd00c 	sub	sp, sp, #12
40000748:	e50b0008 	str	r0, [fp, #-8]
4000074c:	e3023060 	movw	r3, #8288	; 0x2060
40000750:	e3443000 	movt	r3, #16384	; 0x4000
40000754:	e5932004 	ldr	r2, [r3, #4]
40000758:	e51b3008 	ldr	r3, [fp, #-8]
4000075c:	e1a032a3 	lsr	r3, r3, #5
40000760:	e2833060 	add	r3, r3, #96	; 0x60
40000764:	e1a03103 	lsl	r3, r3, #2
40000768:	e0823003 	add	r3, r2, r3
4000076c:	e51b2008 	ldr	r2, [fp, #-8]
40000770:	e202201f 	and	r2, r2, #31
40000774:	e3a01001 	mov	r1, #1
40000778:	e1a02211 	lsl	r2, r1, r2
4000077c:	e5832000 	str	r2, [r3]
40000780:	e3a03000 	mov	r3, #0
40000784:	e1a00003 	mov	r0, r3
40000788:	e28bd000 	add	sp, fp, #0
4000078c:	e8bd0800 	pop	{fp}
40000790:	e12fff1e 	bx	lr

40000794 <gic_set_irq_handler>:
40000794:	e52db004 	push	{fp}		; (str fp, [sp, #-4]!)
40000798:	e28db000 	add	fp, sp, #0
4000079c:	e24dd01c 	sub	sp, sp, #28
400007a0:	e50b0010 	str	r0, [fp, #-16]
400007a4:	e50b1014 	str	r1, [fp, #-20]
400007a8:	e50b2018 	str	r2, [fp, #-24]
400007ac:	e3e03002 	mvn	r3, #2
400007b0:	e50b3008 	str	r3, [fp, #-8]
400007b4:	e51b3010 	ldr	r3, [fp, #-16]
400007b8:	e3530065 	cmp	r3, #101	; 0x65
400007bc:	ca00000b 	bgt	400007f0 <gic_set_irq_handler+0x5c>
400007c0:	e3023060 	movw	r3, #8288	; 0x2060
400007c4:	e3443000 	movt	r3, #16384	; 0x4000
400007c8:	e51b2010 	ldr	r2, [fp, #-16]
400007cc:	e2821004 	add	r1, r2, #4
400007d0:	e3a02004 	mov	r2, #4
400007d4:	e1a01101 	lsl	r1, r1, #2
400007d8:	e0833001 	add	r3, r3, r1
400007dc:	e0833002 	add	r3, r3, r2
400007e0:	e51b2014 	ldr	r2, [fp, #-20]
400007e4:	e5832000 	str	r2, [r3]
400007e8:	e3a03000 	mov	r3, #0
400007ec:	e50b3008 	str	r3, [fp, #-8]
400007f0:	e51b3008 	ldr	r3, [fp, #-8]
400007f4:	e1a00003 	mov	r0, r3
400007f8:	e28bd000 	add	sp, fp, #0
400007fc:	e8bd0800 	pop	{fp}
40000800:	e12fff1e 	bx	lr

40000804 <gic_init>:
40000804:	e92d4800 	push	{fp, lr}
40000808:	e28db004 	add	fp, sp, #4
4000080c:	e24dd008 	sub	sp, sp, #8
40000810:	e3e03000 	mvn	r3, #0
40000814:	e50b300c 	str	r3, [fp, #-12]
40000818:	e3a03000 	mov	r3, #0
4000081c:	e50b3008 	str	r3, [fp, #-8]
40000820:	ea00000c 	b	40000858 <gic_init+0x54>
40000824:	e3023060 	movw	r3, #8288	; 0x2060
40000828:	e3443000 	movt	r3, #16384	; 0x4000
4000082c:	e51b2008 	ldr	r2, [fp, #-8]
40000830:	e2821004 	add	r1, r2, #4
40000834:	e3a02004 	mov	r2, #4
40000838:	e1a01101 	lsl	r1, r1, #2
4000083c:	e0833001 	add	r3, r3, r1
40000840:	e0833002 	add	r3, r3, r2
40000844:	e3a02000 	mov	r2, #0
40000848:	e5832000 	str	r2, [r3]
4000084c:	e51b3008 	ldr	r3, [fp, #-8]
40000850:	e2833001 	add	r3, r3, #1
40000854:	e50b3008 	str	r3, [fp, #-8]
40000858:	e51b3008 	ldr	r3, [fp, #-8]
4000085c:	e3530065 	cmp	r3, #101	; 0x65
40000860:	daffffef 	ble	40000824 <gic_init+0x20>
40000864:	e3a00000 	mov	r0, #0
40000868:	e3410048 	movt	r0, #4168	; 0x1048
4000086c:	ebffff59 	bl	400005d8 <gic_init_baseaddr>
40000870:	e50b000c 	str	r0, [fp, #-12]
40000874:	e3023060 	movw	r3, #8288	; 0x2060
40000878:	e3443000 	movt	r3, #16384	; 0x4000
4000087c:	e5932008 	ldr	r2, [r3, #8]
40000880:	e3023060 	movw	r3, #8288	; 0x2060
40000884:	e3443000 	movt	r3, #16384	; 0x4000
40000888:	e5933008 	ldr	r3, [r3, #8]
4000088c:	e5933000 	ldr	r3, [r3]
40000890:	e3833e21 	orr	r3, r3, #528	; 0x210
40000894:	e3833003 	orr	r3, r3, #3
40000898:	e5823000 	str	r3, [r2]
4000089c:	e3023060 	movw	r3, #8288	; 0x2060
400008a0:	e3443000 	movt	r3, #16384	; 0x4000
400008a4:	e5933008 	ldr	r3, [r3, #8]
400008a8:	e2833004 	add	r3, r3, #4
400008ac:	e3a020ff 	mov	r2, #255	; 0xff
400008b0:	e5832000 	str	r2, [r3]
400008b4:	e51b300c 	ldr	r3, [fp, #-12]
400008b8:	e3530000 	cmp	r3, #0
400008bc:	1a000000 	bne	400008c4 <gic_init+0xc0>
400008c0:	ebfffeb1 	bl	4000038c <gic_dump_registers>
400008c4:	e3023060 	movw	r3, #8288	; 0x2060
400008c8:	e3443000 	movt	r3, #16384	; 0x4000
400008cc:	e30023fe 	movw	r2, #1022	; 0x3fe
400008d0:	e583200c 	str	r2, [r3, #12]
400008d4:	e3a03000 	mov	r3, #0
400008d8:	e50b300c 	str	r3, [fp, #-12]
400008dc:	e51b300c 	ldr	r3, [fp, #-12]
400008e0:	e3530000 	cmp	r3, #0
400008e4:	1a000004 	bne	400008fc <gic_init+0xf8>
400008e8:	e3023060 	movw	r3, #8288	; 0x2060
400008ec:	e3443000 	movt	r3, #16384	; 0x4000
400008f0:	e30e2ad7 	movw	r2, #60119	; 0xead7
400008f4:	e3452108 	movt	r2, #20744	; 0x5108
400008f8:	e58321ac 	str	r2, [r3, #428]	; 0x1ac
400008fc:	e3a03000 	mov	r3, #0
40000900:	e50b3008 	str	r3, [fp, #-8]
40000904:	ea00000b 	b	40000938 <gic_init+0x134>
40000908:	e3023060 	movw	r3, #8288	; 0x2060
4000090c:	e3443000 	movt	r3, #16384	; 0x4000
40000910:	e5932004 	ldr	r2, [r3, #4]
40000914:	e51b3008 	ldr	r3, [fp, #-8]
40000918:	e2833060 	add	r3, r3, #96	; 0x60
4000091c:	e1a03103 	lsl	r3, r3, #2
40000920:	e0823003 	add	r3, r2, r3
40000924:	e3e02000 	mvn	r2, #0
40000928:	e5832000 	str	r2, [r3]
4000092c:	e51b3008 	ldr	r3, [fp, #-8]
40000930:	e2833001 	add	r3, r3, #1
40000934:	e50b3008 	str	r3, [fp, #-8]
40000938:	e51b3008 	ldr	r3, [fp, #-8]
4000093c:	e3530003 	cmp	r3, #3
40000940:	dafffff0 	ble	40000908 <gic_init+0x104>
40000944:	e51b300c 	ldr	r3, [fp, #-12]
40000948:	e1a00003 	mov	r0, r3
4000094c:	e24bd004 	sub	sp, fp, #4
40000950:	e8bd8800 	pop	{fp, pc}

40000954 <gic_interrupt>:
40000954:	e92d4800 	push	{fp, lr}
40000958:	e28db004 	add	fp, sp, #4
4000095c:	e24dd018 	sub	sp, sp, #24
40000960:	e50b0018 	str	r0, [fp, #-24]
40000964:	e50b101c 	str	r1, [fp, #-28]
40000968:	e51b301c 	ldr	r3, [fp, #-28]
4000096c:	e50b3008 	str	r3, [fp, #-8]
40000970:	ebfffe2b 	bl	40000224 <smp_processor_id>
40000974:	e50b000c 	str	r0, [fp, #-12]
40000978:	e3023060 	movw	r3, #8288	; 0x2060
4000097c:	e3443000 	movt	r3, #16384	; 0x4000
40000980:	e5933008 	ldr	r3, [r3, #8]
40000984:	e593300c 	ldr	r3, [r3, #12]
40000988:	e50b3010 	str	r3, [fp, #-16]
4000098c:	e51b3010 	ldr	r3, [fp, #-16]
40000990:	e1a03b03 	lsl	r3, r3, #22
40000994:	e1a03b23 	lsr	r3, r3, #22
40000998:	e50b3014 	str	r3, [fp, #-20]
4000099c:	e3023060 	movw	r3, #8288	; 0x2060
400009a0:	e3443000 	movt	r3, #16384	; 0x4000
400009a4:	e593200c 	ldr	r2, [r3, #12]
400009a8:	e51b3014 	ldr	r3, [fp, #-20]
400009ac:	e1520003 	cmp	r2, r3
400009b0:	9a00003d 	bls	40000aac <gic_interrupt+0x158>
400009b4:	e51b3014 	ldr	r3, [fp, #-20]
400009b8:	e3530000 	cmp	r3, #0
400009bc:	1a000015 	bne	40000a18 <gic_interrupt+0xc4>
400009c0:	e3010f1c 	movw	r0, #7964	; 0x1f1c
400009c4:	e3440000 	movt	r0, #16384	; 0x4000
400009c8:	eb0003d5 	bl	40001924 <uart_print>
400009cc:	e3023060 	movw	r3, #8288	; 0x2060
400009d0:	e3443000 	movt	r3, #16384	; 0x4000
400009d4:	e5933004 	ldr	r3, [r3, #4]
400009d8:	e1a00003 	mov	r0, r3
400009dc:	eb0003e2 	bl	4000196c <uart_print_hex32>
400009e0:	e3010f00 	movw	r0, #7936	; 0x1f00
400009e4:	e3440000 	movt	r0, #16384	; 0x4000
400009e8:	eb0003cd 	bl	40001924 <uart_print>
400009ec:	e3010f34 	movw	r0, #7988	; 0x1f34
400009f0:	e3440000 	movt	r0, #16384	; 0x4000
400009f4:	eb0003ca 	bl	40001924 <uart_print>
400009f8:	e3023060 	movw	r3, #8288	; 0x2060
400009fc:	e3443000 	movt	r3, #16384	; 0x4000
40000a00:	e5933008 	ldr	r3, [r3, #8]
40000a04:	e1a00003 	mov	r0, r3
40000a08:	eb0003d7 	bl	4000196c <uart_print_hex32>
40000a0c:	e3010f00 	movw	r0, #7936	; 0x1f00
40000a10:	e3440000 	movt	r0, #16384	; 0x4000
40000a14:	eb0003c2 	bl	40001924 <uart_print>
40000a18:	e3023060 	movw	r3, #8288	; 0x2060
40000a1c:	e3443000 	movt	r3, #16384	; 0x4000
40000a20:	e51b2014 	ldr	r2, [fp, #-20]
40000a24:	e2821004 	add	r1, r2, #4
40000a28:	e3a02004 	mov	r2, #4
40000a2c:	e1a01101 	lsl	r1, r1, #2
40000a30:	e0833001 	add	r3, r3, r1
40000a34:	e0833002 	add	r3, r3, r2
40000a38:	e5933000 	ldr	r3, [r3]
40000a3c:	e3530000 	cmp	r3, #0
40000a40:	0a00000d 	beq	40000a7c <gic_interrupt+0x128>
40000a44:	e3023060 	movw	r3, #8288	; 0x2060
40000a48:	e3443000 	movt	r3, #16384	; 0x4000
40000a4c:	e51b2014 	ldr	r2, [fp, #-20]
40000a50:	e2821004 	add	r1, r2, #4
40000a54:	e3a02004 	mov	r2, #4
40000a58:	e1a01101 	lsl	r1, r1, #2
40000a5c:	e0833001 	add	r3, r3, r1
40000a60:	e0833002 	add	r3, r3, r2
40000a64:	e5933000 	ldr	r3, [r3]
40000a68:	e51b2014 	ldr	r2, [fp, #-20]
40000a6c:	e1a00002 	mov	r0, r2
40000a70:	e51b1008 	ldr	r1, [fp, #-8]
40000a74:	e3a02000 	mov	r2, #0
40000a78:	e12fff33 	blx	r3
40000a7c:	e3023060 	movw	r3, #8288	; 0x2060
40000a80:	e3443000 	movt	r3, #16384	; 0x4000
40000a84:	e5933008 	ldr	r3, [r3, #8]
40000a88:	e2833010 	add	r3, r3, #16
40000a8c:	e51b2014 	ldr	r2, [fp, #-20]
40000a90:	e5832000 	str	r2, [r3]
40000a94:	e3023060 	movw	r3, #8288	; 0x2060
40000a98:	e3443000 	movt	r3, #16384	; 0x4000
40000a9c:	e5933008 	ldr	r3, [r3, #8]
40000aa0:	e2833a01 	add	r3, r3, #4096	; 0x1000
40000aa4:	e51b2014 	ldr	r2, [fp, #-20]
40000aa8:	e5832000 	str	r2, [r3]
40000aac:	e24bd004 	sub	sp, fp, #4
40000ab0:	e8bd8800 	pop	{fp, pc}

40000ab4 <test_vdev_sample>:
40000ab4:	e92d4800 	push	{fp, lr}
40000ab8:	e28db004 	add	fp, sp, #4
40000abc:	e24dd020 	sub	sp, sp, #32
40000ac0:	e3a03a0f 	mov	r3, #61440	; 0xf000
40000ac4:	e3433fff 	movt	r3, #16383	; 0x3fff
40000ac8:	e50b300c 	str	r3, [fp, #-12]
40000acc:	e51b300c 	ldr	r3, [fp, #-12]
40000ad0:	e50b3010 	str	r3, [fp, #-16]
40000ad4:	e51b300c 	ldr	r3, [fp, #-12]
40000ad8:	e2833004 	add	r3, r3, #4
40000adc:	e50b3014 	str	r3, [fp, #-20]
40000ae0:	e51b300c 	ldr	r3, [fp, #-12]
40000ae4:	e2833008 	add	r3, r3, #8
40000ae8:	e50b3018 	str	r3, [fp, #-24]
40000aec:	e3010fa8 	movw	r0, #8104	; 0x1fa8
40000af0:	e3440000 	movt	r0, #16384	; 0x4000
40000af4:	eb00038a 	bl	40001924 <uart_print>
40000af8:	e51b300c 	ldr	r3, [fp, #-12]
40000afc:	e1a00003 	mov	r0, r3
40000b00:	eb000399 	bl	4000196c <uart_print_hex32>
40000b04:	e3010fd0 	movw	r0, #8144	; 0x1fd0
40000b08:	e3440000 	movt	r0, #16384	; 0x4000
40000b0c:	eb000384 	bl	40001924 <uart_print>
40000b10:	e3a03000 	mov	r3, #0
40000b14:	e50b3008 	str	r3, [fp, #-8]
40000b18:	ea00003a 	b	40000c08 <test_vdev_sample+0x154>
40000b1c:	e51b3008 	ldr	r3, [fp, #-8]
40000b20:	e2833001 	add	r3, r3, #1
40000b24:	e1a03083 	lsl	r3, r3, #1
40000b28:	e50b301c 	str	r3, [fp, #-28]
40000b2c:	e51b3008 	ldr	r3, [fp, #-8]
40000b30:	e2832001 	add	r2, r3, #1
40000b34:	e1a03002 	mov	r3, r2
40000b38:	e1a03083 	lsl	r3, r3, #1
40000b3c:	e0833002 	add	r3, r3, r2
40000b40:	e50b3020 	str	r3, [fp, #-32]
40000b44:	e3010fd4 	movw	r0, #8148	; 0x1fd4
40000b48:	e3440000 	movt	r0, #16384	; 0x4000
40000b4c:	eb000374 	bl	40001924 <uart_print>
40000b50:	e51b301c 	ldr	r3, [fp, #-28]
40000b54:	e1a00003 	mov	r0, r3
40000b58:	eb000383 	bl	4000196c <uart_print_hex32>
40000b5c:	e3010fd8 	movw	r0, #8152	; 0x1fd8
40000b60:	e3440000 	movt	r0, #16384	; 0x4000
40000b64:	eb00036e 	bl	40001924 <uart_print>
40000b68:	e51b3020 	ldr	r3, [fp, #-32]
40000b6c:	e1a00003 	mov	r0, r3
40000b70:	eb00037d 	bl	4000196c <uart_print_hex32>
40000b74:	e3010fe0 	movw	r0, #8160	; 0x1fe0
40000b78:	e3440000 	movt	r0, #16384	; 0x4000
40000b7c:	eb000368 	bl	40001924 <uart_print>
40000b80:	e51b201c 	ldr	r2, [fp, #-28]
40000b84:	e51b3010 	ldr	r3, [fp, #-16]
40000b88:	e5832000 	str	r2, [r3]
40000b8c:	e51b2020 	ldr	r2, [fp, #-32]
40000b90:	e51b3014 	ldr	r3, [fp, #-20]
40000b94:	e5832000 	str	r2, [r3]
40000b98:	e51b3018 	ldr	r3, [fp, #-24]
40000b9c:	e5933000 	ldr	r3, [r3]
40000ba0:	e50b3024 	str	r3, [fp, #-36]	; 0x24
40000ba4:	e3010fe4 	movw	r0, #8164	; 0x1fe4
40000ba8:	e3440000 	movt	r0, #16384	; 0x4000
40000bac:	eb00035c 	bl	40001924 <uart_print>
40000bb0:	e51b3024 	ldr	r3, [fp, #-36]	; 0x24
40000bb4:	e1a00003 	mov	r0, r3
40000bb8:	eb00036b 	bl	4000196c <uart_print_hex32>
40000bbc:	e51b201c 	ldr	r2, [fp, #-28]
40000bc0:	e51b3020 	ldr	r3, [fp, #-32]
40000bc4:	e0822003 	add	r2, r2, r3
40000bc8:	e51b3024 	ldr	r3, [fp, #-36]	; 0x24
40000bcc:	e1520003 	cmp	r2, r3
40000bd0:	1a000003 	bne	40000be4 <test_vdev_sample+0x130>
40000bd4:	e3010ff0 	movw	r0, #8176	; 0x1ff0
40000bd8:	e3440000 	movt	r0, #16384	; 0x4000
40000bdc:	eb000350 	bl	40001924 <uart_print>
40000be0:	ea000002 	b	40000bf0 <test_vdev_sample+0x13c>
40000be4:	e3010ff8 	movw	r0, #8184	; 0x1ff8
40000be8:	e3440000 	movt	r0, #16384	; 0x4000
40000bec:	eb00034c 	bl	40001924 <uart_print>
40000bf0:	e3010fd0 	movw	r0, #8144	; 0x1fd0
40000bf4:	e3440000 	movt	r0, #16384	; 0x4000
40000bf8:	eb000349 	bl	40001924 <uart_print>
40000bfc:	e51b3008 	ldr	r3, [fp, #-8]
40000c00:	e2833001 	add	r3, r3, #1
40000c04:	e50b3008 	str	r3, [fp, #-8]
40000c08:	e51b3008 	ldr	r3, [fp, #-8]
40000c0c:	e3530009 	cmp	r3, #9
40000c10:	daffffc1 	ble	40000b1c <test_vdev_sample+0x68>
40000c14:	e3020004 	movw	r0, #8196	; 0x2004
40000c18:	e3440000 	movt	r0, #16384	; 0x4000
40000c1c:	eb000340 	bl	40001924 <uart_print>
40000c20:	e24bd004 	sub	sp, fp, #4
40000c24:	e8bd8800 	pop	{fp, pc}

40000c28 <vtimer_mask>:
40000c28:	e52db004 	push	{fp}		; (str fp, [sp, #-4]!)
40000c2c:	e28db000 	add	fp, sp, #0
40000c30:	e24dd00c 	sub	sp, sp, #12
40000c34:	e50b0008 	str	r0, [fp, #-8]
40000c38:	e302305c 	movw	r3, #8284	; 0x205c
40000c3c:	e3443000 	movt	r3, #16384	; 0x4000
40000c40:	e5933000 	ldr	r3, [r3]
40000c44:	e51b2008 	ldr	r2, [fp, #-8]
40000c48:	e5832000 	str	r2, [r3]
40000c4c:	e28bd000 	add	sp, fp, #0
40000c50:	e8bd0800 	pop	{fp}
40000c54:	e12fff1e 	bx	lr

40000c58 <__memmove_down>:
40000c58:	e52db004 	push	{fp}		; (str fp, [sp, #-4]!)
40000c5c:	e28db000 	add	fp, sp, #0
40000c60:	e24dd01c 	sub	sp, sp, #28
40000c64:	e50b0010 	str	r0, [fp, #-16]
40000c68:	e50b1014 	str	r1, [fp, #-20]
40000c6c:	e50b2018 	str	r2, [fp, #-24]
40000c70:	e51b3010 	ldr	r3, [fp, #-16]
40000c74:	e50b3008 	str	r3, [fp, #-8]
40000c78:	e51b3014 	ldr	r3, [fp, #-20]
40000c7c:	e50b300c 	str	r3, [fp, #-12]
40000c80:	ea000009 	b	40000cac <__memmove_down+0x54>
40000c84:	e51b300c 	ldr	r3, [fp, #-12]
40000c88:	e5d32000 	ldrb	r2, [r3]
40000c8c:	e51b3008 	ldr	r3, [fp, #-8]
40000c90:	e5c32000 	strb	r2, [r3]
40000c94:	e51b3008 	ldr	r3, [fp, #-8]
40000c98:	e2833001 	add	r3, r3, #1
40000c9c:	e50b3008 	str	r3, [fp, #-8]
40000ca0:	e51b300c 	ldr	r3, [fp, #-12]
40000ca4:	e2833001 	add	r3, r3, #1
40000ca8:	e50b300c 	str	r3, [fp, #-12]
40000cac:	e51b3018 	ldr	r3, [fp, #-24]
40000cb0:	e3530000 	cmp	r3, #0
40000cb4:	03a03000 	moveq	r3, #0
40000cb8:	13a03001 	movne	r3, #1
40000cbc:	e6ef3073 	uxtb	r3, r3
40000cc0:	e51b2018 	ldr	r2, [fp, #-24]
40000cc4:	e2422001 	sub	r2, r2, #1
40000cc8:	e50b2018 	str	r2, [fp, #-24]
40000ccc:	e3530000 	cmp	r3, #0
40000cd0:	1affffeb 	bne	40000c84 <__memmove_down+0x2c>
40000cd4:	e51b3010 	ldr	r3, [fp, #-16]
40000cd8:	e1a00003 	mov	r0, r3
40000cdc:	e28bd000 	add	sp, fp, #0
40000ce0:	e8bd0800 	pop	{fp}
40000ce4:	e12fff1e 	bx	lr

40000ce8 <__memmove_up>:
40000ce8:	e52db004 	push	{fp}		; (str fp, [sp, #-4]!)
40000cec:	e28db000 	add	fp, sp, #0
40000cf0:	e24dd01c 	sub	sp, sp, #28
40000cf4:	e50b0010 	str	r0, [fp, #-16]
40000cf8:	e50b1014 	str	r1, [fp, #-20]
40000cfc:	e50b2018 	str	r2, [fp, #-24]
40000d00:	e51b3018 	ldr	r3, [fp, #-24]
40000d04:	e2433001 	sub	r3, r3, #1
40000d08:	e51b2010 	ldr	r2, [fp, #-16]
40000d0c:	e0823003 	add	r3, r2, r3
40000d10:	e50b3008 	str	r3, [fp, #-8]
40000d14:	e51b3018 	ldr	r3, [fp, #-24]
40000d18:	e2433001 	sub	r3, r3, #1
40000d1c:	e51b2014 	ldr	r2, [fp, #-20]
40000d20:	e0823003 	add	r3, r2, r3
40000d24:	e50b300c 	str	r3, [fp, #-12]
40000d28:	ea000009 	b	40000d54 <__memmove_up+0x6c>
40000d2c:	e51b300c 	ldr	r3, [fp, #-12]
40000d30:	e5d32000 	ldrb	r2, [r3]
40000d34:	e51b3008 	ldr	r3, [fp, #-8]
40000d38:	e5c32000 	strb	r2, [r3]
40000d3c:	e51b3008 	ldr	r3, [fp, #-8]
40000d40:	e2433001 	sub	r3, r3, #1
40000d44:	e50b3008 	str	r3, [fp, #-8]
40000d48:	e51b300c 	ldr	r3, [fp, #-12]
40000d4c:	e2433001 	sub	r3, r3, #1
40000d50:	e50b300c 	str	r3, [fp, #-12]
40000d54:	e51b3018 	ldr	r3, [fp, #-24]
40000d58:	e3530000 	cmp	r3, #0
40000d5c:	03a03000 	moveq	r3, #0
40000d60:	13a03001 	movne	r3, #1
40000d64:	e6ef3073 	uxtb	r3, r3
40000d68:	e51b2018 	ldr	r2, [fp, #-24]
40000d6c:	e2422001 	sub	r2, r2, #1
40000d70:	e50b2018 	str	r2, [fp, #-24]
40000d74:	e3530000 	cmp	r3, #0
40000d78:	1affffeb 	bne	40000d2c <__memmove_up+0x44>
40000d7c:	e51b3010 	ldr	r3, [fp, #-16]
40000d80:	e1a00003 	mov	r0, r3
40000d84:	e28bd000 	add	sp, fp, #0
40000d88:	e8bd0800 	pop	{fp}
40000d8c:	e12fff1e 	bx	lr

40000d90 <memcpy>:
40000d90:	e92d4800 	push	{fp, lr}
40000d94:	e28db004 	add	fp, sp, #4
40000d98:	e24dd010 	sub	sp, sp, #16
40000d9c:	e50b0008 	str	r0, [fp, #-8]
40000da0:	e50b100c 	str	r1, [fp, #-12]
40000da4:	e50b2010 	str	r2, [fp, #-16]
40000da8:	e51b0008 	ldr	r0, [fp, #-8]
40000dac:	e51b100c 	ldr	r1, [fp, #-12]
40000db0:	e51b2010 	ldr	r2, [fp, #-16]
40000db4:	ebffffa7 	bl	40000c58 <__memmove_down>
40000db8:	e1a03000 	mov	r3, r0
40000dbc:	e1a00003 	mov	r0, r3
40000dc0:	e24bd004 	sub	sp, fp, #4
40000dc4:	e8bd8800 	pop	{fp, pc}

40000dc8 <memmove>:
40000dc8:	e92d4800 	push	{fp, lr}
40000dcc:	e28db004 	add	fp, sp, #4
40000dd0:	e24dd010 	sub	sp, sp, #16
40000dd4:	e50b0008 	str	r0, [fp, #-8]
40000dd8:	e50b100c 	str	r1, [fp, #-12]
40000ddc:	e50b2010 	str	r2, [fp, #-16]
40000de0:	e51b2008 	ldr	r2, [fp, #-8]
40000de4:	e51b300c 	ldr	r3, [fp, #-12]
40000de8:	e1520003 	cmp	r2, r3
40000dec:	9a000005 	bls	40000e08 <memmove+0x40>
40000df0:	e51b0008 	ldr	r0, [fp, #-8]
40000df4:	e51b100c 	ldr	r1, [fp, #-12]
40000df8:	e51b2010 	ldr	r2, [fp, #-16]
40000dfc:	ebffffb9 	bl	40000ce8 <__memmove_up>
40000e00:	e1a03000 	mov	r3, r0
40000e04:	ea000004 	b	40000e1c <memmove+0x54>
40000e08:	e51b0008 	ldr	r0, [fp, #-8]
40000e0c:	e51b100c 	ldr	r1, [fp, #-12]
40000e10:	e51b2010 	ldr	r2, [fp, #-16]
40000e14:	ebffff8f 	bl	40000c58 <__memmove_down>
40000e18:	e1a03000 	mov	r3, r0
40000e1c:	e1a00003 	mov	r0, r3
40000e20:	e24bd004 	sub	sp, fp, #4
40000e24:	e8bd8800 	pop	{fp, pc}

40000e28 <memchr>:
40000e28:	e52db004 	push	{fp}		; (str fp, [sp, #-4]!)
40000e2c:	e28db000 	add	fp, sp, #0
40000e30:	e24dd01c 	sub	sp, sp, #28
40000e34:	e50b0010 	str	r0, [fp, #-16]
40000e38:	e50b1014 	str	r1, [fp, #-20]
40000e3c:	e50b2018 	str	r2, [fp, #-24]
40000e40:	e51b3010 	ldr	r3, [fp, #-16]
40000e44:	e50b3008 	str	r3, [fp, #-8]
40000e48:	ea000005 	b	40000e64 <memchr+0x3c>
40000e4c:	e51b3008 	ldr	r3, [fp, #-8]
40000e50:	e2833001 	add	r3, r3, #1
40000e54:	e50b3008 	str	r3, [fp, #-8]
40000e58:	e51b3018 	ldr	r3, [fp, #-24]
40000e5c:	e2433001 	sub	r3, r3, #1
40000e60:	e50b3018 	str	r3, [fp, #-24]
40000e64:	e51b3018 	ldr	r3, [fp, #-24]
40000e68:	e3530000 	cmp	r3, #0
40000e6c:	0a000005 	beq	40000e88 <memchr+0x60>
40000e70:	e51b3008 	ldr	r3, [fp, #-8]
40000e74:	e5d33000 	ldrb	r3, [r3]
40000e78:	e1a02003 	mov	r2, r3
40000e7c:	e51b3014 	ldr	r3, [fp, #-20]
40000e80:	e1520003 	cmp	r2, r3
40000e84:	1afffff0 	bne	40000e4c <memchr+0x24>
40000e88:	e51b3018 	ldr	r3, [fp, #-24]
40000e8c:	e3530000 	cmp	r3, #0
40000e90:	0a000001 	beq	40000e9c <memchr+0x74>
40000e94:	e51b3008 	ldr	r3, [fp, #-8]
40000e98:	ea000000 	b	40000ea0 <memchr+0x78>
40000e9c:	e3a03000 	mov	r3, #0
40000ea0:	e1a00003 	mov	r0, r3
40000ea4:	e28bd000 	add	sp, fp, #0
40000ea8:	e8bd0800 	pop	{fp}
40000eac:	e12fff1e 	bx	lr

40000eb0 <strlen>:
40000eb0:	e52db004 	push	{fp}		; (str fp, [sp, #-4]!)
40000eb4:	e28db000 	add	fp, sp, #0
40000eb8:	e24dd014 	sub	sp, sp, #20
40000ebc:	e50b0010 	str	r0, [fp, #-16]
40000ec0:	e51b3010 	ldr	r3, [fp, #-16]
40000ec4:	e50b3008 	str	r3, [fp, #-8]
40000ec8:	ea000002 	b	40000ed8 <strlen+0x28>
40000ecc:	e51b3008 	ldr	r3, [fp, #-8]
40000ed0:	e2833001 	add	r3, r3, #1
40000ed4:	e50b3008 	str	r3, [fp, #-8]
40000ed8:	e51b3008 	ldr	r3, [fp, #-8]
40000edc:	e5d33000 	ldrb	r3, [r3]
40000ee0:	e3530000 	cmp	r3, #0
40000ee4:	1afffff8 	bne	40000ecc <strlen+0x1c>
40000ee8:	e51b2008 	ldr	r2, [fp, #-8]
40000eec:	e51b3010 	ldr	r3, [fp, #-16]
40000ef0:	e0633002 	rsb	r3, r3, r2
40000ef4:	e1a00003 	mov	r0, r3
40000ef8:	e28bd000 	add	sp, fp, #0
40000efc:	e8bd0800 	pop	{fp}
40000f00:	e12fff1e 	bx	lr

40000f04 <memset>:
40000f04:	e52db004 	push	{fp}		; (str fp, [sp, #-4]!)
40000f08:	e28db000 	add	fp, sp, #0
40000f0c:	e24dd01c 	sub	sp, sp, #28
40000f10:	e50b0010 	str	r0, [fp, #-16]
40000f14:	e50b1014 	str	r1, [fp, #-20]
40000f18:	e50b2018 	str	r2, [fp, #-24]
40000f1c:	e51b3010 	ldr	r3, [fp, #-16]
40000f20:	e50b3008 	str	r3, [fp, #-8]
40000f24:	ea000006 	b	40000f44 <memset+0x40>
40000f28:	e51b3014 	ldr	r3, [fp, #-20]
40000f2c:	e6ef2073 	uxtb	r2, r3
40000f30:	e51b3008 	ldr	r3, [fp, #-8]
40000f34:	e5c32000 	strb	r2, [r3]
40000f38:	e51b3008 	ldr	r3, [fp, #-8]
40000f3c:	e2833001 	add	r3, r3, #1
40000f40:	e50b3008 	str	r3, [fp, #-8]
40000f44:	e51b3018 	ldr	r3, [fp, #-24]
40000f48:	e3530000 	cmp	r3, #0
40000f4c:	03a03000 	moveq	r3, #0
40000f50:	13a03001 	movne	r3, #1
40000f54:	e6ef3073 	uxtb	r3, r3
40000f58:	e51b2018 	ldr	r2, [fp, #-24]
40000f5c:	e2422001 	sub	r2, r2, #1
40000f60:	e50b2018 	str	r2, [fp, #-24]
40000f64:	e3530000 	cmp	r3, #0
40000f68:	1affffee 	bne	40000f28 <memset+0x24>
40000f6c:	e51b3010 	ldr	r3, [fp, #-16]
40000f70:	e1a00003 	mov	r0, r3
40000f74:	e28bd000 	add	sp, fp, #0
40000f78:	e8bd0800 	pop	{fp}
40000f7c:	e12fff1e 	bx	lr

40000f80 <memcmp>:
40000f80:	e52db004 	push	{fp}		; (str fp, [sp, #-4]!)
40000f84:	e28db000 	add	fp, sp, #0
40000f88:	e24dd01c 	sub	sp, sp, #28
40000f8c:	e50b0010 	str	r0, [fp, #-16]
40000f90:	e50b1014 	str	r1, [fp, #-20]
40000f94:	e50b2018 	str	r2, [fp, #-24]
40000f98:	e51b3010 	ldr	r3, [fp, #-16]
40000f9c:	e50b3008 	str	r3, [fp, #-8]
40000fa0:	e51b3014 	ldr	r3, [fp, #-20]
40000fa4:	e50b300c 	str	r3, [fp, #-12]
40000fa8:	ea000015 	b	40001004 <memcmp+0x84>
40000fac:	e51b3008 	ldr	r3, [fp, #-8]
40000fb0:	e5d32000 	ldrb	r2, [r3]
40000fb4:	e51b300c 	ldr	r3, [fp, #-12]
40000fb8:	e5d33000 	ldrb	r3, [r3]
40000fbc:	e1520003 	cmp	r2, r3
40000fc0:	2a000001 	bcs	40000fcc <memcmp+0x4c>
40000fc4:	e3e03000 	mvn	r3, #0
40000fc8:	ea000018 	b	40001030 <memcmp+0xb0>
40000fcc:	e51b3008 	ldr	r3, [fp, #-8]
40000fd0:	e5d32000 	ldrb	r2, [r3]
40000fd4:	e51b300c 	ldr	r3, [fp, #-12]
40000fd8:	e5d33000 	ldrb	r3, [r3]
40000fdc:	e1520003 	cmp	r2, r3
40000fe0:	9a000001 	bls	40000fec <memcmp+0x6c>
40000fe4:	e3a03001 	mov	r3, #1
40000fe8:	ea000010 	b	40001030 <memcmp+0xb0>
40000fec:	e51b3008 	ldr	r3, [fp, #-8]
40000ff0:	e2833001 	add	r3, r3, #1
40000ff4:	e50b3008 	str	r3, [fp, #-8]
40000ff8:	e51b300c 	ldr	r3, [fp, #-12]
40000ffc:	e2833001 	add	r3, r3, #1
40001000:	e50b300c 	str	r3, [fp, #-12]
40001004:	e51b3018 	ldr	r3, [fp, #-24]
40001008:	e3530000 	cmp	r3, #0
4000100c:	03a03000 	moveq	r3, #0
40001010:	13a03001 	movne	r3, #1
40001014:	e6ef3073 	uxtb	r3, r3
40001018:	e51b2018 	ldr	r2, [fp, #-24]
4000101c:	e2422001 	sub	r2, r2, #1
40001020:	e50b2018 	str	r2, [fp, #-24]
40001024:	e3530000 	cmp	r3, #0
40001028:	1affffdf 	bne	40000fac <memcmp+0x2c>
4000102c:	e3a03000 	mov	r3, #0
40001030:	e1a00003 	mov	r0, r3
40001034:	e28bd000 	add	sp, fp, #0
40001038:	e8bd0800 	pop	{fp}
4000103c:	e12fff1e 	bx	lr

40001040 <strcmp>:
40001040:	e52db004 	push	{fp}		; (str fp, [sp, #-4]!)
40001044:	e28db000 	add	fp, sp, #0
40001048:	e24dd00c 	sub	sp, sp, #12
4000104c:	e50b0008 	str	r0, [fp, #-8]
40001050:	e50b100c 	str	r1, [fp, #-12]
40001054:	ea000015 	b	400010b0 <strcmp+0x70>
40001058:	e51b3008 	ldr	r3, [fp, #-8]
4000105c:	e5d32000 	ldrb	r2, [r3]
40001060:	e51b300c 	ldr	r3, [fp, #-12]
40001064:	e5d33000 	ldrb	r3, [r3]
40001068:	e1520003 	cmp	r2, r3
4000106c:	2a000001 	bcs	40001078 <strcmp+0x38>
40001070:	e3e03000 	mvn	r3, #0
40001074:	ea000026 	b	40001114 <strcmp+0xd4>
40001078:	e51b3008 	ldr	r3, [fp, #-8]
4000107c:	e5d32000 	ldrb	r2, [r3]
40001080:	e51b300c 	ldr	r3, [fp, #-12]
40001084:	e5d33000 	ldrb	r3, [r3]
40001088:	e1520003 	cmp	r2, r3
4000108c:	9a000001 	bls	40001098 <strcmp+0x58>
40001090:	e3a03001 	mov	r3, #1
40001094:	ea00001e 	b	40001114 <strcmp+0xd4>
40001098:	e51b3008 	ldr	r3, [fp, #-8]
4000109c:	e2833001 	add	r3, r3, #1
400010a0:	e50b3008 	str	r3, [fp, #-8]
400010a4:	e51b300c 	ldr	r3, [fp, #-12]
400010a8:	e2833001 	add	r3, r3, #1
400010ac:	e50b300c 	str	r3, [fp, #-12]
400010b0:	e51b3008 	ldr	r3, [fp, #-8]
400010b4:	e5d33000 	ldrb	r3, [r3]
400010b8:	e3530000 	cmp	r3, #0
400010bc:	0a000003 	beq	400010d0 <strcmp+0x90>
400010c0:	e51b300c 	ldr	r3, [fp, #-12]
400010c4:	e5d33000 	ldrb	r3, [r3]
400010c8:	e3530000 	cmp	r3, #0
400010cc:	1affffe1 	bne	40001058 <strcmp+0x18>
400010d0:	e51b3008 	ldr	r3, [fp, #-8]
400010d4:	e5d33000 	ldrb	r3, [r3]
400010d8:	e3530000 	cmp	r3, #0
400010dc:	1a000005 	bne	400010f8 <strcmp+0xb8>
400010e0:	e51b300c 	ldr	r3, [fp, #-12]
400010e4:	e5d33000 	ldrb	r3, [r3]
400010e8:	e3530000 	cmp	r3, #0
400010ec:	1a000001 	bne	400010f8 <strcmp+0xb8>
400010f0:	e3a03000 	mov	r3, #0
400010f4:	ea000006 	b	40001114 <strcmp+0xd4>
400010f8:	e51b3008 	ldr	r3, [fp, #-8]
400010fc:	e5d33000 	ldrb	r3, [r3]
40001100:	e3530000 	cmp	r3, #0
40001104:	1a000001 	bne	40001110 <strcmp+0xd0>
40001108:	e3e03000 	mvn	r3, #0
4000110c:	ea000000 	b	40001114 <strcmp+0xd4>
40001110:	e3a03001 	mov	r3, #1
40001114:	e1a00003 	mov	r0, r3
40001118:	e28bd000 	add	sp, fp, #0
4000111c:	e8bd0800 	pop	{fp}
40001120:	e12fff1e 	bx	lr

40001124 <strncmp>:
40001124:	e52db004 	push	{fp}		; (str fp, [sp, #-4]!)
40001128:	e28db000 	add	fp, sp, #0
4000112c:	e24dd014 	sub	sp, sp, #20
40001130:	e50b0008 	str	r0, [fp, #-8]
40001134:	e50b100c 	str	r1, [fp, #-12]
40001138:	e50b2010 	str	r2, [fp, #-16]
4000113c:	ea000015 	b	40001198 <strncmp+0x74>
40001140:	e51b3008 	ldr	r3, [fp, #-8]
40001144:	e5d32000 	ldrb	r2, [r3]
40001148:	e51b300c 	ldr	r3, [fp, #-12]
4000114c:	e5d33000 	ldrb	r3, [r3]
40001150:	e1520003 	cmp	r2, r3
40001154:	2a000001 	bcs	40001160 <strncmp+0x3c>
40001158:	e3e03000 	mvn	r3, #0
4000115c:	ea000033 	b	40001230 <strncmp+0x10c>
40001160:	e51b3008 	ldr	r3, [fp, #-8]
40001164:	e5d32000 	ldrb	r2, [r3]
40001168:	e51b300c 	ldr	r3, [fp, #-12]
4000116c:	e5d33000 	ldrb	r3, [r3]
40001170:	e1520003 	cmp	r2, r3
40001174:	9a000001 	bls	40001180 <strncmp+0x5c>
40001178:	e3a03001 	mov	r3, #1
4000117c:	ea00002b 	b	40001230 <strncmp+0x10c>
40001180:	e51b3008 	ldr	r3, [fp, #-8]
40001184:	e2833001 	add	r3, r3, #1
40001188:	e50b3008 	str	r3, [fp, #-8]
4000118c:	e51b300c 	ldr	r3, [fp, #-12]
40001190:	e2833001 	add	r3, r3, #1
40001194:	e50b300c 	str	r3, [fp, #-12]
40001198:	e51b3008 	ldr	r3, [fp, #-8]
4000119c:	e5d33000 	ldrb	r3, [r3]
400011a0:	e3530000 	cmp	r3, #0
400011a4:	0a00000d 	beq	400011e0 <strncmp+0xbc>
400011a8:	e51b300c 	ldr	r3, [fp, #-12]
400011ac:	e5d33000 	ldrb	r3, [r3]
400011b0:	e3530000 	cmp	r3, #0
400011b4:	0a000009 	beq	400011e0 <strncmp+0xbc>
400011b8:	e51b3010 	ldr	r3, [fp, #-16]
400011bc:	e3530000 	cmp	r3, #0
400011c0:	03a03000 	moveq	r3, #0
400011c4:	13a03001 	movne	r3, #1
400011c8:	e6ef3073 	uxtb	r3, r3
400011cc:	e51b2010 	ldr	r2, [fp, #-16]
400011d0:	e2422001 	sub	r2, r2, #1
400011d4:	e50b2010 	str	r2, [fp, #-16]
400011d8:	e3530000 	cmp	r3, #0
400011dc:	1affffd7 	bne	40001140 <strncmp+0x1c>
400011e0:	e51b3010 	ldr	r3, [fp, #-16]
400011e4:	e3530000 	cmp	r3, #0
400011e8:	0a000007 	beq	4000120c <strncmp+0xe8>
400011ec:	e51b3008 	ldr	r3, [fp, #-8]
400011f0:	e5d33000 	ldrb	r3, [r3]
400011f4:	e3530000 	cmp	r3, #0
400011f8:	1a000005 	bne	40001214 <strncmp+0xf0>
400011fc:	e51b300c 	ldr	r3, [fp, #-12]
40001200:	e5d33000 	ldrb	r3, [r3]
40001204:	e3530000 	cmp	r3, #0
40001208:	1a000001 	bne	40001214 <strncmp+0xf0>
4000120c:	e3a03000 	mov	r3, #0
40001210:	ea000006 	b	40001230 <strncmp+0x10c>
40001214:	e51b3008 	ldr	r3, [fp, #-8]
40001218:	e5d33000 	ldrb	r3, [r3]
4000121c:	e3530000 	cmp	r3, #0
40001220:	1a000001 	bne	4000122c <strncmp+0x108>
40001224:	e3e03000 	mvn	r3, #0
40001228:	ea000000 	b	40001230 <strncmp+0x10c>
4000122c:	e3a03001 	mov	r3, #1
40001230:	e1a00003 	mov	r0, r3
40001234:	e28bd000 	add	sp, fp, #0
40001238:	e8bd0800 	pop	{fp}
4000123c:	e12fff1e 	bx	lr

40001240 <strchr>:
40001240:	e52db004 	push	{fp}		; (str fp, [sp, #-4]!)
40001244:	e28db000 	add	fp, sp, #0
40001248:	e24dd014 	sub	sp, sp, #20
4000124c:	e50b0010 	str	r0, [fp, #-16]
40001250:	e50b1014 	str	r1, [fp, #-20]
40001254:	e51b3010 	ldr	r3, [fp, #-16]
40001258:	e50b3008 	str	r3, [fp, #-8]
4000125c:	ea000002 	b	4000126c <strchr+0x2c>
40001260:	e51b3008 	ldr	r3, [fp, #-8]
40001264:	e2833001 	add	r3, r3, #1
40001268:	e50b3008 	str	r3, [fp, #-8]
4000126c:	e51b3008 	ldr	r3, [fp, #-8]
40001270:	e5d33000 	ldrb	r3, [r3]
40001274:	e3530000 	cmp	r3, #0
40001278:	0a000005 	beq	40001294 <strchr+0x54>
4000127c:	e51b3008 	ldr	r3, [fp, #-8]
40001280:	e5d33000 	ldrb	r3, [r3]
40001284:	e1a02003 	mov	r2, r3
40001288:	e51b3014 	ldr	r3, [fp, #-20]
4000128c:	e1520003 	cmp	r2, r3
40001290:	1afffff2 	bne	40001260 <strchr+0x20>
40001294:	e51b3008 	ldr	r3, [fp, #-8]
40001298:	e5d33000 	ldrb	r3, [r3]
4000129c:	e3530000 	cmp	r3, #0
400012a0:	0a000001 	beq	400012ac <strchr+0x6c>
400012a4:	e51b3008 	ldr	r3, [fp, #-8]
400012a8:	ea000000 	b	400012b0 <strchr+0x70>
400012ac:	e3a03000 	mov	r3, #0
400012b0:	e1a00003 	mov	r0, r3
400012b4:	e28bd000 	add	sp, fp, #0
400012b8:	e8bd0800 	pop	{fp}
400012bc:	e12fff1e 	bx	lr

400012c0 <strcpy>:
400012c0:	e52db004 	push	{fp}		; (str fp, [sp, #-4]!)
400012c4:	e28db000 	add	fp, sp, #0
400012c8:	e24dd014 	sub	sp, sp, #20
400012cc:	e50b0010 	str	r0, [fp, #-16]
400012d0:	e50b1014 	str	r1, [fp, #-20]
400012d4:	e3a03000 	mov	r3, #0
400012d8:	e50b3008 	str	r3, [fp, #-8]
400012dc:	ea00000a 	b	4000130c <strcpy+0x4c>
400012e0:	e51b2010 	ldr	r2, [fp, #-16]
400012e4:	e51b3008 	ldr	r3, [fp, #-8]
400012e8:	e0823003 	add	r3, r2, r3
400012ec:	e51b1014 	ldr	r1, [fp, #-20]
400012f0:	e51b2008 	ldr	r2, [fp, #-8]
400012f4:	e0812002 	add	r2, r1, r2
400012f8:	e5d22000 	ldrb	r2, [r2]
400012fc:	e5c32000 	strb	r2, [r3]
40001300:	e51b3008 	ldr	r3, [fp, #-8]
40001304:	e2833001 	add	r3, r3, #1
40001308:	e50b3008 	str	r3, [fp, #-8]
4000130c:	e51b2014 	ldr	r2, [fp, #-20]
40001310:	e51b3008 	ldr	r3, [fp, #-8]
40001314:	e0823003 	add	r3, r2, r3
40001318:	e5d33000 	ldrb	r3, [r3]
4000131c:	e3530000 	cmp	r3, #0
40001320:	1affffee 	bne	400012e0 <strcpy+0x20>
40001324:	e51b2010 	ldr	r2, [fp, #-16]
40001328:	e51b3008 	ldr	r3, [fp, #-8]
4000132c:	e0823003 	add	r3, r2, r3
40001330:	e3a02000 	mov	r2, #0
40001334:	e5c32000 	strb	r2, [r3]
40001338:	e51b3010 	ldr	r3, [fp, #-16]
4000133c:	e1a00003 	mov	r0, r3
40001340:	e28bd000 	add	sp, fp, #0
40001344:	e8bd0800 	pop	{fp}
40001348:	e12fff1e 	bx	lr

4000134c <arm_hexstr2uint>:
4000134c:	e52db004 	push	{fp}		; (str fp, [sp, #-4]!)
40001350:	e28db000 	add	fp, sp, #0
40001354:	e24dd014 	sub	sp, sp, #20
40001358:	e50b0010 	str	r0, [fp, #-16]
4000135c:	e3a03000 	mov	r3, #0
40001360:	e50b3008 	str	r3, [fp, #-8]
40001364:	e3a03000 	mov	r3, #0
40001368:	e50b300c 	str	r3, [fp, #-12]
4000136c:	e51b3010 	ldr	r3, [fp, #-16]
40001370:	e5d33000 	ldrb	r3, [r3]
40001374:	e3530030 	cmp	r3, #48	; 0x30
40001378:	1a00004c 	bne	400014b0 <arm_hexstr2uint+0x164>
4000137c:	e51b3010 	ldr	r3, [fp, #-16]
40001380:	e2833001 	add	r3, r3, #1
40001384:	e5d33000 	ldrb	r3, [r3]
40001388:	e3530078 	cmp	r3, #120	; 0x78
4000138c:	1a000047 	bne	400014b0 <arm_hexstr2uint+0x164>
40001390:	e3a03002 	mov	r3, #2
40001394:	e50b300c 	str	r3, [fp, #-12]
40001398:	ea000044 	b	400014b0 <arm_hexstr2uint+0x164>
4000139c:	e51b300c 	ldr	r3, [fp, #-12]
400013a0:	e51b2010 	ldr	r2, [fp, #-16]
400013a4:	e0823003 	add	r3, r2, r3
400013a8:	e5d33000 	ldrb	r3, [r3]
400013ac:	e353002f 	cmp	r3, #47	; 0x2f
400013b0:	9a00000f 	bls	400013f4 <arm_hexstr2uint+0xa8>
400013b4:	e51b300c 	ldr	r3, [fp, #-12]
400013b8:	e51b2010 	ldr	r2, [fp, #-16]
400013bc:	e0823003 	add	r3, r2, r3
400013c0:	e5d33000 	ldrb	r3, [r3]
400013c4:	e3530039 	cmp	r3, #57	; 0x39
400013c8:	8a000009 	bhi	400013f4 <arm_hexstr2uint+0xa8>
400013cc:	e51b3008 	ldr	r3, [fp, #-8]
400013d0:	e1a02203 	lsl	r2, r3, #4
400013d4:	e51b300c 	ldr	r3, [fp, #-12]
400013d8:	e51b1010 	ldr	r1, [fp, #-16]
400013dc:	e0813003 	add	r3, r1, r3
400013e0:	e5d33000 	ldrb	r3, [r3]
400013e4:	e0823003 	add	r3, r2, r3
400013e8:	e2433030 	sub	r3, r3, #48	; 0x30
400013ec:	e50b3008 	str	r3, [fp, #-8]
400013f0:	ea00002a 	b	400014a0 <arm_hexstr2uint+0x154>
400013f4:	e51b300c 	ldr	r3, [fp, #-12]
400013f8:	e51b2010 	ldr	r2, [fp, #-16]
400013fc:	e0823003 	add	r3, r2, r3
40001400:	e5d33000 	ldrb	r3, [r3]
40001404:	e3530040 	cmp	r3, #64	; 0x40
40001408:	9a00000f 	bls	4000144c <arm_hexstr2uint+0x100>
4000140c:	e51b300c 	ldr	r3, [fp, #-12]
40001410:	e51b2010 	ldr	r2, [fp, #-16]
40001414:	e0823003 	add	r3, r2, r3
40001418:	e5d33000 	ldrb	r3, [r3]
4000141c:	e3530046 	cmp	r3, #70	; 0x46
40001420:	8a000009 	bhi	4000144c <arm_hexstr2uint+0x100>
40001424:	e51b3008 	ldr	r3, [fp, #-8]
40001428:	e1a02203 	lsl	r2, r3, #4
4000142c:	e51b300c 	ldr	r3, [fp, #-12]
40001430:	e51b1010 	ldr	r1, [fp, #-16]
40001434:	e0813003 	add	r3, r1, r3
40001438:	e5d33000 	ldrb	r3, [r3]
4000143c:	e0823003 	add	r3, r2, r3
40001440:	e2433037 	sub	r3, r3, #55	; 0x37
40001444:	e50b3008 	str	r3, [fp, #-8]
40001448:	ea000014 	b	400014a0 <arm_hexstr2uint+0x154>
4000144c:	e51b300c 	ldr	r3, [fp, #-12]
40001450:	e51b2010 	ldr	r2, [fp, #-16]
40001454:	e0823003 	add	r3, r2, r3
40001458:	e5d33000 	ldrb	r3, [r3]
4000145c:	e3530060 	cmp	r3, #96	; 0x60
40001460:	9a00000e 	bls	400014a0 <arm_hexstr2uint+0x154>
40001464:	e51b300c 	ldr	r3, [fp, #-12]
40001468:	e51b2010 	ldr	r2, [fp, #-16]
4000146c:	e0823003 	add	r3, r2, r3
40001470:	e5d33000 	ldrb	r3, [r3]
40001474:	e3530066 	cmp	r3, #102	; 0x66
40001478:	8a000008 	bhi	400014a0 <arm_hexstr2uint+0x154>
4000147c:	e51b3008 	ldr	r3, [fp, #-8]
40001480:	e1a02203 	lsl	r2, r3, #4
40001484:	e51b300c 	ldr	r3, [fp, #-12]
40001488:	e51b1010 	ldr	r1, [fp, #-16]
4000148c:	e0813003 	add	r3, r1, r3
40001490:	e5d33000 	ldrb	r3, [r3]
40001494:	e0823003 	add	r3, r2, r3
40001498:	e2433057 	sub	r3, r3, #87	; 0x57
4000149c:	e50b3008 	str	r3, [fp, #-8]
400014a0:	e51b300c 	ldr	r3, [fp, #-12]
400014a4:	e2833001 	add	r3, r3, #1
400014a8:	e50b300c 	str	r3, [fp, #-12]
400014ac:	ea000000 	b	400014b4 <arm_hexstr2uint+0x168>
400014b0:	e1a00000 	nop			; (mov r0, r0)
400014b4:	e51b300c 	ldr	r3, [fp, #-12]
400014b8:	e51b2010 	ldr	r2, [fp, #-16]
400014bc:	e0823003 	add	r3, r2, r3
400014c0:	e5d33000 	ldrb	r3, [r3]
400014c4:	e3530000 	cmp	r3, #0
400014c8:	1affffb3 	bne	4000139c <arm_hexstr2uint+0x50>
400014cc:	e51b3008 	ldr	r3, [fp, #-8]
400014d0:	e1a00003 	mov	r0, r3
400014d4:	e28bd000 	add	sp, fp, #0
400014d8:	e8bd0800 	pop	{fp}
400014dc:	e12fff1e 	bx	lr

400014e0 <arm_uint2hexstr>:
400014e0:	e52db004 	push	{fp}		; (str fp, [sp, #-4]!)
400014e4:	e28db000 	add	fp, sp, #0
400014e8:	e24dd014 	sub	sp, sp, #20
400014ec:	e50b0010 	str	r0, [fp, #-16]
400014f0:	e50b1014 	str	r1, [fp, #-20]
400014f4:	e3a03000 	mov	r3, #0
400014f8:	e50b300c 	str	r3, [fp, #-12]
400014fc:	e3a03000 	mov	r3, #0
40001500:	e50b3008 	str	r3, [fp, #-8]
40001504:	ea00001f 	b	40001588 <arm_uint2hexstr+0xa8>
40001508:	e51b300c 	ldr	r3, [fp, #-12]
4000150c:	e3530000 	cmp	r3, #0
40001510:	1a000007 	bne	40001534 <arm_uint2hexstr+0x54>
40001514:	e51b3008 	ldr	r3, [fp, #-8]
40001518:	e2633007 	rsb	r3, r3, #7
4000151c:	e1a03103 	lsl	r3, r3, #2
40001520:	e51b2014 	ldr	r2, [fp, #-20]
40001524:	e1a03332 	lsr	r3, r2, r3
40001528:	e203300f 	and	r3, r3, #15
4000152c:	e3530000 	cmp	r3, #0
40001530:	0a000010 	beq	40001578 <arm_uint2hexstr+0x98>
40001534:	e51b300c 	ldr	r3, [fp, #-12]
40001538:	e51b2010 	ldr	r2, [fp, #-16]
4000153c:	e0822003 	add	r2, r2, r3
40001540:	e51b3008 	ldr	r3, [fp, #-8]
40001544:	e2633007 	rsb	r3, r3, #7
40001548:	e1a03103 	lsl	r3, r3, #2
4000154c:	e51b1014 	ldr	r1, [fp, #-20]
40001550:	e1a03331 	lsr	r3, r1, r3
40001554:	e203100f 	and	r1, r3, #15
40001558:	e3023018 	movw	r3, #8216	; 0x2018
4000155c:	e3443000 	movt	r3, #16384	; 0x4000
40001560:	e7d33001 	ldrb	r3, [r3, r1]
40001564:	e5c23000 	strb	r3, [r2]
40001568:	e51b300c 	ldr	r3, [fp, #-12]
4000156c:	e2833001 	add	r3, r3, #1
40001570:	e50b300c 	str	r3, [fp, #-12]
40001574:	ea000000 	b	4000157c <arm_uint2hexstr+0x9c>
40001578:	e1a00000 	nop			; (mov r0, r0)
4000157c:	e51b3008 	ldr	r3, [fp, #-8]
40001580:	e2833001 	add	r3, r3, #1
40001584:	e50b3008 	str	r3, [fp, #-8]
40001588:	e51b3008 	ldr	r3, [fp, #-8]
4000158c:	e3530007 	cmp	r3, #7
40001590:	daffffdc 	ble	40001508 <arm_uint2hexstr+0x28>
40001594:	e51b300c 	ldr	r3, [fp, #-12]
40001598:	e3530000 	cmp	r3, #0
4000159c:	1a000007 	bne	400015c0 <arm_uint2hexstr+0xe0>
400015a0:	e51b300c 	ldr	r3, [fp, #-12]
400015a4:	e51b2010 	ldr	r2, [fp, #-16]
400015a8:	e0823003 	add	r3, r2, r3
400015ac:	e3a02030 	mov	r2, #48	; 0x30
400015b0:	e5c32000 	strb	r2, [r3]
400015b4:	e51b300c 	ldr	r3, [fp, #-12]
400015b8:	e2833001 	add	r3, r3, #1
400015bc:	e50b300c 	str	r3, [fp, #-12]
400015c0:	e51b300c 	ldr	r3, [fp, #-12]
400015c4:	e51b2010 	ldr	r2, [fp, #-16]
400015c8:	e0823003 	add	r3, r2, r3
400015cc:	e3a02000 	mov	r2, #0
400015d0:	e5c32000 	strb	r2, [r3]
400015d4:	e28bd000 	add	sp, fp, #0
400015d8:	e8bd0800 	pop	{fp}
400015dc:	e12fff1e 	bx	lr

400015e0 <strcat>:
400015e0:	e52db004 	push	{fp}		; (str fp, [sp, #-4]!)
400015e4:	e28db000 	add	fp, sp, #0
400015e8:	e24dd00c 	sub	sp, sp, #12
400015ec:	e50b0008 	str	r0, [fp, #-8]
400015f0:	e50b100c 	str	r1, [fp, #-12]
400015f4:	ea000002 	b	40001604 <strcat+0x24>
400015f8:	e51b3008 	ldr	r3, [fp, #-8]
400015fc:	e2833001 	add	r3, r3, #1
40001600:	e50b3008 	str	r3, [fp, #-8]
40001604:	e51b3008 	ldr	r3, [fp, #-8]
40001608:	e5d33000 	ldrb	r3, [r3]
4000160c:	e3530000 	cmp	r3, #0
40001610:	1afffff8 	bne	400015f8 <strcat+0x18>
40001614:	ea000009 	b	40001640 <strcat+0x60>
40001618:	e51b300c 	ldr	r3, [fp, #-12]
4000161c:	e5d32000 	ldrb	r2, [r3]
40001620:	e51b3008 	ldr	r3, [fp, #-8]
40001624:	e5c32000 	strb	r2, [r3]
40001628:	e51b300c 	ldr	r3, [fp, #-12]
4000162c:	e2833001 	add	r3, r3, #1
40001630:	e50b300c 	str	r3, [fp, #-12]
40001634:	e51b3008 	ldr	r3, [fp, #-8]
40001638:	e2833001 	add	r3, r3, #1
4000163c:	e50b3008 	str	r3, [fp, #-8]
40001640:	e51b300c 	ldr	r3, [fp, #-12]
40001644:	e5d33000 	ldrb	r3, [r3]
40001648:	e3530000 	cmp	r3, #0
4000164c:	1afffff1 	bne	40001618 <strcat+0x38>
40001650:	e51b3008 	ldr	r3, [fp, #-8]
40001654:	e3a02000 	mov	r2, #0
40001658:	e5c32000 	strb	r2, [r3]
4000165c:	e51b3008 	ldr	r3, [fp, #-8]
40001660:	e1a00003 	mov	r0, r3
40001664:	e28bd000 	add	sp, fp, #0
40001668:	e8bd0800 	pop	{fp}
4000166c:	e12fff1e 	bx	lr

40001670 <arm_str2int>:
40001670:	e52db004 	push	{fp}		; (str fp, [sp, #-4]!)
40001674:	e28db000 	add	fp, sp, #0
40001678:	e24dd01c 	sub	sp, sp, #28
4000167c:	e50b0018 	str	r0, [fp, #-24]
40001680:	e3a03000 	mov	r3, #0
40001684:	e50b3008 	str	r3, [fp, #-8]
40001688:	e3a03000 	mov	r3, #0
4000168c:	e50b300c 	str	r3, [fp, #-12]
40001690:	e3a03000 	mov	r3, #0
40001694:	e50b3010 	str	r3, [fp, #-16]
40001698:	e51b300c 	ldr	r3, [fp, #-12]
4000169c:	e51b2018 	ldr	r2, [fp, #-24]
400016a0:	e0823003 	add	r3, r2, r3
400016a4:	e5d33000 	ldrb	r3, [r3]
400016a8:	e353002d 	cmp	r3, #45	; 0x2d
400016ac:	1a000016 	bne	4000170c <arm_str2int+0x9c>
400016b0:	e3a03001 	mov	r3, #1
400016b4:	e50b3010 	str	r3, [fp, #-16]
400016b8:	e51b300c 	ldr	r3, [fp, #-12]
400016bc:	e2833001 	add	r3, r3, #1
400016c0:	e50b300c 	str	r3, [fp, #-12]
400016c4:	ea000010 	b	4000170c <arm_str2int+0x9c>
400016c8:	e51b2008 	ldr	r2, [fp, #-8]
400016cc:	e1a03002 	mov	r3, r2
400016d0:	e1a03103 	lsl	r3, r3, #2
400016d4:	e0833002 	add	r3, r3, r2
400016d8:	e1a03083 	lsl	r3, r3, #1
400016dc:	e1a02003 	mov	r2, r3
400016e0:	e51b300c 	ldr	r3, [fp, #-12]
400016e4:	e51b1018 	ldr	r1, [fp, #-24]
400016e8:	e0813003 	add	r3, r1, r3
400016ec:	e5d33000 	ldrb	r3, [r3]
400016f0:	e2433030 	sub	r3, r3, #48	; 0x30
400016f4:	e0823003 	add	r3, r2, r3
400016f8:	e50b3008 	str	r3, [fp, #-8]
400016fc:	e51b300c 	ldr	r3, [fp, #-12]
40001700:	e2833001 	add	r3, r3, #1
40001704:	e50b300c 	str	r3, [fp, #-12]
40001708:	ea000000 	b	40001710 <arm_str2int+0xa0>
4000170c:	e1a00000 	nop			; (mov r0, r0)
40001710:	e51b300c 	ldr	r3, [fp, #-12]
40001714:	e51b2018 	ldr	r2, [fp, #-24]
40001718:	e0823003 	add	r3, r2, r3
4000171c:	e5d33000 	ldrb	r3, [r3]
40001720:	e3530000 	cmp	r3, #0
40001724:	1affffe7 	bne	400016c8 <arm_str2int+0x58>
40001728:	e51b3010 	ldr	r3, [fp, #-16]
4000172c:	e3530000 	cmp	r3, #0
40001730:	0a000002 	beq	40001740 <arm_str2int+0xd0>
40001734:	e51b3008 	ldr	r3, [fp, #-8]
40001738:	e2633000 	rsb	r3, r3, #0
4000173c:	ea000000 	b	40001744 <arm_str2int+0xd4>
40001740:	e51b3008 	ldr	r3, [fp, #-8]
40001744:	e1a00003 	mov	r0, r3
40001748:	e28bd000 	add	sp, fp, #0
4000174c:	e8bd0800 	pop	{fp}
40001750:	e12fff1e 	bx	lr
	...

40001760 <common_guest_entry>:
40001760:	e59fd0c8 	ldr	sp, [pc, #200]	; 40001830 <except_dabort+0x4>
40001764:	e321f0d2 	msr	CPSR_c, #210	; 0xd2
40001768:	e59fd0c4 	ldr	sp, [pc, #196]	; 40001834 <except_dabort+0x8>
4000176c:	e321f0df 	msr	CPSR_c, #223	; 0xdf
40001770:	e59fd0c0 	ldr	sp, [pc, #192]	; 40001838 <except_dabort+0xc>
40001774:	e59f00c0 	ldr	r0, [pc, #192]	; 4000183c <except_dabort+0x10>
40001778:	ee0c0f10 	mcr	15, 0, r0, cr12, cr0, {0}
4000177c:	ebfffa3b 	bl	40000070 <nrm_loop>

40001780 <__semi_call>:
40001780:	ef123456 	svc	0x00123456
40001784:	e1a0f00e 	mov	pc, lr
40001788:	e320f000 	nop	{0}
4000178c:	e320f000 	nop	{0}
40001790:	e320f000 	nop	{0}
40001794:	e320f000 	nop	{0}
40001798:	e320f000 	nop	{0}
4000179c:	e320f000 	nop	{0}

400017a0 <nonsecure_vector>:
400017a0:	00000000 	andeq	r0, r0, r0
400017a4:	ea000005 	b	400017c0 <except_unhandled>
400017a8:	ea00000d 	b	400017e4 <except_svc>
400017ac:	ea00001e 	b	4000182c <except_dabort>
400017b0:	ea00001d 	b	4000182c <except_dabort>
400017b4:	ea000001 	b	400017c0 <except_unhandled>
400017b8:	ea000012 	b	40001808 <except_irq>
400017bc:	ea00001a 	b	4000182c <except_dabort>

400017c0 <except_unhandled>:
400017c0:	e92d1fff 	push	{r0, r1, r2, r3, r4, r5, r6, r7, r8, r9, sl, fp, ip}
400017c4:	e14f0000 	mrs	r0, SPSR
400017c8:	e92d4001 	push	{r0, lr}
400017cc:	e1a0000d 	mov	r0, sp
400017d0:	ebfffa7c 	bl	400001c8 <_except_unhandled>
400017d4:	e8bd4001 	pop	{r0, lr}
400017d8:	e169f000 	msr	SPSR_fc, r0
400017dc:	e8bd1fff 	pop	{r0, r1, r2, r3, r4, r5, r6, r7, r8, r9, sl, fp, ip}
400017e0:	e1b0f00e 	movs	pc, lr

400017e4 <except_svc>:
400017e4:	e92d1fff 	push	{r0, r1, r2, r3, r4, r5, r6, r7, r8, r9, sl, fp, ip}
400017e8:	e14f0000 	mrs	r0, SPSR
400017ec:	e92d4001 	push	{r0, lr}
400017f0:	e1a0000d 	mov	r0, sp
400017f4:	ebfffa7a 	bl	400001e4 <_except_svc>
400017f8:	e8bd4001 	pop	{r0, lr}
400017fc:	e169f000 	msr	SPSR_fc, r0
40001800:	e8bd1fff 	pop	{r0, r1, r2, r3, r4, r5, r6, r7, r8, r9, sl, fp, ip}
40001804:	e1b0f00e 	movs	pc, lr

40001808 <except_irq>:
40001808:	e92d1fff 	push	{r0, r1, r2, r3, r4, r5, r6, r7, r8, r9, sl, fp, ip}
4000180c:	e14f0000 	mrs	r0, SPSR
40001810:	e92d4001 	push	{r0, lr}
40001814:	e1a0000d 	mov	r0, sp
40001818:	ebfffa78 	bl	40000200 <_except_irq>
4000181c:	e8bd4001 	pop	{r0, lr}
40001820:	e169f000 	msr	SPSR_fc, r0
40001824:	e8bd1fff 	pop	{r0, r1, r2, r3, r4, r5, r6, r7, r8, r9, sl, fp, ip}
40001828:	e25ef004 	subs	pc, lr, #4

4000182c <except_dabort>:
4000182c:	eaffffe3 	b	400017c0 <except_unhandled>
40001830:	4f400000 	svcmi	0x00400000
40001834:	4f800000 	svcmi	0x00800000
40001838:	50000000 	andpl	r0, r0, r0
4000183c:	400017a0 	andmi	r1, r0, r0, lsr #15

40001840 <serial_err_check>:
40001840:	e52db004 	push	{fp}		; (str fp, [sp, #-4]!)
40001844:	e28db000 	add	fp, sp, #0
40001848:	e24dd014 	sub	sp, sp, #20
4000184c:	e50b0010 	str	r0, [fp, #-16]
40001850:	e3a03000 	mov	r3, #0
40001854:	e34132c2 	movt	r3, #4802	; 0x12c2
40001858:	e50b300c 	str	r3, [fp, #-12]
4000185c:	e51b3010 	ldr	r3, [fp, #-16]
40001860:	e3530000 	cmp	r3, #0
40001864:	0a000002 	beq	40001874 <serial_err_check+0x34>
40001868:	e3a03008 	mov	r3, #8
4000186c:	e50b3008 	str	r3, [fp, #-8]
40001870:	ea000001 	b	4000187c <serial_err_check+0x3c>
40001874:	e3a0300f 	mov	r3, #15
40001878:	e50b3008 	str	r3, [fp, #-8]
4000187c:	e51b300c 	ldr	r3, [fp, #-12]
40001880:	e2833014 	add	r3, r3, #20
40001884:	e5932000 	ldr	r2, [r3]
40001888:	e51b3008 	ldr	r3, [fp, #-8]
4000188c:	e0023003 	and	r3, r2, r3
40001890:	e1a00003 	mov	r0, r3
40001894:	e28bd000 	add	sp, fp, #0
40001898:	e8bd0800 	pop	{fp}
4000189c:	e12fff1e 	bx	lr

400018a0 <uart_putc>:
400018a0:	e92d4800 	push	{fp, lr}
400018a4:	e28db004 	add	fp, sp, #4
400018a8:	e24dd010 	sub	sp, sp, #16
400018ac:	e1a03000 	mov	r3, r0
400018b0:	e54b300d 	strb	r3, [fp, #-13]
400018b4:	e3a03000 	mov	r3, #0
400018b8:	e34132c2 	movt	r3, #4802	; 0x12c2
400018bc:	e50b3008 	str	r3, [fp, #-8]
400018c0:	ea000004 	b	400018d8 <uart_putc+0x38>
400018c4:	e3a00001 	mov	r0, #1
400018c8:	ebffffdc 	bl	40001840 <serial_err_check>
400018cc:	e1a03000 	mov	r3, r0
400018d0:	e3530000 	cmp	r3, #0
400018d4:	1a00000f 	bne	40001918 <uart_putc+0x78>
400018d8:	e51b3008 	ldr	r3, [fp, #-8]
400018dc:	e2833018 	add	r3, r3, #24
400018e0:	e5933000 	ldr	r3, [r3]
400018e4:	e2033401 	and	r3, r3, #16777216	; 0x1000000
400018e8:	e3530000 	cmp	r3, #0
400018ec:	1afffff4 	bne	400018c4 <uart_putc+0x24>
400018f0:	e51b3008 	ldr	r3, [fp, #-8]
400018f4:	e2833020 	add	r3, r3, #32
400018f8:	e55b200d 	ldrb	r2, [fp, #-13]
400018fc:	e5c32000 	strb	r2, [r3]
40001900:	e55b300d 	ldrb	r3, [fp, #-13]
40001904:	e353000a 	cmp	r3, #10
40001908:	1a000003 	bne	4000191c <uart_putc+0x7c>
4000190c:	e3a0000d 	mov	r0, #13
40001910:	ebffffe2 	bl	400018a0 <uart_putc>
40001914:	ea000000 	b	4000191c <uart_putc+0x7c>
40001918:	e1a00000 	nop			; (mov r0, r0)
4000191c:	e24bd004 	sub	sp, fp, #4
40001920:	e8bd8800 	pop	{fp, pc}

40001924 <uart_print>:
40001924:	e92d4800 	push	{fp, lr}
40001928:	e28db004 	add	fp, sp, #4
4000192c:	e24dd008 	sub	sp, sp, #8
40001930:	e50b0008 	str	r0, [fp, #-8]
40001934:	ea000006 	b	40001954 <uart_print+0x30>
40001938:	e51b3008 	ldr	r3, [fp, #-8]
4000193c:	e5d33000 	ldrb	r3, [r3]
40001940:	e51b2008 	ldr	r2, [fp, #-8]
40001944:	e2822001 	add	r2, r2, #1
40001948:	e50b2008 	str	r2, [fp, #-8]
4000194c:	e1a00003 	mov	r0, r3
40001950:	ebffffd2 	bl	400018a0 <uart_putc>
40001954:	e51b3008 	ldr	r3, [fp, #-8]
40001958:	e5d33000 	ldrb	r3, [r3]
4000195c:	e3530000 	cmp	r3, #0
40001960:	1afffff4 	bne	40001938 <uart_print+0x14>
40001964:	e24bd004 	sub	sp, fp, #4
40001968:	e8bd8800 	pop	{fp, pc}

4000196c <uart_print_hex32>:
4000196c:	e92d4800 	push	{fp, lr}
40001970:	e28db004 	add	fp, sp, #4
40001974:	e24dd018 	sub	sp, sp, #24
40001978:	e50b0018 	str	r0, [fp, #-24]
4000197c:	e3a0300f 	mov	r3, #15
40001980:	e50b3010 	str	r3, [fp, #-16]
40001984:	e302002c 	movw	r0, #8236	; 0x202c
40001988:	e3440000 	movt	r0, #16384	; 0x4000
4000198c:	ebffffe4 	bl	40001924 <uart_print>
40001990:	e3a03007 	mov	r3, #7
40001994:	e50b300c 	str	r3, [fp, #-12]
40001998:	ea000017 	b	400019fc <uart_print_hex32+0x90>
4000199c:	e51b300c 	ldr	r3, [fp, #-12]
400019a0:	e1a03103 	lsl	r3, r3, #2
400019a4:	e51b2018 	ldr	r2, [fp, #-24]
400019a8:	e1a02332 	lsr	r2, r2, r3
400019ac:	e51b3010 	ldr	r3, [fp, #-16]
400019b0:	e0023003 	and	r3, r2, r3
400019b4:	e50b3008 	str	r3, [fp, #-8]
400019b8:	e51b3008 	ldr	r3, [fp, #-8]
400019bc:	e3530009 	cmp	r3, #9
400019c0:	8a000003 	bhi	400019d4 <uart_print_hex32+0x68>
400019c4:	e51b3008 	ldr	r3, [fp, #-8]
400019c8:	e2833030 	add	r3, r3, #48	; 0x30
400019cc:	e50b3008 	str	r3, [fp, #-8]
400019d0:	ea000002 	b	400019e0 <uart_print_hex32+0x74>
400019d4:	e51b3008 	ldr	r3, [fp, #-8]
400019d8:	e2833037 	add	r3, r3, #55	; 0x37
400019dc:	e50b3008 	str	r3, [fp, #-8]
400019e0:	e51b3008 	ldr	r3, [fp, #-8]
400019e4:	e6ef3073 	uxtb	r3, r3
400019e8:	e1a00003 	mov	r0, r3
400019ec:	ebffffab 	bl	400018a0 <uart_putc>
400019f0:	e51b300c 	ldr	r3, [fp, #-12]
400019f4:	e2433001 	sub	r3, r3, #1
400019f8:	e50b300c 	str	r3, [fp, #-12]
400019fc:	e51b300c 	ldr	r3, [fp, #-12]
40001a00:	e3530000 	cmp	r3, #0
40001a04:	aaffffe4 	bge	4000199c <uart_print_hex32+0x30>
40001a08:	e24bd004 	sub	sp, fp, #4
40001a0c:	e8bd8800 	pop	{fp, pc}

40001a10 <uart_print_hex64>:
40001a10:	e92d4800 	push	{fp, lr}
40001a14:	e28db004 	add	fp, sp, #4
40001a18:	e24dd008 	sub	sp, sp, #8
40001a1c:	e14b00fc 	strd	r0, [fp, #-12]
40001a20:	e51b1008 	ldr	r1, [fp, #-8]
40001a24:	e1a02001 	mov	r2, r1
40001a28:	e3a03000 	mov	r3, #0
40001a2c:	e1a03002 	mov	r3, r2
40001a30:	e1a00003 	mov	r0, r3
40001a34:	ebffffcc 	bl	4000196c <uart_print_hex32>
40001a38:	e51b300c 	ldr	r3, [fp, #-12]
40001a3c:	e1a00003 	mov	r0, r3
40001a40:	ebffffc9 	bl	4000196c <uart_print_hex32>
40001a44:	e24bd004 	sub	sp, fp, #4
40001a48:	e8bd8800 	pop	{fp, pc}

40001a4c <uart_init>:
40001a4c:	e52db004 	push	{fp}		; (str fp, [sp, #-4]!)
40001a50:	e28db000 	add	fp, sp, #0
40001a54:	e28bd000 	add	sp, fp, #0
40001a58:	e8bd0800 	pop	{fp}
40001a5c:	e12fff1e 	bx	lr

40001a60 <vmm_readl>:
40001a60:	e52db004 	push	{fp}		; (str fp, [sp, #-4]!)
40001a64:	e28db000 	add	fp, sp, #0
40001a68:	e24dd014 	sub	sp, sp, #20
40001a6c:	e50b0010 	str	r0, [fp, #-16]
40001a70:	e51b3010 	ldr	r3, [fp, #-16]
40001a74:	e5933000 	ldr	r3, [r3]
40001a78:	e50b3008 	str	r3, [fp, #-8]
40001a7c:	f57ff04f 	dsb	sy
40001a80:	e51b3008 	ldr	r3, [fp, #-8]
40001a84:	e1a00003 	mov	r0, r3
40001a88:	e28bd000 	add	sp, fp, #0
40001a8c:	e8bd0800 	pop	{fp}
40001a90:	e12fff1e 	bx	lr

40001a94 <vmm_writel>:
40001a94:	e52db004 	push	{fp}		; (str fp, [sp, #-4]!)
40001a98:	e28db000 	add	fp, sp, #0
40001a9c:	e24dd00c 	sub	sp, sp, #12
40001aa0:	e50b0008 	str	r0, [fp, #-8]
40001aa4:	e50b100c 	str	r1, [fp, #-12]
40001aa8:	f57ff04f 	dsb	sy
40001aac:	e51b300c 	ldr	r3, [fp, #-12]
40001ab0:	e51b2008 	ldr	r2, [fp, #-8]
40001ab4:	e5832000 	str	r2, [r3]
40001ab8:	e28bd000 	add	sp, fp, #0
40001abc:	e8bd0800 	pop	{fp}
40001ac0:	e12fff1e 	bx	lr

40001ac4 <pwm_timer_enable_int>:
40001ac4:	e92d4800 	push	{fp, lr}
40001ac8:	e28db004 	add	fp, sp, #4
40001acc:	e24dd008 	sub	sp, sp, #8
40001ad0:	e3a00008 	mov	r0, #8
40001ad4:	e3430fd1 	movt	r0, #16337	; 0x3fd1
40001ad8:	ebffffe0 	bl	40001a60 <vmm_readl>
40001adc:	e50b0008 	str	r0, [fp, #-8]
40001ae0:	e3a00044 	mov	r0, #68	; 0x44
40001ae4:	e3430fd1 	movt	r0, #16337	; 0x3fd1
40001ae8:	ebffffdc 	bl	40001a60 <vmm_readl>
40001aec:	e50b000c 	str	r0, [fp, #-12]
40001af0:	e51b3008 	ldr	r3, [fp, #-8]
40001af4:	e3833b02 	orr	r3, r3, #2048	; 0x800
40001af8:	e50b3008 	str	r3, [fp, #-8]
40001afc:	e51b3008 	ldr	r3, [fp, #-8]
40001b00:	e3833c01 	orr	r3, r3, #256	; 0x100
40001b04:	e50b3008 	str	r3, [fp, #-8]
40001b08:	e51b0008 	ldr	r0, [fp, #-8]
40001b0c:	e3a01008 	mov	r1, #8
40001b10:	e3431fd1 	movt	r1, #16337	; 0x3fd1
40001b14:	ebffffde 	bl	40001a94 <vmm_writel>
40001b18:	e51b300c 	ldr	r3, [fp, #-12]
40001b1c:	e3833002 	orr	r3, r3, #2
40001b20:	e50b300c 	str	r3, [fp, #-12]
40001b24:	e51b000c 	ldr	r0, [fp, #-12]
40001b28:	e3a01044 	mov	r1, #68	; 0x44
40001b2c:	e3431fd1 	movt	r1, #16337	; 0x3fd1
40001b30:	ebffffd7 	bl	40001a94 <vmm_writel>
40001b34:	e3a03000 	mov	r3, #0
40001b38:	e1a00003 	mov	r0, r3
40001b3c:	e24bd004 	sub	sp, fp, #4
40001b40:	e8bd8800 	pop	{fp, pc}

40001b44 <pwm_timer_disable_int>:
40001b44:	e92d4800 	push	{fp, lr}
40001b48:	e28db004 	add	fp, sp, #4
40001b4c:	e24dd008 	sub	sp, sp, #8
40001b50:	e3a00008 	mov	r0, #8
40001b54:	e3430fd1 	movt	r0, #16337	; 0x3fd1
40001b58:	ebffffc0 	bl	40001a60 <vmm_readl>
40001b5c:	e50b0008 	str	r0, [fp, #-8]
40001b60:	e51b3008 	ldr	r3, [fp, #-8]
40001b64:	e3c33c01 	bic	r3, r3, #256	; 0x100
40001b68:	e50b3008 	str	r3, [fp, #-8]
40001b6c:	e51b0008 	ldr	r0, [fp, #-8]
40001b70:	e3a01008 	mov	r1, #8
40001b74:	e3431fd1 	movt	r1, #16337	; 0x3fd1
40001b78:	ebffffc5 	bl	40001a94 <vmm_writel>
40001b7c:	e3a00044 	mov	r0, #68	; 0x44
40001b80:	e3430fd1 	movt	r0, #16337	; 0x3fd1
40001b84:	ebffffb5 	bl	40001a60 <vmm_readl>
40001b88:	e50b000c 	str	r0, [fp, #-12]
40001b8c:	e51b300c 	ldr	r3, [fp, #-12]
40001b90:	e3c33002 	bic	r3, r3, #2
40001b94:	e50b300c 	str	r3, [fp, #-12]
40001b98:	e51b000c 	ldr	r0, [fp, #-12]
40001b9c:	e3a01044 	mov	r1, #68	; 0x44
40001ba0:	e3431fd1 	movt	r1, #16337	; 0x3fd1
40001ba4:	ebffffba 	bl	40001a94 <vmm_writel>
40001ba8:	e3a03000 	mov	r3, #0
40001bac:	e1a00003 	mov	r0, r3
40001bb0:	e24bd004 	sub	sp, fp, #4
40001bb4:	e8bd8800 	pop	{fp, pc}

40001bb8 <pwm_timer_set_interval>:
40001bb8:	e52db004 	push	{fp}		; (str fp, [sp, #-4]!)
40001bbc:	e28db000 	add	fp, sp, #0
40001bc0:	e24dd00c 	sub	sp, sp, #12
40001bc4:	e50b0008 	str	r0, [fp, #-8]
40001bc8:	e3023218 	movw	r3, #8728	; 0x2218
40001bcc:	e3443000 	movt	r3, #16384	; 0x4000
40001bd0:	e3042074 	movw	r2, #16500	; 0x4074
40001bd4:	e5832000 	str	r2, [r3]
40001bd8:	e3a03000 	mov	r3, #0
40001bdc:	e1a00003 	mov	r0, r3
40001be0:	e28bd000 	add	sp, fp, #0
40001be4:	e8bd0800 	pop	{fp}
40001be8:	e12fff1e 	bx	lr

40001bec <_pwm_timer_irq_handler>:
40001bec:	e92d4800 	push	{fp, lr}
40001bf0:	e28db004 	add	fp, sp, #4
40001bf4:	e24dd010 	sub	sp, sp, #16
40001bf8:	e50b0008 	str	r0, [fp, #-8]
40001bfc:	e50b100c 	str	r1, [fp, #-12]
40001c00:	e50b2010 	str	r2, [fp, #-16]
40001c04:	e3023214 	movw	r3, #8724	; 0x2214
40001c08:	e3443000 	movt	r3, #16384	; 0x4000
40001c0c:	e5933000 	ldr	r3, [r3]
40001c10:	e51b000c 	ldr	r0, [fp, #-12]
40001c14:	e12fff33 	blx	r3
40001c18:	e24bd004 	sub	sp, fp, #4
40001c1c:	e8bd8800 	pop	{fp, pc}

40001c20 <pwm_timer_enable_irq>:
40001c20:	e92d4800 	push	{fp, lr}
40001c24:	e28db004 	add	fp, sp, #4
40001c28:	e24dd008 	sub	sp, sp, #8
40001c2c:	e3e03001 	mvn	r3, #1
40001c30:	e50b3008 	str	r3, [fp, #-8]
40001c34:	e3a00045 	mov	r0, #69	; 0x45
40001c38:	ebfffaa9 	bl	400006e4 <gic_enable_irq>
40001c3c:	e3a00045 	mov	r0, #69	; 0x45
40001c40:	e3011d90 	movw	r1, #7568	; 0x1d90
40001c44:	e3441000 	movt	r1, #16384	; 0x4000
40001c48:	e3a02000 	mov	r2, #0
40001c4c:	ebfffad0 	bl	40000794 <gic_set_irq_handler>
40001c50:	e3a03000 	mov	r3, #0
40001c54:	e50b3008 	str	r3, [fp, #-8]
40001c58:	e51b3008 	ldr	r3, [fp, #-8]
40001c5c:	e1a00003 	mov	r0, r3
40001c60:	e24bd004 	sub	sp, fp, #4
40001c64:	e8bd8800 	pop	{fp, pc}

40001c68 <pwm_timer_set_callback>:
40001c68:	e52db004 	push	{fp}		; (str fp, [sp, #-4]!)
40001c6c:	e28db000 	add	fp, sp, #0
40001c70:	e24dd00c 	sub	sp, sp, #12
40001c74:	e50b0008 	str	r0, [fp, #-8]
40001c78:	e3023214 	movw	r3, #8724	; 0x2214
40001c7c:	e3443000 	movt	r3, #16384	; 0x4000
40001c80:	e51b2008 	ldr	r2, [fp, #-8]
40001c84:	e5832000 	str	r2, [r3]
40001c88:	e3a03000 	mov	r3, #0
40001c8c:	e1a00003 	mov	r0, r3
40001c90:	e28bd000 	add	sp, fp, #0
40001c94:	e8bd0800 	pop	{fp}
40001c98:	e12fff1e 	bx	lr

40001c9c <pwm_timer_init>:
40001c9c:	e92d4800 	push	{fp, lr}
40001ca0:	e28db004 	add	fp, sp, #4
40001ca4:	e24dd010 	sub	sp, sp, #16
40001ca8:	e3a00000 	mov	r0, #0
40001cac:	ebffffc1 	bl	40001bb8 <pwm_timer_set_interval>
40001cb0:	ebffffda 	bl	40001c20 <pwm_timer_enable_irq>
40001cb4:	e3a00000 	mov	r0, #0
40001cb8:	e3430fd1 	movt	r0, #16337	; 0x3fd1
40001cbc:	ebffff67 	bl	40001a60 <vmm_readl>
40001cc0:	e50b0008 	str	r0, [fp, #-8]
40001cc4:	e3a00004 	mov	r0, #4
40001cc8:	e3430fd1 	movt	r0, #16337	; 0x3fd1
40001ccc:	ebffff63 	bl	40001a60 <vmm_readl>
40001cd0:	e50b000c 	str	r0, [fp, #-12]
40001cd4:	e3a00008 	mov	r0, #8
40001cd8:	e3430fd1 	movt	r0, #16337	; 0x3fd1
40001cdc:	ebffff5f 	bl	40001a60 <vmm_readl>
40001ce0:	e50b0010 	str	r0, [fp, #-16]
40001ce4:	e51b3008 	ldr	r3, [fp, #-8]
40001ce8:	e3c330ff 	bic	r3, r3, #255	; 0xff
40001cec:	e50b3008 	str	r3, [fp, #-8]
40001cf0:	e51b3008 	ldr	r3, [fp, #-8]
40001cf4:	e38330f9 	orr	r3, r3, #249	; 0xf9
40001cf8:	e50b3008 	str	r3, [fp, #-8]
40001cfc:	e51b0008 	ldr	r0, [fp, #-8]
40001d00:	e3a01000 	mov	r1, #0
40001d04:	e3431fd1 	movt	r1, #16337	; 0x3fd1
40001d08:	ebffff61 	bl	40001a94 <vmm_writel>
40001d0c:	e51b300c 	ldr	r3, [fp, #-12]
40001d10:	e3c330f0 	bic	r3, r3, #240	; 0xf0
40001d14:	e50b300c 	str	r3, [fp, #-12]
40001d18:	e51b300c 	ldr	r3, [fp, #-12]
40001d1c:	e3833030 	orr	r3, r3, #48	; 0x30
40001d20:	e50b300c 	str	r3, [fp, #-12]
40001d24:	e51b000c 	ldr	r0, [fp, #-12]
40001d28:	e3a01004 	mov	r1, #4
40001d2c:	e3431fd1 	movt	r1, #16337	; 0x3fd1
40001d30:	ebffff57 	bl	40001a94 <vmm_writel>
40001d34:	e3023218 	movw	r3, #8728	; 0x2218
40001d38:	e3443000 	movt	r3, #16384	; 0x4000
40001d3c:	e5933000 	ldr	r3, [r3]
40001d40:	e1a00003 	mov	r0, r3
40001d44:	e3a01018 	mov	r1, #24
40001d48:	e3431fd1 	movt	r1, #16337	; 0x3fd1
40001d4c:	ebffff50 	bl	40001a94 <vmm_writel>
40001d50:	e51b3010 	ldr	r3, [fp, #-16]
40001d54:	e3833c02 	orr	r3, r3, #512	; 0x200
40001d58:	e50b3010 	str	r3, [fp, #-16]
40001d5c:	e51b0010 	ldr	r0, [fp, #-16]
40001d60:	e3a01008 	mov	r1, #8
40001d64:	e3431fd1 	movt	r1, #16337	; 0x3fd1
40001d68:	ebffff49 	bl	40001a94 <vmm_writel>
40001d6c:	e51b3010 	ldr	r3, [fp, #-16]
40001d70:	e3c33c02 	bic	r3, r3, #512	; 0x200
40001d74:	e50b3010 	str	r3, [fp, #-16]
40001d78:	e51b0010 	ldr	r0, [fp, #-16]
40001d7c:	e3a01008 	mov	r1, #8
40001d80:	e3431fd1 	movt	r1, #16337	; 0x3fd1
40001d84:	ebffff42 	bl	40001a94 <vmm_writel>
40001d88:	e24bd004 	sub	sp, fp, #4
40001d8c:	e8bd8800 	pop	{fp, pc}

40001d90 <interrupt_pwmtimer>:
40001d90:	e92d4800 	push	{fp, lr}
40001d94:	e28db004 	add	fp, sp, #4
40001d98:	e24dd010 	sub	sp, sp, #16
40001d9c:	e50b0008 	str	r0, [fp, #-8]
40001da0:	e50b100c 	str	r1, [fp, #-12]
40001da4:	e50b2010 	str	r2, [fp, #-16]
40001da8:	ebffff65 	bl	40001b44 <pwm_timer_disable_int>
40001dac:	e3020030 	movw	r0, #8240	; 0x2030
40001db0:	e3440000 	movt	r0, #16384	; 0x4000
40001db4:	ebfffeda 	bl	40001924 <uart_print>
40001db8:	e3020030 	movw	r0, #8240	; 0x2030
40001dbc:	e3440000 	movt	r0, #16384	; 0x4000
40001dc0:	ebfffed7 	bl	40001924 <uart_print>
40001dc4:	ebffff3e 	bl	40001ac4 <pwm_timer_enable_int>
40001dc8:	e24bd004 	sub	sp, fp, #4
40001dcc:	e8bd8800 	pop	{fp, pc}

40001dd0 <hvmm_tests_pwm_timer>:
40001dd0:	e92d4800 	push	{fp, lr}
40001dd4:	e28db004 	add	fp, sp, #4
40001dd8:	ebffffaf 	bl	40001c9c <pwm_timer_init>
40001ddc:	ebffff38 	bl	40001ac4 <pwm_timer_enable_int>
40001de0:	e3a03000 	mov	r3, #0
40001de4:	e1a00003 	mov	r0, r3
40001de8:	e8bd8800 	pop	{fp, pc}

Disassembly of section .rodata:

40001dec <.LC0>:
40001dec:	6575675b 	ldrbvs	r6, [r5, #-1883]!	; 0x75b
40001df0:	5d307473 	cfldrspl	mvf7, [r0, #-460]!	; 0xfffffe34
40001df4:	00000020 	andeq	r0, r0, r0, lsr #32

40001df8 <.LC1>:
40001df8:	203d3d3d 	eorscs	r3, sp, sp, lsr sp
40001dfc:	72617453 	rsbvc	r7, r1, #1392508928	; 0x53000000
40001e00:	676e6974 			; <UNDEFINED> instruction: 0x676e6974
40001e04:	616c7020 	cmnvs	ip, r0, lsr #32
40001e08:	726f6674 	rsbvc	r6, pc, #121634816	; 0x7400000
40001e0c:	616d206d 	cmnvs	sp, sp, rrx
40001e10:	6e206e69 	cdpvs	14, 2, cr6, cr0, cr9, {3}
40001e14:	0000000d 	andeq	r0, r0, sp

40001e18 <.LC0>:
40001e18:	6575675b 	ldrbvs	r6, [r5, #-1883]!	; 0x75b
40001e1c:	5d307473 	cfldrspl	mvf7, [r0, #-460]!	; 0xfffffe34
40001e20:	00000020 	andeq	r0, r0, r0, lsr #32

40001e24 <.LC1>:
40001e24:	203d3d3d 	eorscs	r3, sp, sp, lsr sp
40001e28:	72617453 	rsbvc	r7, r1, #1392508928	; 0x53000000
40001e2c:	676e6974 			; <UNDEFINED> instruction: 0x676e6974
40001e30:	6d6f6320 	stclvs	3, cr6, [pc, #-128]!	; 40001db8 <interrupt_pwmtimer+0x28>
40001e34:	206d6f6d 	rsbcs	r6, sp, sp, ror #30
40001e38:	72617473 	rsbvc	r7, r1, #1929379840	; 0x73000000
40001e3c:	70752074 	rsbsvc	r2, r5, r4, ror r0
40001e40:	00000d0a 	andeq	r0, r0, sl, lsl #26

40001e44 <.LC2>:
40001e44:	72657469 	rsbvc	r7, r5, #1761607680	; 0x69000000
40001e48:	6f697461 	svcvs	0x00697461
40001e4c:	0000206e 	andeq	r2, r0, lr, rrx

40001e50 <.LC3>:
40001e50:	00000d0a 	andeq	r0, r0, sl, lsl #26

40001e54 <.LC4>:
40001e54:	63767368 	cmnvs	r6, #-1610612735	; 0xa0000001
40001e58:	6e69705f 	mcrvs	0, 3, r7, cr9, cr15, {2}
40001e5c:	0a292867 	beq	40a4c000 <_end+0xa49de4>
40001e60:	0000000d 	andeq	r0, r0, sp

40001e64 <.LC5>:
40001e64:	75746572 	ldrbvc	r6, [r4, #-1394]!	; 0x572
40001e68:	64656e72 	strbtvs	r6, [r5], #-3698	; 0xe72
40001e6c:	6f726620 	svcvs	0x00726620
40001e70:	7368206d 	cmnvc	r8, #109	; 0x6d
40001e74:	705f6376 	subsvc	r6, pc, r6, ror r3	; <UNPREDICTABLE>
40001e78:	28676e69 	stmdacs	r7!, {r0, r3, r5, r6, r9, sl, fp, sp, lr}^
40001e7c:	000d0a29 	andeq	r0, sp, r9, lsr #20

40001e80 <.LC6>:
40001e80:	63767368 	cmnvs	r6, #-1610612735	; 0xa0000001
40001e84:	6569795f 	strbvs	r7, [r9, #-2399]!	; 0x95f
40001e88:	2928646c 	stmdbcs	r8!, {r2, r3, r5, r6, sl, sp, lr}
40001e8c:	00000d0a 	andeq	r0, r0, sl, lsl #26

40001e90 <.LC7>:
40001e90:	75746572 	ldrbvc	r6, [r4, #-1394]!	; 0x572
40001e94:	64656e72 	strbtvs	r6, [r5], #-3698	; 0xe72
40001e98:	6f726620 	svcvs	0x00726620
40001e9c:	7368206d 	cmnvc	r8, #109	; 0x6d
40001ea0:	795f6376 	ldmdbvc	pc, {r1, r2, r4, r5, r6, r8, r9, sp, lr}^	; <UNPREDICTABLE>
40001ea4:	646c6569 	strbtvs	r6, [ip], #-1385	; 0x569
40001ea8:	0d0a2928 	stceq	9, cr2, [sl, #-160]	; 0xffffff60
40001eac:	00000000 	andeq	r0, r0, r0

40001eb0 <.LC8>:
40001eb0:	6d6d6f63 	stclvs	15, cr6, [sp, #-396]!	; 0xfffffe74
40001eb4:	6e206e6f 	cdpvs	14, 2, cr6, cr0, cr15, {3}
40001eb8:	6c5f6d72 	mrrcvs	13, 7, r6, pc, cr2	; <UNPREDICTABLE>
40001ebc:	20706f6f 	rsbscs	r6, r0, pc, ror #30
40001ec0:	656e6f64 	strbvs	r6, [lr, #-3940]!	; 0xf64
40001ec4:	00000d0a 	andeq	r0, r0, sl, lsl #26

40001ec8 <.LC9>:
40001ec8:	2d4b5b0a 	vstrcs	d21, [fp, #-40]	; 0xffffffd8
40001ecc:	45505948 	ldrbmi	r5, [r0, #-2376]	; 0x948
40001ed0:	53495652 	movtpl	r5, #38482	; 0x9652
40001ed4:	545d524f 	ldrbpl	r5, [sp], #-591	; 0x24f
40001ed8:	23545345 	cmpcs	r4, #335544321	; 0x14000001
40001edc:	54534e49 	ldrbpl	r4, [r3], #-3657	; 0xe49
40001ee0:	414c4c41 	cmpmi	ip, r1, asr #24
40001ee4:	4e4f4954 	mcrmi	9, 2, r4, cr15, cr4, {2}
40001ee8:	474d4223 	strbmi	r4, [sp, -r3, lsr #4]
40001eec:	54534555 	ldrbpl	r4, [r3], #-1365	; 0x555
40001ef0:	4f4f422d 	svcmi	0x004f422d
40001ef4:	41502354 	cmpmi	r0, r4, asr r3
40001ef8:	0d0a5353 	stceq	3, cr5, [sl, #-332]	; 0xfffffeb4
40001efc:	00000000 	andeq	r0, r0, r0

40001f00 <.LC0>:
40001f00:	00000d0a 	andeq	r0, r0, sl, lsl #26

40001f04 <.LC1>:
40001f04:	7264696d 	rsbvc	r6, r4, #1785856	; 0x1b4000
40001f08:	0000003a 	andeq	r0, r0, sl, lsr r0

40001f0c <.LC2>:
40001f0c:	20636967 	rsbcs	r6, r3, r7, ror #18
40001f10:	65736162 	ldrbvs	r6, [r3, #-354]!	; 0x162
40001f14:	72646461 	rsbvc	r6, r4, #1627389952	; 0x61000000
40001f18:	0000003a 	andeq	r0, r0, sl, lsr r0

40001f1c <.LC3>:
40001f1c:	675f6162 	ldrbvs	r6, [pc, -r2, ror #2]
40001f20:	3a646369 	bcc	4191accc <_end+0x1918ab0>
40001f24:	00000000 	andeq	r0, r0, r0

40001f28 <.LC4>:
40001f28:	44434947 	strbmi	r4, [r3], #-2375	; 0x947
40001f2c:	5059545f 	subspl	r5, r9, pc, asr r4
40001f30:	003a5245 	eorseq	r5, sl, r5, asr #4

40001f34 <.LC5>:
40001f34:	675f6162 	ldrbvs	r6, [pc, -r2, ror #2]
40001f38:	3a636369 	bcc	418dace4 <_end+0x18d8ac8>
40001f3c:	00000000 	andeq	r0, r0, r0

40001f40 <.LC6>:
40001f40:	43434947 	movtmi	r4, #14663	; 0x3947
40001f44:	4c54435f 	mrrcmi	3, 5, r4, r4, cr15	; <UNPREDICTABLE>
40001f48:	00003a52 	andeq	r3, r0, r2, asr sl

40001f4c <.LC7>:
40001f4c:	43494720 	movtmi	r4, #38688	; 0x9720
40001f50:	4d505f43 	ldclmi	15, cr5, [r0, #-268]	; 0xfffffef4
40001f54:	00003a52 	andeq	r3, r0, r2, asr sl

40001f58 <.LC8>:
40001f58:	43494720 	movtmi	r4, #38688	; 0x9720
40001f5c:	50425f43 	subpl	r5, r2, r3, asr #30
40001f60:	00003a52 	andeq	r3, r0, r2, asr sl

40001f64 <.LC9>:
40001f64:	43494720 	movtmi	r4, #38688	; 0x9720
40001f68:	50525f43 	subspl	r5, r2, r3, asr #30
40001f6c:	00003a52 	andeq	r3, r0, r2, asr sl

40001f70 <.LC10>:
40001f70:	43434947 	movtmi	r4, #14663	; 0x3947
40001f74:	5050485f 	subspl	r4, r0, pc, asr r8
40001f78:	003a5249 	eorseq	r5, sl, r9, asr #4

40001f7c <.LC11>:
40001f7c:	43434947 	movtmi	r4, #14663	; 0x3947
40001f80:	4449495f 	strbmi	r4, [r9], #-2399	; 0x95f
40001f84:	00003a52 	andeq	r3, r0, r2, asr sl

40001f88 <.LC12>:
40001f88:	76434947 	strbvc	r4, [r3], -r7, asr #18
40001f8c:	6e552032 	mrcvs	0, 2, r2, cr5, cr2, {1}
40001f90:	70707573 	rsbsvc	r7, r0, r3, ror r5
40001f94:	6574726f 	ldrbvs	r7, [r4, #-623]!	; 0x26f
40001f98:	000d0a64 	andeq	r0, sp, r4, ror #20

40001f9c <.LC13>:
40001f9c:	7264696d 	rsbvc	r6, r4, #1785856	; 0x1b4000
40001fa0:	6e70702e 	cdpvs	0, 7, cr7, cr0, cr14, {1}
40001fa4:	0000003a 	andeq	r0, r0, sl, lsr r0

40001fa8 <.LC0>:
40001fa8:	76656476 			; <UNDEFINED> instruction: 0x76656476
40001fac:	6d61735f 	stclvs	3, cr7, [r1, #-380]!	; 0xfffffe84
40001fb0:	3a656c70 	bcc	4195d178 <_end+0x195af5c>
40001fb4:	61745320 	cmnvs	r4, r0, lsr #6
40001fb8:	6e697472 	mcrvs	4, 3, r7, cr9, cr2, {3}
40001fbc:	65742067 	ldrbvs	r2, [r4, #-103]!	; 0x67
40001fc0:	2e2e7473 	mcrcs	4, 1, r7, cr14, cr3, {3}
40001fc4:	62202c2e 	eorvs	r2, r0, #11776	; 0x2e00
40001fc8:	3a657361 	bcc	4195ed54 <_end+0x195cb38>
40001fcc:	00000000 	andeq	r0, r0, r0

40001fd0 <.LC1>:
40001fd0:	00000d0a 	andeq	r0, r0, sl, lsl #26

40001fd4 <.LC2>:
40001fd4:	00283176 	eoreq	r3, r8, r6, ror r1

40001fd8 <.LC3>:
40001fd8:	32762b29 	rsbscc	r2, r6, #41984	; 0xa400
40001fdc:	00000028 	andeq	r0, r0, r8, lsr #32

40001fe0 <.LC4>:
40001fe0:	000d0a29 	andeq	r0, sp, r9, lsr #20

40001fe4 <.LC5>:
40001fe4:	20202020 	eorcs	r2, r0, r0, lsr #32
40001fe8:	2872203d 	ldmdacs	r2!, {r0, r2, r3, r4, r5, sp}^
40001fec:	00000000 	andeq	r0, r0, r0

40001ff0 <.LC6>:
40001ff0:	202d2029 	eorcs	r2, sp, r9, lsr #32
40001ff4:	00004b4f 	andeq	r4, r0, pc, asr #22

40001ff8 <.LC7>:
40001ff8:	202d2029 	eorcs	r2, sp, r9, lsr #32
40001ffc:	4c494146 	stfmie	f4, [r9], {70}	; 0x46
40002000:	00004445 	andeq	r4, r0, r5, asr #8

40002004 <.LC8>:
40002004:	76656476 			; <UNDEFINED> instruction: 0x76656476
40002008:	6d61735f 	stclvs	3, cr7, [r1, #-380]!	; 0xfffffe84
4000200c:	3a656c70 	bcc	4195d1d4 <_end+0x195afb8>
40002010:	646e4520 	strbtvs	r4, [lr], #-1312	; 0x520
40002014:	00000d0a 	andeq	r0, r0, sl, lsl #26

40002018 <hexchars.1096>:
40002018:	33323130 	teqcc	r2, #12
4000201c:	37363534 			; <UNDEFINED> instruction: 0x37363534
40002020:	42413938 	submi	r3, r1, #917504	; 0xe0000
40002024:	46454443 	strbmi	r4, [r5], -r3, asr #8
40002028:	00000000 	andeq	r0, r0, r0

4000202c <.LC0>:
4000202c:	00007830 	andeq	r7, r0, r0, lsr r8

40002030 <.LC0>:
40002030:	3d3d3d3d 	ldccc	13, cr3, [sp, #-244]!	; 0xffffff0c
40002034:	3d3d3d3d 	ldccc	13, cr3, [sp, #-244]!	; 0xffffff0c
40002038:	3d3d3d3d 	ldccc	13, cr3, [sp, #-244]!	; 0xffffff0c
4000203c:	3d3d3d3d 	ldccc	13, cr3, [sp, #-244]!	; 0xffffff0c
40002040:	3d3d3d3d 	ldccc	13, cr3, [sp, #-244]!	; 0xffffff0c
40002044:	3d3d3d3d 	ldccc	13, cr3, [sp, #-244]!	; 0xffffff0c
40002048:	3d3d3d3d 	ldccc	13, cr3, [sp, #-244]!	; 0xffffff0c
4000204c:	3d3d3d3d 	ldccc	13, cr3, [sp, #-244]!	; 0xffffff0c
40002050:	3d3d3d3d 	ldccc	13, cr3, [sp, #-244]!	; 0xffffff0c
40002054:	0a3d3d3d 	beq	40f51550 <_end+0xf4f334>
40002058:	0000000d 	andeq	r0, r0, sp

Disassembly of section .data:

4000205c <base>:
4000205c:	3fffe000 	svccc	0x00ffe000

Disassembly of section .bss:

40002060 <_gic>:
	...

40002210 <_dummy_byte>:
40002210:	00000000 	andeq	r0, r0, r0

40002214 <_callback>:
40002214:	00000000 	andeq	r0, r0, r0

40002218 <tcntb1>:
40002218:	00000000 	andeq	r0, r0, r0

Disassembly of section .ARM.attributes:

00000000 <.ARM.attributes>:
   0:	00003d41 	andeq	r3, r0, r1, asr #26
   4:	61656100 	cmnvs	r5, r0, lsl #2
   8:	01006962 	tsteq	r0, r2, ror #18
   c:	00000033 	andeq	r0, r0, r3, lsr r0
  10:	726f4305 	rsbvc	r4, pc, #335544320	; 0x14000000
  14:	2d786574 	cfldr64cs	mvdx6, [r8, #-464]!	; 0xfffffe30
  18:	00353141 	eorseq	r3, r5, r1, asr #2
  1c:	41070a06 	tstmi	r7, r6, lsl #20
  20:	02090108 	andeq	r0, r9, #2
  24:	0412040a 	ldreq	r0, [r2], #-1034	; 0x40a
  28:	01150114 	tsteq	r5, r4, lsl r1
  2c:	01180317 	tsteq	r8, r7, lsl r3
  30:	031b021a 	tsteq	fp, #-1610612735	; 0xa0000001
  34:	0122011c 	teqeq	r2, ip, lsl r1
  38:	022c012a 	eoreq	r0, ip, #-2147483638	; 0x8000000a
  3c:	Address 0x000000000000003c is out of bounds.


Disassembly of section .comment:

00000000 <.comment>:
   0:	3a434347 	bcc	10d0d24 <GUEST_OFFSET-0x3ef2f2dc>
   4:	62552820 	subsvs	r2, r5, #2097152	; 0x200000
   8:	75746e75 	ldrbvc	r6, [r4, #-3701]!	; 0xe75
   c:	6e694c2f 	cdpvs	12, 6, cr4, cr9, cr15, {1}
  10:	206f7261 	rsbcs	r7, pc, r1, ror #4
  14:	2e362e34 	mrccs	14, 1, r2, cr6, cr4, {1}
  18:	75312d33 	ldrvc	r2, [r1, #-3379]!	; 0xd33
  1c:	746e7562 	strbtvc	r7, [lr], #-1378	; 0x562
  20:	20293575 	eorcs	r3, r9, r5, ror r5
  24:	2e362e34 	mrccs	14, 1, r2, cr6, cr4, {1}
  28:	Address 0x0000000000000028 is out of bounds.


Disassembly of section .debug_line:

00000000 <.debug_line>:
   0:	00000032 	andeq	r0, r0, r2, lsr r0
   4:	001d0002 	andseq	r0, sp, r2
   8:	01020000 	mrseq	r0, (UNDEF: 2)
   c:	000d0efb 	strdeq	r0, [sp], -fp
  10:	01010101 	tsteq	r1, r1, lsl #2
  14:	01000000 	mrseq	r0, (UNDEF: 0)
  18:	00010000 	andeq	r0, r1, r0
  1c:	746f6f62 	strbtvc	r6, [pc], #-3938	; 24 <GUEST_OFFSET-0x3fffffdc>
  20:	0000532e 	andeq	r5, r0, lr, lsr #6
  24:	00000000 	andeq	r0, r0, r0
  28:	00000205 	andeq	r0, r0, r5, lsl #4
  2c:	0f034000 	svceq	0x00034000
  30:	00020201 	andeq	r0, r2, r1, lsl #4
  34:	00390101 	eorseq	r0, r9, r1, lsl #2
  38:	00020000 	andeq	r0, r2, r0
  3c:	0000001d 	andeq	r0, r0, sp, lsl r0
  40:	0efb0102 	cdpeq	1, 15, cr0, cr11, cr2, {0}
  44:	0101000d 	tsteq	r1, sp
  48:	00000101 	andeq	r0, r0, r1, lsl #2
  4c:	00000100 	andeq	r0, r0, r0, lsl #2
  50:	616d0001 	cmnvs	sp, r1
  54:	632e6e69 	teqvs	lr, #1680	; 0x690
  58:	00000000 	andeq	r0, r0, r0
  5c:	02050000 	andeq	r0, r5, #0
  60:	40000004 	andmi	r0, r0, r4
  64:	4b010a03 	blmi	42878 <GUEST_OFFSET-0x3ffbd788>
  68:	04020067 	streq	r0, [r2], #-103	; 0x67
  6c:	02026b01 	andeq	r6, r2, #1024	; 0x400
  70:	90010100 	andls	r0, r1, r0, lsl #2
  74:	02000000 	andeq	r0, r0, #0
  78:	00003e00 	andeq	r3, r0, r0, lsl #28
  7c:	fb010200 	blx	40886 <GUEST_OFFSET-0x3ffbf77a>
  80:	01000d0e 	tsteq	r0, lr, lsl #26
  84:	00010101 	andeq	r0, r1, r1, lsl #2
  88:	00010000 	andeq	r0, r1, r0
  8c:	2e2e0100 	sufcse	f0, f6, f0
  90:	2f2e2e2f 	svccs	0x002e2e2f
  94:	2e2f2e2e 	cdpcs	14, 2, cr2, cr15, cr14, {1}
  98:	6f632f2e 	svcvs	0x00632f2e
  9c:	6e6f6d6d 	cdpvs	13, 6, cr6, cr15, cr13, {3}
  a0:	6575672f 	ldrbvs	r6, [r5, #-1839]!	; 0x72f
  a4:	632f7473 	teqvs	pc, #1929379840	; 0x73000000
  a8:	0065726f 	rsbeq	r7, r5, pc, ror #4
  ac:	735f6300 	cmpvc	pc, #0
  b0:	74726174 	ldrbtvc	r6, [r2], #-372	; 0x174
  b4:	0100632e 	tsteq	r0, lr, lsr #6
  b8:	00000000 	andeq	r0, r0, r0
  bc:	00280205 	eoreq	r0, r8, r5, lsl #4
  c0:	33034000 	movwcc	r4, #12288	; 0x3000
  c4:	004b6701 	subeq	r6, fp, r1, lsl #14
  c8:	06020402 	streq	r0, [r2], -r2, lsl #8
  cc:	04020066 	streq	r0, [r2], #-102	; 0x66
  d0:	84066601 	strhi	r6, [r6], #-1537	; 0x601
  d4:	2f4e6769 	svccs	0x004e6769
  d8:	30684c67 	rsbcc	r4, r8, r7, ror #24
  dc:	2e09034c 	cdpcs	3, 0, cr0, cr9, cr12, {2}
  e0:	67676767 	strbvs	r6, [r7, -r7, ror #14]!
  e4:	679f3367 	ldrvs	r3, [pc, r7, ror #6]
  e8:	84672f67 	strbthi	r2, [r7], #-3943	; 0xf67
  ec:	672f6767 	strvs	r6, [pc, -r7, ror #14]!
  f0:	2e63036e 	cdpcs	3, 6, cr0, cr3, cr14, {3}
  f4:	01040200 	mrseq	r0, R12_usr
  f8:	03066606 	movweq	r6, #26118	; 0x6606
  fc:	67678220 	strbvs	r8, [r7, -r0, lsr #4]!
 100:	04022f68 	streq	r2, [r2], #-3944	; 0xf68
 104:	5b010100 	blpl	4050c <GUEST_OFFSET-0x3ffbfaf4>
 108:	02000000 	andeq	r0, r0, #0
 10c:	00004000 	andeq	r4, r0, r0
 110:	fb010200 	blx	4091a <GUEST_OFFSET-0x3ffbf6e6>
 114:	01000d0e 	tsteq	r0, lr, lsl #26
 118:	00010101 	andeq	r0, r1, r1, lsl #2
 11c:	00010000 	andeq	r0, r1, r0
 120:	2e2e0100 	sufcse	f0, f6, f0
 124:	2f2e2e2f 	svccs	0x002e2e2f
 128:	2e2f2e2e 	cdpcs	14, 2, cr2, cr15, cr14, {1}
 12c:	6f632f2e 	svcvs	0x00632f2e
 130:	6e6f6d6d 	cdpvs	13, 6, cr6, cr15, cr13, {3}
 134:	6575672f 	ldrbvs	r6, [r5, #-1839]!	; 0x72f
 138:	632f7473 	teqvs	pc, #1929379840	; 0x73000000
 13c:	0065726f 	rsbeq	r7, r5, pc, ror #4
 140:	63786500 	cmnvs	r8, #0
 144:	69747065 	ldmdbvs	r4!, {r0, r2, r5, r6, ip, sp, lr}^
 148:	632e6e6f 	teqvs	lr, #1776	; 0x6f0
 14c:	00000100 	andeq	r0, r0, r0, lsl #2
 150:	02050000 	andeq	r0, r5, #0
 154:	400001c8 	andmi	r0, r0, r8, asr #3
 158:	83010a03 	movwhi	r0, #6659	; 0x1a03
 15c:	83698369 	cmnhi	r9, #-1543503871	; 0xa4000001
 160:	00040267 	andeq	r0, r4, r7, ror #4
 164:	01460101 	cmpeq	r6, r1, lsl #2
 168:	00020000 	andeq	r0, r2, r0
 16c:	00000087 	andeq	r0, r0, r7, lsl #1
 170:	0efb0102 	cdpeq	1, 15, cr0, cr11, cr2, {0}
 174:	0101000d 	tsteq	r1, sp
 178:	00000101 	andeq	r0, r0, r1, lsl #2
 17c:	00000100 	andeq	r0, r0, r0, lsl #2
 180:	2f2e2e01 	svccs	0x002e2e01
 184:	2e2f2e2e 	cdpcs	14, 2, cr2, cr15, cr14, {1}
 188:	2e2e2f2e 	cdpcs	15, 2, cr2, cr14, cr14, {1}
 18c:	6d6f632f 	stclvs	3, cr6, [pc, #-188]!	; d8 <GUEST_OFFSET-0x3fffff28>
 190:	2f6e6f6d 	svccs	0x006e6f6d
 194:	6c636e69 	stclvs	14, cr6, [r3], #-420	; 0xfffffe5c
 198:	00656475 	rsbeq	r6, r5, r5, ror r4
 19c:	2e2f2e2e 	cdpcs	14, 2, cr2, cr15, cr14, {1}
 1a0:	2e2e2f2e 	cdpcs	15, 2, cr2, cr14, cr14, {1}
 1a4:	2f2e2e2f 	svccs	0x002e2e2f
 1a8:	6d6d6f63 	stclvs	15, cr6, [sp, #-396]!	; 0xfffffe74
 1ac:	672f6e6f 	strvs	r6, [pc, -pc, ror #28]!
 1b0:	74736575 	ldrbtvc	r6, [r3], #-1397	; 0x575
 1b4:	726f632f 	rsbvc	r6, pc, #-1140850688	; 0xbc000000
 1b8:	73000065 	movwvc	r0, #101	; 0x65
 1bc:	682e706d 	stmdavs	lr!, {r0, r2, r3, r5, r6, ip, sp, lr}
 1c0:	00000100 	andeq	r0, r0, r0, lsl #2
 1c4:	2e636967 	cdpcs	9, 6, cr6, cr3, cr7, {3}
 1c8:	00020063 	andeq	r0, r2, r3, rrx
 1cc:	63726100 	cmnvs	r2, #0
 1d0:	79745f68 	ldmdbvc	r4!, {r3, r5, r6, r8, r9, sl, fp, ip, lr}^
 1d4:	2e736570 	mrccs	5, 3, r6, cr3, cr0, {3}
 1d8:	00010068 	andeq	r0, r1, r8, rrx
 1dc:	6d766800 	ldclvs	8, cr6, [r6, #-0]
 1e0:	79745f6d 	ldmdbvc	r4!, {r0, r2, r3, r5, r6, r8, r9, sl, fp, ip, lr}^
 1e4:	2e736570 	mrccs	5, 3, r6, cr3, cr0, {3}
 1e8:	00010068 	andeq	r0, r1, r8, rrx
 1ec:	63696700 	cmnvs	r9, #0
 1f0:	0200682e 	andeq	r6, r0, #3014656	; 0x2e0000
 1f4:	00000000 	andeq	r0, r0, r0
 1f8:	02240205 	eoreq	r0, r4, #1342177280	; 0x50000000
 1fc:	15034000 	strne	r4, [r3, #-0]
 200:	04836701 	streq	r6, [r3], #1793	; 0x701
 204:	82220302 	eorhi	r0, r2, #134217728	; 0x8000000
 208:	bbbbbb69 	bllt	feeeefb4 <guest_stacklimit+0xaeeeefb4>
 20c:	9fbcbbbb 	svcls	0x00bcbbbb
 210:	9f67d783 	svcls	0x0067d783
 214:	4d68d783 	stclmi	7, cr13, [r8, #-524]!	; 0xfffffdf4
 218:	4b678369 	blmi	19e0fc4 <GUEST_OFFSET-0x3e61f03c>
 21c:	9f67bc67 	svcls	0x0067bc67
 220:	679f6767 	ldrvs	r6, [pc, r7, ror #14]
 224:	6767d767 	strbvs	sp, [r7, -r7, ror #14]!
 228:	bb67679f 	bllt	19da0ac <GUEST_OFFSET-0x3e625f54>
 22c:	67d76767 	ldrbvs	r6, [r7, r7, ror #14]
 230:	6767d767 	strbvs	sp, [r7, -r7, ror #14]!
 234:	d76767d7 			; <UNDEFINED> instruction: 0xd76767d7
 238:	68d76767 	ldmvs	r7, {r0, r1, r2, r5, r6, r8, r9, sl, sp, lr}^
 23c:	4c844d31 	stcmi	13, cr4, [r4], {49}	; 0x31
 240:	6d4b6783 	stclvs	7, cr6, [fp, #-524]	; 0xfffffdf4
 244:	f3f383bb 	vrsra.u64	d24, d27, #13
 248:	9f676768 	svcls	0x00676768
 24c:	6b2f4d67 	blvs	bd37f0 <GUEST_OFFSET-0x3f42c810>
 250:	2f910883 	svccs	0x00910883
 254:	91088385 	smlabbls	r8, r5, r3, r8
 258:	4bbb862f 	blmi	feee1b1c <guest_stacklimit+0xaeee1b1c>
 25c:	4c3d0867 	ldcmi	8, cr0, [sp], #-412	; 0xfffffe64
 260:	4d67852f 	cfstr64mi	mvdx8, [r7, #-188]!	; 0xffffff44
 264:	02040200 	andeq	r0, r4, #0
 268:	04020067 	streq	r0, [r2], #-103	; 0x67
 26c:	003b0802 	eorseq	r0, fp, r2, lsl #16
 270:	06010402 	streq	r0, [r1], -r2, lsl #8
 274:	84690666 	strbthi	r0, [r9], #-1638	; 0x666
 278:	67bb3e08 	ldrvs	r3, [fp, r8, lsl #28]!
 27c:	674b8330 	smlaldxvs	r8, fp, r0, r3
 280:	040200a0 	streq	r0, [r2], #-160	; 0xa0
 284:	02006702 	andeq	r6, r0, #524288	; 0x80000
 288:	1f080204 	svcne	0x00080204
 28c:	01040200 	mrseq	r0, R12_usr
 290:	69066606 	stmdbvs	r6, {r1, r2, r9, sl, sp, lr}
 294:	4ca6692f 	stcmi	9, cr6, [r6], #188	; 0xbc
 298:	bb839f4d 	bllt	fe0e7fd4 <guest_stacklimit+0xae0e7fd4>
 29c:	679f6767 	ldrvs	r6, [pc, r7, ror #14]
 2a0:	08699f67 	stmdaeq	r9!, {r0, r1, r2, r5, r6, r8, r9, sl, fp, ip, pc}^
 2a4:	bbaf0859 	bllt	febc2410 <guest_stacklimit+0xaebc2410>
 2a8:	02ba0903 	adcseq	r0, sl, #49152	; 0xc000
 2ac:	01010004 	tsteq	r1, r4
 2b0:	000000ad 	andeq	r0, r0, sp, lsr #1
 2b4:	00720002 	rsbseq	r0, r2, r2
 2b8:	01020000 	mrseq	r0, (UNDEF: 2)
 2bc:	000d0efb 	strdeq	r0, [sp], -fp
 2c0:	01010101 	tsteq	r1, r1, lsl #2
 2c4:	01000000 	mrseq	r0, (UNDEF: 0)
 2c8:	2e010000 	cdpcs	0, 0, cr0, cr1, cr0, {0}
 2cc:	2e2e2f2e 	cdpcs	15, 2, cr2, cr14, cr14, {1}
 2d0:	2f2e2e2f 	svccs	0x002e2e2f
 2d4:	632f2e2e 	teqvs	pc, #736	; 0x2e0
 2d8:	6f6d6d6f 	svcvs	0x006d6d6f
 2dc:	75672f6e 	strbvc	r2, [r7, #-3950]!	; 0xf6e
 2e0:	2f747365 	svccs	0x00747365
 2e4:	74736574 	ldrbtvc	r6, [r3], #-1396	; 0x574
 2e8:	2f2e2e00 	svccs	0x002e2e00
 2ec:	2e2f2e2e 	cdpcs	14, 2, cr2, cr15, cr14, {1}
 2f0:	2e2e2f2e 	cdpcs	15, 2, cr2, cr14, cr14, {1}
 2f4:	6d6f632f 	stclvs	3, cr6, [pc, #-188]!	; 240 <GUEST_OFFSET-0x3ffffdc0>
 2f8:	2f6e6f6d 	svccs	0x006e6f6d
 2fc:	6c636e69 	stclvs	14, cr6, [r3], #-420	; 0xfffffe5c
 300:	00656475 	rsbeq	r6, r5, r5, ror r4
 304:	73657400 	cmnvc	r5, #0
 308:	64765f74 	ldrbtvs	r5, [r6], #-3956	; 0xf74
 30c:	735f7665 	cmpvc	pc, #105906176	; 0x6500000
 310:	6c706d61 	ldclvs	13, cr6, [r0], #-388	; 0xfffffe7c
 314:	00632e65 	rsbeq	r2, r3, r5, ror #28
 318:	61000001 	tstvs	r0, r1
 31c:	5f686372 	svcpl	0x00686372
 320:	65707974 	ldrbvs	r7, [r0, #-2420]!	; 0x974
 324:	00682e73 	rsbeq	r2, r8, r3, ror lr
 328:	00000002 	andeq	r0, r0, r2
 32c:	b4020500 	strlt	r0, [r2], #-1280	; 0x500
 330:	0340000a 	movteq	r0, #10
 334:	6767010a 	strbvs	r0, [r7, -sl, lsl #2]!
 338:	6769674b 	strbvs	r6, [r9, -fp, asr #14]!
 33c:	83676767 	cmnhi	r7, #27000832	; 0x19c0000
 340:	676767bb 			; <UNDEFINED> instruction: 0x676767bb
 344:	67676767 	strbvs	r6, [r7, -r7, ror #14]!
 348:	bb676767 	bllt	19da0ec <GUEST_OFFSET-0x3e625f14>
 34c:	6e036884 	cdpvs	8, 0, cr6, cr3, cr4, {4}
 350:	04020066 	streq	r0, [r2], #-102	; 0x66
 354:	06660601 	strbteq	r0, [r6], -r1, lsl #12
 358:	67661403 	strbvs	r1, [r6, -r3, lsl #8]!
 35c:	01000402 	tsteq	r0, r2, lsl #8
 360:	00008201 	andeq	r8, r0, r1, lsl #4
 364:	6d000200 	sfmvs	f0, 4, [r0, #-0]
 368:	02000000 	andeq	r0, r0, #0
 36c:	0d0efb01 	vstreq	d15, [lr, #-4]
 370:	01010100 	mrseq	r0, (UNDEF: 17)
 374:	00000001 	andeq	r0, r0, r1
 378:	01000001 	tsteq	r0, r1
 37c:	2e2f2e2e 	cdpcs	14, 2, cr2, cr15, cr14, {1}
 380:	2e2e2f2e 	cdpcs	15, 2, cr2, cr14, cr14, {1}
 384:	2f2e2e2f 	svccs	0x002e2e2f
 388:	6d6d6f63 	stclvs	15, cr6, [sp, #-396]!	; 0xfffffe74
 38c:	672f6e6f 	strvs	r6, [pc, -pc, ror #28]!
 390:	74736575 	ldrbtvc	r6, [r3], #-1397	; 0x575
 394:	7365742f 	cmnvc	r5, #788529152	; 0x2f000000
 398:	2e2e0074 	mcrcs	0, 1, r0, cr14, cr4, {3}
 39c:	2f2e2e2f 	svccs	0x002e2e2f
 3a0:	2e2f2e2e 	cdpcs	14, 2, cr2, cr15, cr14, {1}
 3a4:	6f632f2e 	svcvs	0x00632f2e
 3a8:	6e6f6d6d 	cdpvs	13, 6, cr6, cr15, cr13, {3}
 3ac:	636e692f 	cmnvs	lr, #770048	; 0xbc000
 3b0:	6564756c 	strbvs	r7, [r4, #-1388]!	; 0x56c
 3b4:	65740000 	ldrbvs	r0, [r4, #-0]!
 3b8:	765f7473 			; <UNDEFINED> instruction: 0x765f7473
 3bc:	656d6974 	strbvs	r6, [sp, #-2420]!	; 0x974
 3c0:	00632e72 	rsbeq	r2, r3, r2, ror lr
 3c4:	61000001 	tstvs	r0, r1
 3c8:	5f686372 	svcpl	0x00686372
 3cc:	65707974 	ldrbvs	r7, [r0, #-2420]!	; 0x974
 3d0:	00682e73 	rsbeq	r2, r8, r3, ror lr
 3d4:	00000002 	andeq	r0, r0, r2
 3d8:	28020500 	stmdacs	r2, {r8, sl}
 3dc:	1a40000c 	bne	1000414 <GUEST_OFFSET-0x3efffbec>
 3e0:	06029f83 	streq	r9, [r2], -r3, lsl #31
 3e4:	1c010100 	stfnes	f0, [r1], {-0}
 3e8:	02000002 	andeq	r0, r0, #2
 3ec:	00009c00 	andeq	r9, r0, r0, lsl #24
 3f0:	fb010200 	blx	40bfa <GUEST_OFFSET-0x3ffbf406>
 3f4:	01000d0e 	tsteq	r0, lr, lsl #26
 3f8:	00010101 	andeq	r0, r1, r1, lsl #2
 3fc:	00010000 	andeq	r0, r1, r0
 400:	2e2e0100 	sufcse	f0, f6, f0
 404:	2f2e2e2f 	svccs	0x002e2e2f
 408:	2e2f2e2e 	cdpcs	14, 2, cr2, cr15, cr14, {1}
 40c:	6f632f2e 	svcvs	0x00632f2e
 410:	6e6f6d6d 	cdpvs	13, 6, cr6, cr15, cr13, {3}
 414:	676f6c2f 	strbvs	r6, [pc, -pc, lsr #24]!
 418:	73752f00 	cmnvc	r5, #0
 41c:	72612f72 	rsbvc	r2, r1, #456	; 0x1c8
 420:	696c2d6d 	stmdbvs	ip!, {r0, r2, r3, r5, r6, r8, sl, fp, sp}^
 424:	2d78756e 	cfldr64cs	mvdx7, [r8, #-440]!	; 0xfffffe48
 428:	65756e67 	ldrbvs	r6, [r5, #-3687]!	; 0xe67
 42c:	68696261 	stmdavs	r9!, {r0, r5, r6, r9, sp, lr}^
 430:	6e692f66 	cdpvs	15, 6, cr2, cr9, cr6, {3}
 434:	64756c63 	ldrbtvs	r6, [r5], #-3171	; 0xc63
 438:	752f0065 	strvc	r0, [pc, #-101]!	; 3db <GUEST_OFFSET-0x3ffffc25>
 43c:	6c2f7273 	sfmvs	f7, 4, [pc], #-460	; 278 <GUEST_OFFSET-0x3ffffd88>
 440:	672f6269 	strvs	r6, [pc, -r9, ror #4]!
 444:	612f6363 	teqvs	pc, r3, ror #6
 448:	6c2d6d72 	stcvs	13, cr6, [sp], #-456	; 0xfffffe38
 44c:	78756e69 	ldmdavc	r5!, {r0, r3, r5, r6, r9, sl, fp, sp, lr}^
 450:	756e672d 	strbvc	r6, [lr, #-1837]!	; 0x72d
 454:	69626165 	stmdbvs	r2!, {r0, r2, r5, r6, r8, sp, lr}^
 458:	342f6668 	strtcc	r6, [pc], #-1640	; 460 <GUEST_OFFSET-0x3ffffba0>
 45c:	692f362e 	stmdbvs	pc!, {r1, r2, r3, r5, r9, sl, ip, sp}	; <UNPREDICTABLE>
 460:	756c636e 	strbvc	r6, [ip, #-878]!	; 0x36e
 464:	00006564 	andeq	r6, r0, r4, ror #10
 468:	69727473 	ldmdbvs	r2!, {r0, r1, r4, r5, r6, sl, ip, sp, lr}^
 46c:	632e676e 	teqvs	lr, #28835840	; 0x1b80000
 470:	00000100 	andeq	r0, r0, r0, lsl #2
 474:	69727473 	ldmdbvs	r2!, {r0, r1, r4, r5, r6, sl, ip, sp, lr}^
 478:	682e676e 	stmdavs	lr!, {r1, r2, r3, r5, r6, r8, r9, sl, sp, lr}
 47c:	00000200 	andeq	r0, r0, r0, lsl #4
 480:	64647473 	strbtvs	r7, [r4], #-1139	; 0x473
 484:	682e6665 	stmdavs	lr!, {r0, r2, r5, r6, r9, sl, sp, lr}
 488:	00000300 	andeq	r0, r0, r0, lsl #6
 48c:	02050000 	andeq	r0, r5, #0
 490:	40000c58 	andmi	r0, r0, r8, asr ip
 494:	2f83bb15 	svccs	0x0083bb15
 498:	01040200 	mrseq	r0, R12_usr
 49c:	3f083b08 	svccc	0x00083b08
 4a0:	9fbb852f 	svcls	0x00bb852f
 4a4:	002f6849 	eoreq	r6, pc, r9, asr #16
 4a8:	08010402 	stmdaeq	r1, {r1, sl}
 4ac:	2f3f083b 	svccs	0x003f083b
 4b0:	699fbb85 	ldmibvs	pc, {r0, r2, r7, r8, r9, fp, ip, sp, pc}	; <UNPREDICTABLE>
 4b4:	9fbc83bb 	svcls	0x00bc83bb
 4b8:	2f4bbb69 	svccs	0x004bbb69
 4bc:	04020067 	streq	r0, [r2], #-103	; 0x67
 4c0:	02006401 	andeq	r6, r0, #16777216	; 0x1000000
 4c4:	66060204 	strvs	r0, [r6], -r4, lsl #4
 4c8:	4c67be06 	stclmi	14, cr11, [r7], #-24	; 0xffffffe8
 4cc:	4b83852f 	blmi	fe0e1990 <guest_stacklimit+0xae0e1990>
 4d0:	0402002f 	streq	r0, [r2], #-47	; 0x2f
 4d4:	67846501 	strvs	r6, [r4, r1, lsl #10]
 4d8:	2f4bbb85 	svccs	0x004bbb85
 4dc:	01040200 	mrseq	r0, R12_usr
 4e0:	2f3e08d5 	svccs	0x003e08d5
 4e4:	4b4bbb85 	blmi	12ef300 <GUEST_OFFSET-0x3ed10d00>
 4e8:	bb4bbb2f 	bllt	12ef1ac <GUEST_OFFSET-0x3ed10e54>
 4ec:	0200674c 	andeq	r6, r0, #19922944	; 0x1300000
 4f0:	79030104 	stmdbvc	r3, {r2, r8}
 4f4:	08090366 	stmdaeq	r9, {r1, r2, r5, r6, r8, r9}
 4f8:	9f852f3c 	svcls	0x00852f3c
 4fc:	bb4bbb2f 	bllt	12ef1c0 <GUEST_OFFSET-0x3ed10e40>
 500:	0200674c 	andeq	r6, r0, #19922944	; 0x1300000
 504:	79030104 	stmdbvc	r3, {r2, r8}
 508:	04020066 	streq	r0, [r2], #-102	; 0x66
 50c:	06820602 	streq	r0, [r2], r2, lsl #12
 510:	00820903 	addeq	r0, r2, r3, lsl #18
 514:	06010402 	streq	r0, [r1], -r2, lsl #8
 518:	4b830682 	blmi	fe0c1f28 <guest_stacklimit+0xae0c1f28>
 51c:	852f4c83 	strhi	r4, [pc, #-3203]!	; fffff8a1 <guest_stacklimit+0xaffff8a1>
 520:	4bbb2fbb 	blmi	feecc414 <guest_stacklimit+0xaeecc414>
 524:	00674bbb 	strhteq	r4, [r7], #-187	; 0xffffff45
 528:	03010402 	movweq	r0, #5122	; 0x1402
 52c:	0200667a 	andeq	r6, r0, #127926272	; 0x7a00000
 530:	82060204 	andhi	r0, r6, #1073741824	; 0x40000000
 534:	01040200 	mrseq	r0, R12_usr
 538:	44080682 	strmi	r0, [r8], #-1666	; 0x682
 53c:	01040200 	mrseq	r0, R12_usr
 540:	f3066606 	vmax.u8	d6, d6, d6
 544:	2f4c834b 	svccs	0x004c834b
 548:	2f4b9f85 	svccs	0x004b9f85
 54c:	01040200 	mrseq	r0, R12_usr
 550:	04020065 	streq	r0, [r2], #-101	; 0x65
 554:	06820602 	streq	r0, [r2], r2, lsl #12
 558:	2f4c83bd 	svccs	0x004c83bd
 55c:	0200a085 	andeq	sl, r0, #133	; 0x85
 560:	00670204 	rsbeq	r0, r7, r4, lsl #4
 564:	f1020402 			; <UNDEFINED> instruction: 0xf1020402
 568:	01040200 	mrseq	r0, R12_usr
 56c:	bd066606 	stclt	6, cr6, [r6, #-24]	; 0xffffffe8
 570:	83852f9f 	orrhi	r2, r5, #636	; 0x27c
 574:	02004c4b 	andeq	r4, r0, #19200	; 0x4b00
 578:	82060104 	andhi	r0, r6, #1
 57c:	2f4c9f06 	svccs	0x004c9f06
 580:	01040200 	mrseq	r0, R12_usr
 584:	bb06ba06 	bllt	1aeda4 <GUEST_OFFSET-0x3fe5125c>
 588:	02003d08 	andeq	r3, r0, #512	; 0x200
 58c:	ba060104 	blt	1809a4 <GUEST_OFFSET-0x3fe7f65c>
 590:	3d08bb06 	vstrcc	d11, [r8, #-24]	; 0xffffffe8
 594:	01040200 	mrseq	r0, R12_usr
 598:	bb06ba06 	bllt	1aedb8 <GUEST_OFFSET-0x3fe51248>
 59c:	79032108 	stmdbvc	r3, {r3, r8, sp}
 5a0:	04020082 	streq	r0, [r2], #-130	; 0x82
 5a4:	062e0601 	strteq	r0, [lr], -r1, lsl #12
 5a8:	2fba0a03 	svccs	0x00ba0a03
 5ac:	674d9f85 	strbvs	r9, [sp, -r5, lsl #31]
 5b0:	01040200 	mrseq	r0, R12_usr
 5b4:	f6066606 			; <UNDEFINED> instruction: 0xf6066606
 5b8:	7e842df3 	mcrvc	13, 4, r2, cr4, cr3, {7}
 5bc:	0402002b 	streq	r0, [r2], #-43	; 0x2b
 5c0:	06660601 	strbteq	r0, [r6], -r1, lsl #12
 5c4:	67660903 	strbvs	r0, [r6, -r3, lsl #18]!
 5c8:	699f689f 	ldmibvs	pc, {r0, r1, r2, r3, r4, r7, fp, sp, lr}	; <UNPREDICTABLE>
 5cc:	02002f9f 	andeq	r2, r0, #636	; 0x27c
 5d0:	85650104 	strbhi	r0, [r5, #-260]!	; 0x104
 5d4:	0067832f 	rsbeq	r8, r7, pc, lsr #6
 5d8:	63010402 	movwvs	r0, #5122	; 0x1402
 5dc:	852f6787 	strhi	r6, [pc, #-1927]!	; fffffe5d <guest_stacklimit+0xaffffe5d>
 5e0:	4bbbbc83 	blmi	feeef7f4 <guest_stacklimit+0xaeeef7f4>
 5e4:	91082f69 	tstls	r8, r9, ror #30
 5e8:	04020080 	streq	r0, [r2], #-128	; 0x80
 5ec:	062e0601 	strteq	r0, [lr], -r1, lsl #12
 5f0:	040200bf 	streq	r0, [r2], #-191	; 0xbf
 5f4:	00660601 	rsbeq	r0, r6, r1, lsl #12
 5f8:	66020402 	strvs	r0, [r2], -r2, lsl #8
 5fc:	03040200 	movweq	r0, #16896	; 0x4200
 600:	08022f06 	stmdaeq	r2, {r1, r2, r8, r9, sl, fp, sp}
 604:	86010100 	strhi	r0, [r1], -r0, lsl #2
 608:	02000000 	andeq	r0, r0, #0
 60c:	00003c00 	andeq	r3, r0, r0, lsl #24
 610:	fb010200 	blx	40e1a <GUEST_OFFSET-0x3ffbf1e6>
 614:	01000d0e 	tsteq	r0, lr, lsl #26
 618:	00010101 	andeq	r0, r1, r1, lsl #2
 61c:	00010000 	andeq	r0, r1, r0
 620:	2e2e0100 	sufcse	f0, f6, f0
 624:	2f2e2e2f 	svccs	0x002e2e2f
 628:	2e2f2e2e 	cdpcs	14, 2, cr2, cr15, cr14, {1}
 62c:	6f632f2e 	svcvs	0x00632f2e
 630:	6e6f6d6d 	cdpvs	13, 6, cr6, cr15, cr13, {3}
 634:	6575672f 	ldrbvs	r6, [r5, #-1839]!	; 0x72f
 638:	632f7473 	teqvs	pc, #1929379840	; 0x73000000
 63c:	0065726f 	rsbeq	r7, r5, pc, ror #4
 640:	65756700 	ldrbvs	r6, [r5, #-1792]!	; 0x700
 644:	532e7473 	teqpl	lr, #1929379840	; 0x73000000
 648:	00000100 	andeq	r0, r0, r0, lsl #2
 64c:	02050000 	andeq	r0, r5, #0
 650:	40001760 	andmi	r1, r0, r0, ror #14
 654:	31010f03 	tstcc	r1, r3, lsl #30
 658:	312f312f 	teqcc	pc, pc, lsr #2
 65c:	0e03312f 	adfeqsp	f3, f3, #10.0
 660:	2ff7302e 	svccs	0x00f7302e
 664:	2f2f2f2f 	svccs	0x002f2f2f
 668:	2f2f322f 	svccs	0x002f322f
 66c:	2f312f30 	svccs	0x00312f30
 670:	2f322f2f 	svccs	0x00322f2f
 674:	312f302f 	teqcc	pc, pc, lsr #32
 678:	322f2f2f 	eorcc	r2, pc, #188	; 0xbc
 67c:	2f302f2f 	svccs	0x00302f2f
 680:	312f2f31 	teqcc	pc, r1, lsr pc	; <UNPREDICTABLE>
 684:	7fa20333 	svcvc	0x00a20333
 688:	3132322e 	teqcc	r2, lr, lsr #4
 68c:	01000202 	tsteq	r0, r2, lsl #4
 690:	0000af01 	andeq	sl, r0, r1, lsl #30
 694:	61000200 	mrsvs	r0, R8_usr
 698:	02000000 	andeq	r0, r0, #0
 69c:	0d0efb01 	vstreq	d15, [lr, #-4]
 6a0:	01010100 	mrseq	r0, (UNDEF: 17)
 6a4:	00000001 	andeq	r0, r0, r1
 6a8:	01000001 	tsteq	r0, r1
 6ac:	76697264 	strbtvc	r7, [r9], -r4, ror #4
 6b0:	00737265 	rsbseq	r7, r3, r5, ror #4
 6b4:	2e2f2e2e 	cdpcs	14, 2, cr2, cr15, cr14, {1}
 6b8:	2e2e2f2e 	cdpcs	15, 2, cr2, cr14, cr14, {1}
 6bc:	2f2e2e2f 	svccs	0x002e2e2f
 6c0:	6d6d6f63 	stclvs	15, cr6, [sp, #-396]!	; 0xfffffe74
 6c4:	692f6e6f 	stmdbvs	pc!, {r0, r1, r2, r3, r5, r6, r9, sl, fp, sp, lr}	; <UNPREDICTABLE>
 6c8:	756c636e 	strbvc	r6, [ip, #-878]!	; 0x36e
 6cc:	00006564 	andeq	r6, r0, r4, ror #10
 6d0:	74726175 	ldrbtvc	r6, [r2], #-373	; 0x175
 6d4:	0100632e 	tsteq	r0, lr, lsr #6
 6d8:	72610000 	rsbvc	r0, r1, #0
 6dc:	745f6863 	ldrbvc	r6, [pc], #-2147	; 6e4 <GUEST_OFFSET-0x3ffff91c>
 6e0:	73657079 	cmnvc	r5, #121	; 0x79
 6e4:	0200682e 	andeq	r6, r0, #3014656	; 0x2e0000
 6e8:	78650000 	stmdavc	r5!, {}^	; <UNPREDICTABLE>
 6ec:	736f6e79 	cmnvc	pc, #1936	; 0x790
 6f0:	7261752d 	rsbvc	r7, r1, #188743680	; 0xb400000
 6f4:	00682e74 	rsbeq	r2, r8, r4, ror lr
 6f8:	00000001 	andeq	r0, r0, r1
 6fc:	40020500 	andmi	r0, r2, r0, lsl #10
 700:	03400018 	movteq	r0, #24
 704:	68830110 	stmvs	r3, {r4, r8}
 708:	9f4c6867 	svcls	0x004c6867
 70c:	2f679f85 	svccs	0x00679f85
 710:	01040200 	mrseq	r0, R12_usr
 714:	6783be9d 			; <UNDEFINED> instruction: 0x6783be9d
 718:	834c3362 	movthi	r3, #50018	; 0xc362
 71c:	0402002f 	streq	r0, [r2], #-47	; 0x2f
 720:	4d84d501 	cfstr32mi	mvfx13, [r4, #4]
 724:	67674d83 	strbvs	r4, [r7, -r3, lsl #27]!
 728:	678467d7 			; <UNDEFINED> instruction: 0x678467d7
 72c:	00827a03 	addeq	r7, r2, r3, lsl #20
 730:	06010402 	streq	r0, [r1], -r2, lsl #8
 734:	4d6e0666 	stclmi	6, cr0, [lr, #-408]!	; 0xfffffe68
 738:	4d67bb83 	fstmdbxmi	r7!, {d27-d91}	;@ Deprecated
 73c:	024a0903 	subeq	r0, sl, #49152	; 0xc000
 740:	01010006 	tsteq	r1, r6
 744:	000000e3 	andeq	r0, r0, r3, ror #1
 748:	00830002 	addeq	r0, r3, r2
 74c:	01020000 	mrseq	r0, (UNDEF: 2)
 750:	000d0efb 	strdeq	r0, [sp], -fp
 754:	01010101 	tsteq	r1, r1, lsl #2
 758:	01000000 	mrseq	r0, (UNDEF: 0)
 75c:	64010000 	strvs	r0, [r1], #-0
 760:	65766972 	ldrbvs	r6, [r6, #-2418]!	; 0x972
 764:	2e007372 	mcrcs	3, 0, r7, cr0, cr2, {3}
 768:	2e2e2f2e 	cdpcs	15, 2, cr2, cr14, cr14, {1}
 76c:	2f2e2e2f 	svccs	0x002e2e2f
 770:	632f2e2e 	teqvs	pc, #736	; 0x2e0
 774:	6f6d6d6f 	svcvs	0x006d6d6f
 778:	6e692f6e 	cdpvs	15, 6, cr2, cr9, cr14, {3}
 77c:	64756c63 	ldrbtvs	r6, [r5], #-3171	; 0xc63
 780:	69000065 	stmdbvs	r0, {r0, r2, r5, r6}
 784:	78652d6f 	stmdavc	r5!, {r0, r1, r2, r3, r5, r6, r8, sl, fp, sp}^
 788:	736f6e79 	cmnvc	pc, #1936	; 0x790
 78c:	0100682e 	tsteq	r0, lr, lsr #16
 790:	77700000 	ldrbvc	r0, [r0, -r0]!
 794:	69745f6d 	ldmdbvs	r4!, {r0, r2, r3, r5, r6, r8, r9, sl, fp, ip, lr}^
 798:	2e72656d 	cdpcs	5, 7, cr6, cr2, cr13, {3}
 79c:	00010063 	andeq	r0, r1, r3, rrx
 7a0:	63726100 	cmnvs	r2, #0
 7a4:	79745f68 	ldmdbvc	r4!, {r3, r5, r6, r8, r9, sl, fp, ip, lr}^
 7a8:	2e736570 	mrccs	5, 3, r6, cr3, cr0, {3}
 7ac:	00020068 	andeq	r0, r2, r8, rrx
 7b0:	6d766800 	ldclvs	8, cr6, [r6, #-0]
 7b4:	79745f6d 	ldmdbvc	r4!, {r0, r2, r3, r5, r6, r8, r9, sl, fp, ip, lr}^
 7b8:	2e736570 	mrccs	5, 3, r6, cr3, cr0, {3}
 7bc:	00020068 	andeq	r0, r2, r8, rrx
 7c0:	6d777000 	ldclvs	0, cr7, [r7, #-0]
 7c4:	6d69745f 	cfstrdvs	mvd7, [r9, #-380]!	; 0xfffffe84
 7c8:	682e7265 	stmdavs	lr!, {r0, r2, r5, r6, r9, ip, sp, lr}
 7cc:	00000100 	andeq	r0, r0, r0, lsl #2
 7d0:	02050000 	andeq	r0, r5, #0
 7d4:	40001a60 	andmi	r1, r0, r0, ror #20
 7d8:	83010e03 	movwhi	r0, #7683	; 0x1e03
 7dc:	839f849f 	orrshi	r8, pc, #-1627389952	; 0x9f000000
 7e0:	78030204 	stmdavc	r3, {r2, r9}
 7e4:	84836a66 	strhi	r6, [r3], #2662	; 0xa66
 7e8:	67846767 	strvs	r6, [r4, r7, ror #14]
 7ec:	6a682f84 	bvs	1a0c604 <GUEST_OFFSET-0x3e5f39fc>
 7f0:	83846783 	orrhi	r6, r4, #34340864	; 0x20c0000
 7f4:	682f8367 	stmdavs	pc!, {r0, r1, r2, r5, r6, r8, r9, pc}	; <UNPREDICTABLE>
 7f8:	842f8383 	strthi	r8, [pc], #-899	; 800 <GUEST_OFFSET-0x3ffff800>
 7fc:	674c9fbb 			; <UNDEFINED> instruction: 0x674c9fbb
 800:	4b9f4c4c 	blmi	fe7d3938 <guest_stacklimit+0xae7d3938>
 804:	8383682f 	orrhi	r6, r3, #3080192	; 0x2f0000
 808:	4b6a852f 	blmi	1aa1ccc <GUEST_OFFSET-0x3e55e334>
 80c:	8483832f 	strhi	r8, [r3], #815	; 0x32f
 810:	67846767 	strvs	r6, [r4, r7, ror #14]
 814:	67d88467 	ldrbvs	r8, [r8, r7, ror #8]
 818:	4c836783 	stcmi	7, cr6, [r3], {131}	; 0x83
 81c:	67692fbb 			; <UNDEFINED> instruction: 0x67692fbb
 820:	2f514d2f 	svccs	0x00514d2f
 824:	04022f30 	streq	r2, [r2], #-3888	; 0xf30
 828:	Address 0x0000000000000828 is out of bounds.


Disassembly of section .debug_info:

00000000 <.debug_info>:
       0:	0000007a 	andeq	r0, r0, sl, ror r0
       4:	00000002 	andeq	r0, r0, r2
       8:	01040000 	mrseq	r0, (UNDEF: 4)
       c:	00000000 	andeq	r0, r0, r0
      10:	40000000 	andmi	r0, r0, r0
      14:	40000004 	andmi	r0, r0, r4
      18:	746f6f62 	strbtvc	r6, [pc], #-3938	; 20 <GUEST_OFFSET-0x3fffffe0>
      1c:	2f00532e 	svccs	0x0000532e
      20:	656d6f68 	strbvs	r6, [sp, #-3944]!	; 0xf68
      24:	7361632f 	cmnvc	r1, #-1140850688	; 0xbc000000
      28:	776e6f69 	strbvc	r6, [lr, -r9, ror #30]!
      2c:	6b2f6f6f 	blvs	bdbdf0 <GUEST_OFFSET-0x3f424210>
      30:	65707968 	ldrbvs	r7, [r0, #-2408]!	; 0x968
      34:	73697672 	cmnvc	r9, #119537664	; 0x7200000
      38:	702f726f 	eorvc	r7, pc, pc, ror #4
      3c:	6674616c 	ldrbtvs	r6, [r4], -ip, ror #2
      40:	2d6d726f 	sfmcs	f7, 2, [sp, #-444]!	; 0xfffffe44
      44:	69766564 	ldmdbvs	r6!, {r2, r5, r6, r8, sl, sp, lr}^
      48:	632f6563 	teqvs	pc, #415236096	; 0x18c00000
      4c:	6574726f 	ldrbvs	r7, [r4, #-623]!	; 0x26f
      50:	31615f78 	smccc	5624	; 0x15f8
      54:	5f327835 	svcpl	0x00327835
      58:	646e7261 	strbtvs	r7, [lr], #-609	; 0x261
      5c:	2f656c61 	svccs	0x00656c61
      60:	73657567 	cmnvc	r5, #432013312	; 0x19c00000
      64:	2f736f74 	svccs	0x00736f74
      68:	75676d62 	strbvc	r6, [r7, #-3426]!	; 0xd62
      6c:	00747365 	rsbseq	r7, r4, r5, ror #6
      70:	20554e47 	subscs	r4, r5, r7, asr #28
      74:	32205341 	eorcc	r5, r0, #67108865	; 0x4000001
      78:	0032322e 	eorseq	r3, r2, lr, lsr #4
      7c:	00728001 	rsbseq	r8, r2, r1
      80:	00020000 	andeq	r0, r2, r0
      84:	00000014 	andeq	r0, r0, r4, lsl r0
      88:	00400104 	subeq	r0, r0, r4, lsl #2
      8c:	39010000 	stmdbcc	r1, {}	; <UNPREDICTABLE>
      90:	5a000000 	bpl	98 <GUEST_OFFSET-0x3fffff68>
      94:	04000000 	streq	r0, [r0], #-0
      98:	28400000 	stmdacs	r0, {}^	; <UNPREDICTABLE>
      9c:	36400000 	strbcc	r0, [r0], -r0
      a0:	02000000 	andeq	r0, r0, #0
      a4:	004e0601 	subeq	r0, lr, r1, lsl #12
      a8:	02020000 	andeq	r0, r2, #0
      ac:	00001305 	andeq	r1, r0, r5, lsl #6
      b0:	05040300 	streq	r0, [r4, #-768]	; 0x300
      b4:	00746e69 	rsbseq	r6, r4, r9, ror #28
      b8:	ab050802 	blge	1420c8 <GUEST_OFFSET-0x3febdf38>
      bc:	02000000 	andeq	r0, r0, #0
      c0:	004c0801 	subeq	r0, ip, r1, lsl #16
      c4:	02020000 	andeq	r0, r2, #0
      c8:	00000007 	andeq	r0, r0, r7
      cc:	07040200 	streq	r0, [r4, -r0, lsl #4]
      d0:	0000002c 	andeq	r0, r0, ip, lsr #32
      d4:	22070802 	andcs	r0, r7, #131072	; 0x20000
      d8:	04000000 	streq	r0, [r0], #-0
      dc:	00001d01 	andeq	r1, r0, r1, lsl #26
      e0:	330a0100 	movwcc	r0, #41216	; 0xa100
      e4:	04000000 	streq	r0, [r0], #-0
      e8:	28400000 	stmdacs	r0, {}^	; <UNPREDICTABLE>
      ec:	00400000 	subeq	r0, r0, r0
      f0:	00000000 	andeq	r0, r0, r0
      f4:	000000a1 	andeq	r0, r0, r1, lsr #1
      f8:	00530002 	subseq	r0, r3, r2
      fc:	01040000 	mrseq	r0, (UNDEF: 4)
     100:	00000040 	andeq	r0, r0, r0, asr #32
     104:	0000b901 	andeq	fp, r0, r1, lsl #18
     108:	00005a00 	andeq	r5, r0, r0, lsl #20
     10c:	00002800 	andeq	r2, r0, r0, lsl #16
     110:	0001c840 	andeq	ip, r1, r0, asr #16
     114:	00007340 	andeq	r7, r0, r0, asr #6
     118:	05040200 	streq	r0, [r4, #-512]	; 0x200
     11c:	00746e69 	rsbseq	r6, r4, r9, ror #28
     120:	2c070403 	cfstrscs	mvf0, [r7], {3}
     124:	03000000 	movweq	r0, #0
     128:	00000702 	andeq	r0, r0, r2, lsl #14
     12c:	08030000 	stmdaeq	r3, {}	; <UNPREDICTABLE>
     130:	00002207 	andeq	r2, r0, r7, lsl #4
     134:	08010300 	stmdaeq	r1, {r8, r9}
     138:	0000004c 	andeq	r0, r0, ip, asr #32
     13c:	00e10104 	rsceq	r0, r1, r4, lsl #2
     140:	33010000 	movwcc	r0, #4096	; 0x1000
     144:	00002801 	andeq	r2, r0, r1, lsl #16
     148:	00007040 	andeq	r7, r0, r0, asr #32
     14c:	00002c40 	andeq	r2, r0, r0, asr #24
     150:	00006e00 	andeq	r6, r0, r0, lsl #28
     154:	00690500 	rsbeq	r0, r9, r0, lsl #10
     158:	006e3501 	rsbeq	r3, lr, r1, lsl #10
     15c:	91020000 	mrsls	r0, (UNDEF: 2)
     160:	25060074 	strcs	r0, [r6, #-116]	; 0x74
     164:	07000000 	streq	r0, [r0, -r0]
     168:	0000eb01 	andeq	lr, r0, r1, lsl #22
     16c:	013a0100 	teqeq	sl, r0, lsl #2
     170:	40000070 	andmi	r0, r0, r0, ror r0
     174:	400001c8 	andmi	r0, r0, r8, asr #3
     178:	00000058 	andeq	r0, r0, r8, asr r0
     17c:	01006905 	tsteq	r0, r5, lsl #18
     180:	0000253c 	andeq	r2, r0, ip, lsr r5
     184:	74910200 	ldrvc	r0, [r1], #512	; 0x200
     188:	001d0108 	andseq	r0, sp, r8, lsl #2
     18c:	77010000 	strvc	r0, [r1, -r0]
     190:	00000025 	andeq	r0, r0, r5, lsr #32
     194:	00000901 	andeq	r0, r0, r1, lsl #18
     198:	00010300 	andeq	r0, r1, r0, lsl #6
     19c:	d5000200 	strle	r0, [r0, #-512]	; 0x200
     1a0:	04000000 	streq	r0, [r0], #-0
     1a4:	00004001 	andeq	r4, r0, r1
     1a8:	01060100 	mrseq	r0, (UNDEF: 22)
     1ac:	005a0000 	subseq	r0, sl, r0
     1b0:	01c80000 	biceq	r0, r8, r0
     1b4:	02244000 	eoreq	r4, r4, #0
     1b8:	01074000 	mrseq	r4, (UNDEF: 7)
     1bc:	35020000 	strcc	r0, [r2, #-0]
     1c0:	3c000001 	stccc	0, cr0, [r0], {1}
     1c4:	005b0301 	subseq	r0, fp, r1, lsl #6
     1c8:	30030000 	andcc	r0, r3, r0
     1cc:	01000001 	tsteq	r0, r1
     1d0:	00005b04 	andeq	r5, r0, r4, lsl #22
     1d4:	00230200 	eoreq	r0, r3, r0, lsl #4
     1d8:	00637004 	rsbeq	r7, r3, r4
     1dc:	005b0501 	subseq	r0, fp, r1, lsl #10
     1e0:	23020000 	movwcs	r0, #8192	; 0x2000
     1e4:	70670404 	rsbvc	r0, r7, r4, lsl #8
     1e8:	06010072 			; <UNDEFINED> instruction: 0x06010072
     1ec:	00000062 	andeq	r0, r0, r2, rrx
     1f0:	00082302 	andeq	r2, r8, r2, lsl #6
     1f4:	2c070405 	cfstrscs	mvf0, [r7], {5}
     1f8:	06000000 	streq	r0, [r0], -r0
     1fc:	0000005b 	andeq	r0, r0, fp, asr r0
     200:	00000072 	andeq	r0, r0, r2, ror r0
     204:	00005b07 	andeq	r5, r0, r7, lsl #22
     208:	08000c00 	stmdaeq	r0, {sl, fp}
     20c:	0000f401 	andeq	pc, r0, r1, lsl #8
     210:	010a0100 	mrseq	r0, (UNDEF: 26)
     214:	400001c8 	andmi	r0, r0, r8, asr #3
     218:	400001e4 	andmi	r0, r0, r4, ror #3
     21c:	00000084 	andeq	r0, r0, r4, lsl #1
     220:	0000009a 	muleq	r0, sl, r0
     224:	00013a09 	andeq	r3, r1, r9, lsl #20
     228:	9a0a0100 	bls	280630 <GUEST_OFFSET-0x3fd7f9d0>
     22c:	02000000 	andeq	r0, r0, #0
     230:	0a007491 	beq	1d47c <GUEST_OFFSET-0x3ffe2b84>
     234:	00002504 	andeq	r2, r0, r4, lsl #10
     238:	59010800 	stmdbpl	r1, {fp}
     23c:	01000001 	tsteq	r0, r1
     240:	01e4010e 	mvneq	r0, lr, lsl #2
     244:	02004000 	andeq	r4, r0, #0
     248:	00b04000 	adcseq	r4, r0, r0
     24c:	00c80000 	sbceq	r0, r8, r0
     250:	3a090000 	bcc	240258 <GUEST_OFFSET-0x3fdbfda8>
     254:	01000001 	tsteq	r0, r1
     258:	00009a0e 	andeq	r9, r0, lr, lsl #20
     25c:	74910200 	ldrvc	r0, [r1], #512	; 0x200
     260:	3f010800 	svccc	0x00010800
     264:	01000001 	tsteq	r0, r1
     268:	02000112 	andeq	r0, r0, #-2147483644	; 0x80000004
     26c:	02244000 	eoreq	r4, r4, #0
     270:	00dc4000 	sbcseq	r4, ip, r0
     274:	00ff0000 	rscseq	r0, pc, r0
     278:	3a090000 	bcc	240280 <GUEST_OFFSET-0x3fdbfd80>
     27c:	01000001 	tsteq	r0, r1
     280:	00009a12 	andeq	r9, r0, r2, lsl sl
     284:	74910200 	ldrvc	r0, [r1], #512	; 0x200
     288:	014b010b 	cmpeq	fp, fp, lsl #2
     28c:	14010000 	strne	r0, [r1], #-0
     290:	000000ff 	strdeq	r0, [r0], -pc	; <UNPREDICTABLE>
     294:	00000c01 	andeq	r0, r0, r1, lsl #24
     298:	6905040d 	stmdbvs	r5, {r0, r2, r3, sl}
     29c:	0000746e 	andeq	r7, r0, lr, ror #8
     2a0:	000003e7 	andeq	r0, r0, r7, ror #7
     2a4:	01830002 	orreq	r0, r3, r2
     2a8:	01040000 	mrseq	r0, (UNDEF: 4)
     2ac:	00000040 	andeq	r0, r0, r0, asr #32
     2b0:	00022301 	andeq	r2, r2, r1, lsl #6
     2b4:	00005a00 	andeq	r5, r0, r0, lsl #20
     2b8:	00022400 	andeq	r2, r2, r0, lsl #8
     2bc:	000ab440 	andeq	fp, sl, r0, asr #8
     2c0:	00016640 	andeq	r6, r1, r0, asr #12
     2c4:	05040200 	streq	r0, [r4, #-512]	; 0x200
     2c8:	00746e69 	rsbseq	r6, r4, r9, ror #28
     2cc:	00031a03 	andeq	r1, r3, r3, lsl #20
     2d0:	37050300 	strcc	r0, [r5, -r0, lsl #6]
     2d4:	04000000 	streq	r0, [r0], #-0
     2d8:	002c0704 	eoreq	r0, ip, r4, lsl #14
     2dc:	02040000 	andeq	r0, r4, #0
     2e0:	00000007 	andeq	r0, r0, r7
     2e4:	07080400 	streq	r0, [r8, -r0, lsl #8]
     2e8:	00000022 	andeq	r0, r0, r2, lsr #32
     2ec:	00025803 	andeq	r5, r2, r3, lsl #16
     2f0:	57080300 	strpl	r0, [r8, -r0, lsl #6]
     2f4:	04000000 	streq	r0, [r0], #-0
     2f8:	004c0801 	subeq	r0, ip, r1, lsl #16
     2fc:	2e050000 	cdpcs	0, 0, cr0, cr5, cr0, {0}
     300:	04000003 	streq	r0, [r0], #-3
     304:	00950904 	addseq	r0, r5, r4, lsl #18
     308:	da060000 	ble	180310 <GUEST_OFFSET-0x3fe7fcf0>
     30c:	00000001 	andeq	r0, r0, r1
     310:	0002e006 	andeq	lr, r2, r6
     314:	fa067f00 	blx	19ff1c <GUEST_OFFSET-0x3fe600e4>
     318:	7e000002 	cdpvc	0, 0, cr0, cr0, cr2, {0}
     31c:	0002bb06 	andeq	fp, r2, r6, lsl #22
     320:	07067d00 	streq	r7, [r6, -r0, lsl #26]
     324:	7c000002 	stcvc	0, cr0, [r0], {2}
     328:	0001b406 	andeq	fp, r1, r6, lsl #8
     32c:	a7067b00 	strge	r7, [r6, -r0, lsl #22]
     330:	7a000002 	bvc	340 <GUEST_OFFSET-0x3ffffcc0>
     334:	02720300 	rsbseq	r0, r2, #0
     338:	11040000 	mrsne	r0, (UNDEF: 4)
     33c:	0000005e 	andeq	r0, r0, lr, asr r0
     340:	00028003 	andeq	r8, r2, r3
     344:	ab0e0500 	blge	38174c <GUEST_OFFSET-0x3fc7e8b4>
     348:	07000000 	streq	r0, [r0, -r0]
     34c:	0000b104 	andeq	fp, r0, r4, lsl #2
     350:	c7010800 	strgt	r0, [r1, -r0, lsl #16]
     354:	09000000 	stmdbeq	r0, {}	; <UNPREDICTABLE>
     358:	00000025 	andeq	r0, r0, r5, lsr #32
     35c:	0000c709 	andeq	ip, r0, r9, lsl #14
     360:	00c70900 	sbceq	r0, r7, r0, lsl #18
     364:	0a000000 	beq	36c <GUEST_OFFSET-0x3ffffc94>
     368:	69670b04 	stmdbvs	r7!, {r2, r8, r9, fp}^
     36c:	01b00063 	rrxseq	r0, r3
     370:	013a2d02 	teqeq	sl, r2, lsl #26
     374:	690c0000 	stmdbvs	ip, {}	; <UNPREDICTABLE>
     378:	02000002 	andeq	r0, r0, #2
     37c:	00002c2e 	andeq	r2, r0, lr, lsr #24
     380:	00230200 	eoreq	r0, r3, r0, lsl #4
     384:	00016d0c 	andeq	r6, r1, ip, lsl #26
     388:	3a2f0200 	bcc	bc0b90 <GUEST_OFFSET-0x3f43f470>
     38c:	02000001 	andeq	r0, r0, #1
     390:	650c0423 	strvs	r0, [ip, #-1059]	; 0x423
     394:	02000001 	andeq	r0, r0, #1
     398:	00013a30 	andeq	r3, r1, r0, lsr sl
     39c:	08230200 	stmdaeq	r3!, {r9}
     3a0:	0002010c 	andeq	r0, r2, ip, lsl #2
     3a4:	2c310200 	lfmcs	f0, 4, [r1], #-0
     3a8:	02000000 	andeq	r0, r0, #0
     3ac:	290c0c23 	stmdbcs	ip, {r0, r1, r5, sl, fp}
     3b0:	02000003 	andeq	r0, r0, #3
     3b4:	00002c32 	andeq	r2, r0, r2, lsr ip
     3b8:	10230200 	eorne	r0, r3, r0, lsl #4
     3bc:	0002920c 	andeq	r9, r2, ip, lsl #4
     3c0:	45330200 	ldrmi	r0, [r3, #-512]!	; 0x200
     3c4:	02000001 	andeq	r0, r0, #1
     3c8:	a80c1423 	stmdage	ip, {r0, r1, r5, sl, ip}
     3cc:	02000001 	andeq	r0, r0, #1
     3d0:	00002c34 	andeq	r2, r0, r4, lsr ip
     3d4:	ac230300 	stcge	3, cr0, [r3], #-0
     3d8:	04070003 	streq	r0, [r7], #-3
     3dc:	00000140 	andeq	r0, r0, r0, asr #2
     3e0:	00002c0d 	andeq	r2, r0, sp, lsl #24
     3e4:	00a00e00 	adceq	r0, r0, r0, lsl #28
     3e8:	01550000 	cmpeq	r5, r0
     3ec:	370f0000 	strcc	r0, [pc, -r0]
     3f0:	65000000 	strvs	r0, [r0, #-0]
     3f4:	017b1000 	cmneq	fp, r0
     3f8:	15010000 	strne	r0, [r1, #-0]
     3fc:	00002c01 	andeq	r2, r0, r1, lsl #24
     400:	00022400 	andeq	r2, r2, r0, lsl #8
     404:	00025040 	andeq	r5, r2, r0, asr #32
     408:	00010840 	andeq	r0, r1, r0, asr #16
     40c:	00018a00 	andeq	r8, r1, r0, lsl #20
     410:	02301100 	eorseq	r1, r0, #0
     414:	023c4000 	eorseq	r4, ip, #0
     418:	d3124000 	tstle	r2, #0
     41c:	01000005 	tsteq	r0, r5
     420:	00002c17 	andeq	r2, r0, r7, lsl ip
     424:	74910200 	ldrvc	r0, [r1], #512	; 0x200
     428:	3a130000 	bcc	4c0430 <GUEST_OFFSET-0x3fb3fbd0>
     42c:	02000003 	andeq	r0, r0, #3
     430:	02500139 	subseq	r0, r0, #1073741838	; 0x4000000e
     434:	038c4000 	orreq	r4, ip, #0
     438:	01344000 	teqeq	r4, r0
     43c:	01b10000 			; <UNDEFINED> instruction: 0x01b10000
     440:	9b120000 	blls	480448 <GUEST_OFFSET-0x3fb7fbb8>
     444:	02000002 	andeq	r0, r0, #2
     448:	0001b13b 	andeq	fp, r1, fp, lsr r1
     44c:	74910200 	ldrvc	r0, [r1], #512	; 0x200
     450:	b7040700 	strlt	r0, [r4, -r0, lsl #14]
     454:	0d000001 	stceq	0, cr0, [r0, #-4]
     458:	0000004c 	andeq	r0, r0, ip, asr #32
     45c:	0001ee13 	andeq	lr, r1, r3, lsl lr
     460:	014f0200 	mrseq	r0, (UNDEF: 111)
     464:	4000038c 	andmi	r0, r0, ip, lsl #7
     468:	400005d8 	ldrdmi	r0, [r0], -r8
     46c:	00000160 	andeq	r0, r0, r0, ror #2
     470:	00000214 	andeq	r0, r0, r4, lsl r2
     474:	0002a212 	andeq	sl, r2, r2, lsl r2
     478:	2c510200 	lfmcs	f0, 2, [r1], {-0}
     47c:	02000000 	andeq	r0, r0, #0
     480:	98146891 	ldmdals	r4, {r0, r4, r7, fp, sp, lr}
     484:	a4400003 	strbge	r0, [r0], #-3
     488:	fe400003 	cdp2	0, 4, cr0, cr0, cr3, {0}
     48c:	12000001 	andne	r0, r0, #1
     490:	000005d3 	ldrdeq	r0, [r0], -r3
     494:	002c5302 	eoreq	r5, ip, r2, lsl #6
     498:	91020000 	mrsls	r0, (UNDEF: 2)
     49c:	e011006c 	ands	r0, r1, ip, rrx
     4a0:	d0400003 	suble	r0, r0, r3
     4a4:	15400005 	strbne	r0, [r0, #-5]
     4a8:	00000193 	muleq	r0, r3, r1
     4ac:	002c5802 	eoreq	r5, ip, r2, lsl #16
     4b0:	00000000 	andeq	r0, r0, r0
     4b4:	00026010 	andeq	r6, r2, r0, lsl r0
     4b8:	017d0200 	cmneq	sp, r0, lsl #4
     4bc:	00000095 	muleq	r0, r5, r0
     4c0:	400005d8 	ldrdmi	r0, [r0], -r8
     4c4:	400006e4 	andmi	r0, r0, r4, ror #13
     4c8:	0000018c 	andeq	r0, r0, ip, lsl #3
     4cc:	00000273 	andeq	r0, r0, r3, ror r2
     4d0:	00025016 	andeq	r5, r2, r6, lsl r0
     4d4:	737d0200 	cmnvc	sp, #0
     4d8:	02000002 	andeq	r0, r0, #2
     4dc:	a2125c91 	andsge	r5, r2, #37120	; 0x9100
     4e0:	02000002 	andeq	r0, r0, #2
     4e4:	00002c7f 	andeq	r2, r0, pc, ror ip
     4e8:	64910200 	ldrvs	r0, [r1], #512	; 0x200
     4ec:	00018c12 	andeq	r8, r1, r2, lsl ip
     4f0:	95800200 	strls	r0, [r0, #512]	; 0x200
     4f4:	02000000 	andeq	r0, r0, #0
     4f8:	f0116c91 			; <UNDEFINED> instruction: 0xf0116c91
     4fc:	fc400005 	mcrr2	0, 0, r0, r0, cr5
     500:	12400005 	subne	r0, r0, #5
     504:	000005d3 	ldrdeq	r0, [r0], -r3
     508:	002c8202 	eoreq	r8, ip, r2, lsl #4
     50c:	91020000 	mrsls	r0, (UNDEF: 2)
     510:	07000068 	streq	r0, [r0, -r8, rrx]
     514:	00002c04 	andeq	r2, r0, r4, lsl #24
     518:	99011700 	stmdbls	r1, {r8, r9, sl, ip}
     51c:	02000001 	andeq	r0, r0, #1
     520:	0095019e 	umullseq	r0, r5, lr, r1
     524:	06e40000 	strbteq	r0, [r4], r0
     528:	073c4000 	ldreq	r4, [ip, -r0]!
     52c:	01b84000 			; <UNDEFINED> instruction: 0x01b84000
     530:	02a50000 	adceq	r0, r5, #0
     534:	69180000 	ldmdbvs	r8, {}	; <UNPREDICTABLE>
     538:	02007172 	andeq	r7, r0, #-2147483620	; 0x8000001c
     53c:	00002c9e 	muleq	r0, lr, ip
     540:	74910200 	ldrvc	r0, [r1], #512	; 0x200
     544:	ca011700 	bgt	4614c <GUEST_OFFSET-0x3ffb9eb4>
     548:	02000001 	andeq	r0, r0, #1
     54c:	009501a4 	addseq	r0, r5, r4, lsr #3
     550:	073c0000 	ldreq	r0, [ip, -r0]!
     554:	07944000 	ldreq	r4, [r4, r0]
     558:	01e44000 	mvneq	r4, r0
     55c:	02d10000 	sbcseq	r0, r1, #0
     560:	69180000 	ldmdbvs	r8, {}	; <UNPREDICTABLE>
     564:	02007172 	andeq	r7, r0, #-2147483620	; 0x8000001c
     568:	00002ca4 	andeq	r2, r0, r4, lsr #25
     56c:	74910200 	ldrvc	r0, [r1], #512	; 0x200
     570:	cc011700 	stcgt	7, cr1, [r1], {-0}
     574:	02000002 	andeq	r0, r0, #2
     578:	009501aa 	addseq	r0, r5, sl, lsr #3
     57c:	07940000 	ldreq	r0, [r4, r0]
     580:	08044000 	stmdaeq	r4, {lr}
     584:	02104000 	andseq	r4, r0, #0
     588:	03270000 	teqeq	r7, #0
     58c:	69180000 	ldmdbvs	r8, {}	; <UNPREDICTABLE>
     590:	02007172 	andeq	r7, r0, #-2147483620	; 0x8000001c
     594:	000025aa 	andeq	r2, r0, sl, lsr #11
     598:	6c910200 	lfmvs	f0, 4, [r1], {0}
     59c:	0006b316 	andeq	fp, r6, r6, lsl r3
     5a0:	a0aa0200 	adcge	r0, sl, r0, lsl #4
     5a4:	02000000 	andeq	r0, r0, #0
     5a8:	75166891 	ldrvc	r6, [r6, #-2193]	; 0x891
     5ac:	02000001 	andeq	r0, r0, #1
     5b0:	0000c7ab 	andeq	ip, r0, fp, lsr #15
     5b4:	64910200 	ldrvs	r0, [r1], #512	; 0x200
     5b8:	00018c12 	andeq	r8, r1, r2, lsl ip
     5bc:	95ad0200 	strls	r0, [sp, #512]!	; 0x200
     5c0:	02000000 	andeq	r0, r0, #0
     5c4:	17007491 			; <UNDEFINED> instruction: 0x17007491
     5c8:	00024701 	andeq	r4, r2, r1, lsl #14
     5cc:	01b50200 			; <UNDEFINED> instruction: 0x01b50200
     5d0:	00000095 	muleq	r0, r5, r0
     5d4:	40000804 	andmi	r0, r0, r4, lsl #16
     5d8:	40000954 	andmi	r0, r0, r4, asr r9
     5dc:	0000023c 	andeq	r0, r0, ip, lsr r2
     5e0:	0000035f 	andeq	r0, r0, pc, asr r3
     5e4:	00018c12 	andeq	r8, r1, r2, lsl ip
     5e8:	95b70200 	ldrls	r0, [r7, #512]!	; 0x200
     5ec:	02000000 	andeq	r0, r0, #0
     5f0:	69197091 	ldmdbvs	r9, {r0, r4, r7, ip, sp, lr}
     5f4:	25b80200 	ldrcs	r0, [r8, #512]!	; 0x200
     5f8:	02000000 	andeq	r0, r0, #0
     5fc:	1a007491 	bne	1d848 <GUEST_OFFSET-0x3ffe27b8>
     600:	00014b01 	andeq	r4, r1, r1, lsl #22
     604:	01d00200 	bicseq	r0, r0, r0, lsl #4
     608:	40000954 	andmi	r0, r0, r4, asr r9
     60c:	40000ab4 			; <UNDEFINED> instruction: 0x40000ab4
     610:	00000268 	andeq	r0, r0, r8, ror #4
     614:	000003d3 	ldrdeq	r0, [r0], -r3
     618:	71696618 	cmnvc	r9, r8, lsl r6
     61c:	25d00200 	ldrbcs	r0, [r0, #512]	; 0x200
     620:	02000000 	andeq	r0, r0, #0
     624:	23166491 	tstcs	r6, #-1862270976	; 0x91000000
     628:	02000003 	andeq	r0, r0, #3
     62c:	0000c7d0 	ldrdeq	ip, [r0], -r0
     630:	60910200 	addsvs	r0, r1, r0, lsl #4
     634:	72616919 	rsbvc	r6, r1, #409600	; 0x64000
     638:	2cd70200 	lfmcs	f0, 2, [r7], {0}
     63c:	02000000 	andeq	r0, r0, #0
     640:	69196c91 	ldmdbvs	r9, {r0, r4, r7, sl, fp, sp, lr}
     644:	02007172 	andeq	r7, r0, #-2147483620	; 0x8000001c
     648:	00002cd8 	ldrdeq	r2, [r0], -r8
     64c:	68910200 	ldmvs	r1, {r9}
     650:	0001351b 	andeq	r3, r1, fp, lsl r5
     654:	3a120100 	bcc	480a5c <GUEST_OFFSET-0x3fb7f5a4>
     658:	02000001 	andeq	r0, r0, #1
     65c:	0003d3d9 	ldrdeq	sp, [r3], -r9
     660:	74910200 	ldrvc	r0, [r1], #512	; 0x200
     664:	75706319 	ldrbvc	r6, [r0, #-793]!	; 0x319
     668:	2cdb0200 	lfmcs	f0, 2, [fp], {0}
     66c:	02000000 	andeq	r0, r0, #0
     670:	07007091 			; <UNDEFINED> instruction: 0x07007091
     674:	0003b004 	andeq	fp, r3, r4
     678:	021e1200 	andseq	r1, lr, #0
     67c:	37020000 	strcc	r0, [r2, -r0]
     680:	000000c9 	andeq	r0, r0, r9, asr #1
     684:	20600305 	rsbcs	r0, r0, r5, lsl #6
     688:	de004000 	cdple	0, 0, cr4, cr0, cr0, {0}
     68c:	02000000 	andeq	r0, r0, #0
     690:	0002eb00 	andeq	lr, r2, r0, lsl #22
     694:	40010400 	andmi	r0, r1, r0, lsl #8
     698:	01000000 	mrseq	r0, (UNDEF: 0)
     69c:	00000372 	andeq	r0, r0, r2, ror r3
     6a0:	0000005a 	andeq	r0, r0, sl, asr r0
     6a4:	40000ab4 			; <UNDEFINED> instruction: 0x40000ab4
     6a8:	40000c28 	andmi	r0, r0, r8, lsr #24
     6ac:	000002b0 			; <UNDEFINED> instruction: 0x000002b0
     6b0:	69050402 	stmdbvs	r5, {r1, sl}
     6b4:	0300746e 	movweq	r7, #1134	; 0x46e
     6b8:	0000031a 	andeq	r0, r0, sl, lsl r3
     6bc:	00370502 	eorseq	r0, r7, r2, lsl #10
     6c0:	04040000 	streq	r0, [r4], #-0
     6c4:	00002c07 	andeq	r2, r0, r7, lsl #24
     6c8:	07020400 	streq	r0, [r2, -r0, lsl #8]
     6cc:	00000000 	andeq	r0, r0, r0
     6d0:	22070804 	andcs	r0, r7, #262144	; 0x40000
     6d4:	04000000 	streq	r0, [r0], #-0
     6d8:	004c0801 	subeq	r0, ip, r1, lsl #16
     6dc:	01050000 	mrseq	r0, (UNDEF: 5)
     6e0:	0000035b 	andeq	r0, r0, fp, asr r3
     6e4:	0ab40a01 	beq	fed02ef0 <guest_stacklimit+0xaed02ef0>
     6e8:	0c284000 	stceq	0, cr4, [r8], #-0
     6ec:	02944000 	addseq	r4, r4, #0
     6f0:	00d60000 	sbcseq	r0, r6, r0
     6f4:	53060000 	movwpl	r0, #24576	; 0x6000
     6f8:	01000002 	tsteq	r0, r2
     6fc:	0000d60c 	andeq	sp, r0, ip, lsl #12
     700:	70910200 	addsvc	r0, r1, r0, lsl #4
     704:	00036c06 	andeq	r6, r3, r6, lsl #24
     708:	d60d0100 	strle	r0, [sp], -r0, lsl #2
     70c:	02000000 	andeq	r0, r0, #0
     710:	4f066c91 	svcmi	0x00066c91
     714:	01000003 	tsteq	r0, r3
     718:	0000d60e 	andeq	sp, r0, lr, lsl #12
     71c:	68910200 	ldmvs	r1, {r9}
     720:	00035506 	andeq	r5, r3, r6, lsl #10
     724:	d60f0100 	strle	r0, [pc], -r0, lsl #2
     728:	02000000 	andeq	r0, r0, #0
     72c:	69076491 	stmdbvs	r7, {r0, r4, r7, sl, sp, lr}
     730:	25100100 	ldrcs	r0, [r0, #-256]	; 0x100
     734:	02000000 	andeq	r0, r0, #0
     738:	76077491 			; <UNDEFINED> instruction: 0x76077491
     73c:	11010031 	tstne	r1, r1, lsr r0
     740:	00000025 	andeq	r0, r0, r5, lsr #32
     744:	07609102 	strbeq	r9, [r0, -r2, lsl #2]!
     748:	01003276 	tsteq	r0, r6, ror r2
     74c:	00002511 	andeq	r2, r0, r1, lsl r5
     750:	5c910200 	lfmpl	f0, 4, [r1], {0}
     754:	01007207 	tsteq	r0, r7, lsl #4
     758:	00002511 	andeq	r2, r0, r1, lsl r5
     75c:	58910200 	ldmpl	r1, {r9}
     760:	dc040800 	stcle	8, cr0, [r4], {-0}
     764:	09000000 	stmdbeq	r0, {}	; <UNPREDICTABLE>
     768:	0000002c 	andeq	r0, r0, ip, lsr #32
     76c:	00009500 	andeq	r9, r0, r0, lsl #10
     770:	65000200 	strvs	r0, [r0, #-512]	; 0x200
     774:	04000003 	streq	r0, [r0], #-3
     778:	00004001 	andeq	r4, r0, r1
     77c:	03af0100 			; <UNDEFINED> instruction: 0x03af0100
     780:	005a0000 	subseq	r0, sl, r0
     784:	0c280000 	stceq	0, cr0, [r8], #-0
     788:	0c584000 	mraeq	r4, r8, acc0
     78c:	03614000 	cmneq	r1, #0
     790:	04020000 	streq	r0, [r2], #-0
     794:	746e6905 	strbtvc	r6, [lr], #-2309	; 0x905
     798:	031a0300 	tsteq	sl, #0
     79c:	05020000 	streq	r0, [r2, #-0]
     7a0:	00000037 	andeq	r0, r0, r7, lsr r0
     7a4:	2c070404 	cfstrscs	mvf0, [r7], {4}
     7a8:	04000000 	streq	r0, [r0], #-0
     7ac:	00000702 	andeq	r0, r0, r2, lsl #14
     7b0:	08040000 	stmdaeq	r4, {}	; <UNPREDICTABLE>
     7b4:	00002207 	andeq	r2, r0, r7, lsl #4
     7b8:	08010400 	stmdaeq	r1, {sl}
     7bc:	0000004c 	andeq	r0, r0, ip, asr #32
     7c0:	03a30105 			; <UNDEFINED> instruction: 0x03a30105
     7c4:	08010000 	stmdaeq	r1, {}	; <UNPREDICTABLE>
     7c8:	000c2801 	andeq	r2, ip, r1, lsl #16
     7cc:	000c5840 	andeq	r5, ip, r0, asr #16
     7d0:	0002c040 	andeq	ip, r2, r0, asr #32
     7d4:	00007b00 	andeq	r7, r0, r0, lsl #22
     7d8:	01930600 	orrseq	r0, r3, r0, lsl #12
     7dc:	08010000 	stmdaeq	r1, {}	; <UNPREDICTABLE>
     7e0:	0000002c 	andeq	r0, r0, ip, lsr #32
     7e4:	00749102 	rsbseq	r9, r4, r2, lsl #2
     7e8:	00025307 	andeq	r5, r2, r7, lsl #6
     7ec:	8d060100 	stfhis	f0, [r6, #-0]
     7f0:	01000000 	mrseq	r0, (UNDEF: 0)
     7f4:	205c0305 	subscs	r0, ip, r5, lsl #6
     7f8:	04084000 	streq	r4, [r8], #-0
     7fc:	00000093 	muleq	r0, r3, r0
     800:	00002c09 	andeq	r2, r0, r9, lsl #24
     804:	05520000 	ldrbeq	r0, [r2, #-0]
     808:	00020000 	andeq	r0, r2, r0
     80c:	000003e3 	andeq	r0, r0, r3, ror #7
     810:	00400104 	subeq	r0, r0, r4, lsl #2
     814:	9b010000 	blls	4081c <GUEST_OFFSET-0x3ffbf7e4>
     818:	5a000004 	bpl	830 <GUEST_OFFSET-0x3ffff7d0>
     81c:	58000000 	stmdapl	r0, {}	; <UNPREDICTABLE>
     820:	5440000c 	strbpl	r0, [r0], #-12
     824:	e7400017 	smlald	r0, r0, r7, r0	; <UNPREDICTABLE>
     828:	02000003 	andeq	r0, r0, #3
     82c:	000003e1 	andeq	r0, r0, r1, ror #7
     830:	0030d403 	eorseq	sp, r0, r3, lsl #8
     834:	04030000 	streq	r0, [r3], #-0
     838:	00002c07 	andeq	r2, r0, r7, lsl #24
     83c:	07020300 	streq	r0, [r2, -r0, lsl #6]
     840:	00000000 	andeq	r0, r0, r0
     844:	69050404 	stmdbvs	r5, {r2, sl}
     848:	0500746e 	streq	r7, [r0, #-1134]	; 0x46e
     84c:	00004b04 	andeq	r4, r0, r4, lsl #22
     850:	00500600 	subseq	r0, r0, r0, lsl #12
     854:	01030000 	mrseq	r0, (UNDEF: 3)
     858:	00005508 	andeq	r5, r0, r8, lsl #10
     85c:	04380700 	ldrteq	r0, [r8], #-1792	; 0x700
     860:	03010000 	movweq	r0, #4096	; 0x1000
     864:	0000b601 	andeq	fp, r0, r1, lsl #12
     868:	000c5800 	andeq	r5, ip, r0, lsl #16
     86c:	000ce840 	andeq	lr, ip, r0, asr #16
     870:	0002ec40 	andeq	lr, r2, r0, asr #24
     874:	0000b600 	andeq	fp, r0, r0, lsl #12
     878:	03f70800 	mvnseq	r0, #0
     87c:	03010000 	movweq	r0, #4096	; 0x1000
     880:	000000b6 	strheq	r0, [r0], -r6
     884:	086c9102 	stmdaeq	ip!, {r1, r8, ip, pc}^
     888:	000003db 	ldrdeq	r0, [r0], -fp
     88c:	00b80301 	adcseq	r0, r8, r1, lsl #6
     890:	91020000 	mrsls	r0, (UNDEF: 2)
     894:	5f5f0968 	svcpl	0x005f0968
     898:	0301006e 	movweq	r0, #4206	; 0x106e
     89c:	00000025 	andeq	r0, r0, r5, lsr #32
     8a0:	0a649102 	beq	1924cb0 <GUEST_OFFSET-0x3e6db350>
     8a4:	05010064 	streq	r0, [r1, #-100]	; 0x64
     8a8:	000000bf 	strheq	r0, [r0], -pc	; <UNPREDICTABLE>
     8ac:	0a749102 	beq	1d24cbc <GUEST_OFFSET-0x3e2db344>
     8b0:	05010073 	streq	r0, [r1, #-115]	; 0x73
     8b4:	000000bf 	strheq	r0, [r0], -pc	; <UNPREDICTABLE>
     8b8:	00709102 	rsbseq	r9, r0, r2, lsl #2
     8bc:	0405040b 	streq	r0, [r5], #-1035	; 0x40b
     8c0:	000000be 	strheq	r0, [r0], -lr
     8c4:	c504050c 	strgt	r0, [r4, #-1292]	; 0x50c
     8c8:	03000000 	movweq	r0, #0
     8cc:	004c0801 	subeq	r0, ip, r1, lsl #16
     8d0:	72070000 	andvc	r0, r7, #0
     8d4:	01000004 	tsteq	r0, r4
     8d8:	00b6010c 	adcseq	r0, r6, ip, lsl #2
     8dc:	0ce80000 	stcleq	0, cr0, [r8]
     8e0:	0d904000 	ldceq	0, cr4, [r0]
     8e4:	03184000 	tsteq	r8, #0
     8e8:	012b0000 	teqeq	fp, r0
     8ec:	f7080000 			; <UNDEFINED> instruction: 0xf7080000
     8f0:	01000003 	tsteq	r0, r3
     8f4:	0000b60c 	andeq	fp, r0, ip, lsl #12
     8f8:	6c910200 	lfmvs	f0, 4, [r1], {0}
     8fc:	0003db08 	andeq	sp, r3, r8, lsl #22
     900:	b80c0100 	stmdalt	ip, {r8}
     904:	02000000 	andeq	r0, r0, #0
     908:	5f096891 	svcpl	0x00096891
     90c:	01006e5f 	tsteq	r0, pc, asr lr
     910:	0000250c 	andeq	r2, r0, ip, lsl #10
     914:	64910200 	ldrvs	r0, [r1], #512	; 0x200
     918:	0100640a 	tsteq	r0, sl, lsl #8
     91c:	0000bf0e 	andeq	fp, r0, lr, lsl #30
     920:	74910200 	ldrvc	r0, [r1], #512	; 0x200
     924:	0100730a 	tsteq	r0, sl, lsl #6
     928:	0000bf0e 	andeq	fp, r0, lr, lsl #30
     92c:	70910200 	addsvc	r0, r1, r0, lsl #4
     930:	86010d00 	strhi	r0, [r1], -r0, lsl #26
     934:	02000004 	andeq	r0, r0, #4
     938:	00b6012c 	adcseq	r0, r6, ip, lsr #2
     93c:	0d900000 	ldceq	0, cr0, [r0]
     940:	0dc84000 	stcleq	0, cr4, [r8]
     944:	03444000 	movteq	r4, #16384	; 0x4000
     948:	01730000 	cmneq	r3, r0
     94c:	f7080000 			; <UNDEFINED> instruction: 0xf7080000
     950:	01000003 	tsteq	r0, r3
     954:	0000b616 	andeq	fp, r0, r6, lsl r6
     958:	74910200 	ldrvc	r0, [r1], #512	; 0x200
     95c:	0003db08 	andeq	sp, r3, r8, lsl #22
     960:	b8160100 	ldmdalt	r6, {r8}
     964:	02000000 	andeq	r0, r0, #0
     968:	5f097091 	svcpl	0x00097091
     96c:	01006e5f 	tsteq	r0, pc, asr lr
     970:	00002516 	andeq	r2, r0, r6, lsl r5
     974:	6c910200 	lfmvs	f0, 4, [r1], {0}
     978:	ef010d00 	svc	0x00010d00
     97c:	02000003 	andeq	r0, r0, #3
     980:	00b60131 	adcseq	r0, r6, r1, lsr r1
     984:	0dc80000 	stcleq	0, cr0, [r8]
     988:	0e284000 	cdpeq	0, 2, cr4, cr8, cr0, {0}
     98c:	03704000 	cmneq	r0, #0
     990:	01bb0000 			; <UNDEFINED> instruction: 0x01bb0000
     994:	f7080000 			; <UNDEFINED> instruction: 0xf7080000
     998:	01000003 	tsteq	r0, r3
     99c:	0000b61b 	andeq	fp, r0, fp, lsl r6
     9a0:	74910200 	ldrvc	r0, [r1], #512	; 0x200
     9a4:	0003db08 	andeq	sp, r3, r8, lsl #22
     9a8:	b81b0100 	ldmdalt	fp, {r8}
     9ac:	02000000 	andeq	r0, r0, #0
     9b0:	5f097091 	svcpl	0x00097091
     9b4:	01006e5f 	tsteq	r0, pc, asr lr
     9b8:	0000251b 	andeq	r2, r0, fp, lsl r5
     9bc:	6c910200 	lfmvs	f0, 4, [r1], {0}
     9c0:	fe010d00 	cdp2	13, 0, cr0, cr1, cr0, {0}
     9c4:	02000003 	andeq	r0, r0, #3
     9c8:	00b6015f 	adcseq	r0, r6, pc, asr r1
     9cc:	0e280000 	cdpeq	0, 2, cr0, cr8, cr0, {0}
     9d0:	0eb04000 	cdpeq	0, 11, cr4, cr0, cr0, {0}
     9d4:	039c4000 	orrseq	r4, ip, #0
     9d8:	020a0000 	andeq	r0, sl, #0
     9dc:	73090000 	movwvc	r0, #36864	; 0x9000
     9e0:	b8230100 	stmdalt	r3!, {r8}
     9e4:	02000000 	andeq	r0, r0, #0
     9e8:	63096c91 	movwvs	r6, #40081	; 0x9c91
     9ec:	3e230100 	sufccs	f0, f3, f0
     9f0:	02000000 	andeq	r0, r0, #0
     9f4:	6e096891 	mcrvs	8, 0, r6, cr9, cr1, {4}
     9f8:	25230100 	strcs	r0, [r3, #-256]!	; 0x100
     9fc:	02000000 	andeq	r0, r0, #0
     a00:	5f0a6491 	svcpl	0x000a6491
     a04:	25010073 	strcs	r0, [r1, #-115]	; 0x73
     a08:	0000020a 	andeq	r0, r0, sl, lsl #4
     a0c:	00749102 	rsbseq	r9, r4, r2, lsl #2
     a10:	02100405 	andseq	r0, r0, #83886080	; 0x5000000
     a14:	c5060000 	strgt	r0, [r6, #-0]
     a18:	0e000000 	cdpeq	0, 0, cr0, cr0, cr0, {0}
     a1c:	00040c01 	andeq	r0, r4, r1, lsl #24
     a20:	018f0200 	orreq	r0, pc, r0, lsl #4
     a24:	00002501 	andeq	r2, r0, r1, lsl #10
     a28:	000eb000 	andeq	fp, lr, r0
     a2c:	000f0440 	andeq	r0, pc, r0, asr #8
     a30:	0003c840 	andeq	ip, r3, r0, asr #16
     a34:	00024d00 	andeq	r4, r2, r0, lsl #26
     a38:	00730900 	rsbseq	r0, r3, r0, lsl #18
     a3c:	00453001 	subeq	r3, r5, r1
     a40:	91020000 	mrsls	r0, (UNDEF: 2)
     a44:	63730a6c 	cmnvs	r3, #442368	; 0x6c000
     a48:	45320100 	ldrmi	r0, [r2, #-256]!	; 0x100
     a4c:	02000000 	andeq	r0, r0, #0
     a50:	0d007491 	cfstrseq	mvf7, [r0, #-580]	; 0xfffffdbc
     a54:	00043101 	andeq	r3, r4, r1, lsl #2
     a58:	01410200 	mrseq	r0, (UNDEF: 97)
     a5c:	000000b6 	strheq	r0, [r0], -r6
     a60:	40000f04 	andmi	r0, r0, r4, lsl #30
     a64:	40000f80 	andmi	r0, r0, r0, lsl #31
     a68:	000003f4 	strdeq	r0, [r0], -r4
     a6c:	0000029e 	muleq	r0, lr, r2
     a70:	01007309 	tsteq	r0, r9, lsl #6
     a74:	0000b638 	andeq	fp, r0, r8, lsr r6
     a78:	6c910200 	lfmvs	f0, 4, [r1], {0}
     a7c:	01006309 	tsteq	r0, r9, lsl #6
     a80:	00003e38 	andeq	r3, r0, r8, lsr lr
     a84:	68910200 	ldmvs	r1, {r9}
     a88:	00049508 	andeq	r9, r4, r8, lsl #10
     a8c:	25380100 	ldrcs	r0, [r8, #-256]!	; 0x100
     a90:	02000000 	andeq	r0, r0, #0
     a94:	780a6491 	stmdavc	sl, {r0, r4, r7, sl, sp, lr}
     a98:	3a010073 	bcc	40c6c <GUEST_OFFSET-0x3ffbf394>
     a9c:	0000029e 	muleq	r0, lr, r2
     aa0:	00749102 	rsbseq	r9, r4, r2, lsl #2
     aa4:	00500405 	subseq	r0, r0, r5, lsl #8
     aa8:	010d0000 	mrseq	r0, (UNDEF: 13)
     aac:	000003e8 	andeq	r0, r0, r8, ror #7
     ab0:	3e014402 	cdpcc	4, 0, cr4, cr1, cr2, {0}
     ab4:	80000000 	andhi	r0, r0, r0
     ab8:	4040000f 	submi	r0, r0, pc
     abc:	20400010 	subcs	r0, r0, r0, lsl r0
     ac0:	04000004 	streq	r0, [r0], #-4
     ac4:	09000003 	stmdbeq	r0, {r0, r1}
     ac8:	01003170 	tsteq	r0, r0, ror r1
     acc:	0000b840 	andeq	fp, r0, r0, asr #16
     ad0:	6c910200 	lfmvs	f0, 4, [r1], {0}
     ad4:	00327009 	eorseq	r7, r2, r9
     ad8:	00b84001 	adcseq	r4, r8, r1
     adc:	91020000 	mrsls	r0, (UNDEF: 2)
     ae0:	006e0968 	rsbeq	r0, lr, r8, ror #18
     ae4:	00254001 	eoreq	r4, r5, r1
     ae8:	91020000 	mrsls	r0, (UNDEF: 2)
     aec:	705f0a64 	subsvc	r0, pc, r4, ror #20
     af0:	42010031 	andmi	r0, r1, #49	; 0x31
     af4:	0000020a 	andeq	r0, r0, sl, lsl #4
     af8:	0a749102 	beq	1d24f08 <GUEST_OFFSET-0x3e2db0f8>
     afc:	0032705f 	eorseq	r7, r2, pc, asr r0
     b00:	020a4301 	andeq	r4, sl, #67108864	; 0x4000000
     b04:	91020000 	mrsls	r0, (UNDEF: 2)
     b08:	010d0070 	tsteq	sp, r0, ror r0
     b0c:	0000047f 	andeq	r0, r0, pc, ror r4
     b10:	3e018f02 	cdpcc	15, 0, cr8, cr1, cr2, {0}
     b14:	40000000 	andmi	r0, r0, r0
     b18:	24400010 	strbcs	r0, [r0], #-16
     b1c:	4c400011 	mcrrmi	0, 1, r0, r0, cr1
     b20:	3c000004 	stccc	0, cr0, [r0], {4}
     b24:	09000003 	stmdbeq	r0, {r0, r1}
     b28:	01003173 	tsteq	r0, r3, ror r1
     b2c:	00004550 	andeq	r4, r0, r0, asr r5
     b30:	74910200 	ldrvc	r0, [r1], #512	; 0x200
     b34:	00327309 	eorseq	r7, r2, r9, lsl #6
     b38:	00455001 	subeq	r5, r5, r1
     b3c:	91020000 	mrsls	r0, (UNDEF: 2)
     b40:	010d0070 	tsteq	sp, r0, ror r0
     b44:	0000048d 	andeq	r0, r0, sp, lsl #9
     b48:	3e019202 	cdpcc	2, 0, cr9, cr1, cr2, {0}
     b4c:	24000000 	strcs	r0, [r0], #-0
     b50:	40400011 	submi	r0, r0, r1, lsl r0
     b54:	78400012 	stmdavc	r0, {r1, r4}^
     b58:	80000004 	andhi	r0, r0, r4
     b5c:	09000003 	stmdbeq	r0, {r0, r1}
     b60:	01003173 	tsteq	r0, r3, ror r1
     b64:	00004563 	andeq	r4, r0, r3, ror #10
     b68:	74910200 	ldrvc	r0, [r1], #512	; 0x200
     b6c:	00327309 	eorseq	r7, r2, r9, lsl #6
     b70:	00456301 	subeq	r6, r5, r1, lsl #6
     b74:	91020000 	mrsls	r0, (UNDEF: 2)
     b78:	006e0970 	rsbeq	r0, lr, r0, ror r9
     b7c:	00256301 	eoreq	r6, r5, r1, lsl #6
     b80:	91020000 	mrsls	r0, (UNDEF: 2)
     b84:	010d006c 	tsteq	sp, ip, rrx
     b88:	00000405 	andeq	r0, r0, r5, lsl #8
     b8c:	9e01eb02 	vmlals.f64	d14, d1, d2
     b90:	40000002 	andmi	r0, r0, r2
     b94:	c0400012 	subgt	r0, r0, r2, lsl r0
     b98:	a4400012 	strbge	r0, [r0], #-18
     b9c:	c3000004 	movwgt	r0, #4
     ba0:	09000003 	stmdbeq	r0, {r0, r1}
     ba4:	75010073 	strvc	r0, [r1, #-115]	; 0x73
     ba8:	00000045 	andeq	r0, r0, r5, asr #32
     bac:	096c9102 	stmdbeq	ip!, {r1, r8, ip, pc}^
     bb0:	75010063 	strvc	r0, [r1, #-99]	; 0x63
     bb4:	0000003e 	andeq	r0, r0, lr, lsr r0
     bb8:	0a689102 	beq	1a24fc8 <GUEST_OFFSET-0x3e5db038>
     bbc:	0100735f 	tsteq	r0, pc, asr r3
     bc0:	00020a77 	andeq	r0, r2, r7, ror sl
     bc4:	74910200 	ldrvc	r0, [r1], #512	; 0x200
     bc8:	23010d00 	movwcs	r0, #7424	; 0x1d00
     bcc:	02000004 	andeq	r0, r0, #4
     bd0:	029e0180 	addseq	r0, lr, #32
     bd4:	12c00000 	sbcne	r0, r0, #0
     bd8:	134c4000 	movtne	r4, #49152	; 0xc000
     bdc:	04d04000 	ldrbeq	r4, [r0], #0
     be0:	04090000 	streq	r0, [r9], #-0
     be4:	f9080000 			; <UNDEFINED> instruction: 0xf9080000
     be8:	01000003 	tsteq	r0, r3
     bec:	00029e81 	andeq	r9, r2, r1, lsl #29
     bf0:	6c910200 	lfmvs	f0, 4, [r1], {0}
     bf4:	63727309 	cmnvs	r2, #603979776	; 0x24000000
     bf8:	45810100 	strmi	r0, [r1, #256]	; 0x100
     bfc:	02000000 	andeq	r0, r0, #0
     c00:	690a6891 	stmdbvs	sl, {r0, r4, r7, fp, sp, lr}
     c04:	30830100 	addcc	r0, r3, r0, lsl #2
     c08:	02000000 	andeq	r0, r0, #0
     c0c:	0d007491 	cfstrseq	mvf7, [r0, #-580]	; 0xfffffdbc
     c10:	00041301 	andeq	r1, r4, r1, lsl #6
     c14:	018b0100 	orreq	r0, fp, r0, lsl #2
     c18:	00000030 	andeq	r0, r0, r0, lsr r0
     c1c:	4000134c 	andmi	r1, r0, ip, asr #6
     c20:	400014e0 	andmi	r1, r0, r0, ror #9
     c24:	000004fc 	strdeq	r0, [r0], -ip
     c28:	00000451 	andeq	r0, r0, r1, asr r4
     c2c:	63727309 	cmnvs	r2, #603979776	; 0x24000000
     c30:	9e8b0100 	rmflse	f0, f3, f0
     c34:	02000002 	andeq	r0, r0, #2
     c38:	760a6c91 			; <UNDEFINED> instruction: 0x760a6c91
     c3c:	01006c61 	tsteq	r0, r1, ror #24
     c40:	0000308d 	andeq	r3, r0, sp, lsl #1
     c44:	74910200 	ldrvc	r0, [r1], #512	; 0x200
     c48:	736f700a 	cmnvc	pc, #10
     c4c:	3e8e0100 	rmfcce	f0, f6, f0
     c50:	02000000 	andeq	r0, r0, #0
     c54:	0f007091 	svceq	0x00007091
     c58:	00044701 	andeq	r4, r4, r1, lsl #14
     c5c:	01a00100 	lsleq	r0, r0, #2
     c60:	400014e0 	andmi	r1, r0, r0, ror #9
     c64:	400015e0 	andmi	r1, r0, r0, ror #11
     c68:	00000528 	andeq	r0, r0, r8, lsr #10
     c6c:	000004b4 			; <UNDEFINED> instruction: 0x000004b4
     c70:	74736409 	ldrbtvc	r6, [r3], #-1033	; 0x409
     c74:	9ea00100 	fdvlss	f0, f0, f0
     c78:	02000002 	andeq	r0, r0, #2
     c7c:	73096c91 	movwvc	r6, #40081	; 0x9c91
     c80:	01006372 	tsteq	r0, r2, ror r3
     c84:	000030a0 	andeq	r3, r0, r0, lsr #1
     c88:	68910200 	ldmvs	r1, {r9}
     c8c:	6574690a 	ldrbvs	r6, [r4, #-2314]!	; 0x90a
     c90:	3ea20100 	fdvccs	f0, f2, f0
     c94:	02000000 	andeq	r0, r0, #0
     c98:	700a7491 	mulvc	sl, r1, r4
     c9c:	0100736f 	tsteq	r0, pc, ror #6
     ca0:	00003ea2 	andeq	r3, r0, r2, lsr #29
     ca4:	70910200 	addsvc	r0, r1, r0, lsl #4
     ca8:	00045d10 	andeq	r5, r4, r0, lsl sp
     cac:	c4a30100 	strtgt	r0, [r3], #256	; 0x100
     cb0:	05000004 	streq	r0, [r0, #-4]
     cb4:	00201803 	eoreq	r1, r0, r3, lsl #16
     cb8:	50110040 	andspl	r0, r1, r0, asr #32
     cbc:	c4000000 	strgt	r0, [r0], #-0
     cc0:	12000004 	andne	r0, r0, #4
     cc4:	00000030 	andeq	r0, r0, r0, lsr r0
     cc8:	b4060010 	strlt	r0, [r6], #-16
     ccc:	0d000004 	stceq	0, cr0, [r0, #-16]
     cd0:	00042a01 	andeq	r2, r4, r1, lsl #20
     cd4:	01880200 	orreq	r0, r8, r0, lsl #4
     cd8:	0000029e 	muleq	r0, lr, r2
     cdc:	400015e0 	andmi	r1, r0, r0, ror #11
     ce0:	40001670 	andmi	r1, r0, r0, ror r6
     ce4:	00000554 	andeq	r0, r0, r4, asr r5
     ce8:	00000503 	andeq	r0, r0, r3, lsl #10
     cec:	0003f908 	andeq	pc, r3, r8, lsl #18
     cf0:	9eb50100 	frdlss	f0, f5, f0
     cf4:	02000002 	andeq	r0, r0, #2
     cf8:	73097491 	movwvc	r7, #38033	; 0x9491
     cfc:	01006372 	tsteq	r0, r2, ror r3
     d00:	000045b5 			; <UNDEFINED> instruction: 0x000045b5
     d04:	70910200 	addsvc	r0, r1, r0, lsl #4
     d08:	66011300 	strvs	r1, [r1], -r0, lsl #6
     d0c:	01000004 	tsteq	r0, r4
     d10:	003e01c3 	eorseq	r0, lr, r3, asr #3
     d14:	16700000 	ldrbtne	r0, [r0], -r0
     d18:	17544000 	ldrbne	r4, [r4, -r0]
     d1c:	05804000 	streq	r4, [r0]
     d20:	73090000 	movwvc	r0, #36864	; 0x9000
     d24:	01006372 	tsteq	r0, r2, ror r3
     d28:	00029ec3 	andeq	r9, r2, r3, asr #29
     d2c:	64910200 	ldrvs	r0, [r1], #512	; 0x200
     d30:	6c61760a 	stclvs	6, cr7, [r1], #-40	; 0xffffffd8
     d34:	3ec50100 	polccs	f0, f5, f0
     d38:	02000000 	andeq	r0, r0, #0
     d3c:	700a7491 	mulvc	sl, r1, r4
     d40:	0100736f 	tsteq	r0, pc, ror #6
     d44:	00003ec5 	andeq	r3, r0, r5, asr #29
     d48:	70910200 	addsvc	r0, r1, r0, lsl #4
     d4c:	00045710 	andeq	r5, r4, r0, lsl r7
     d50:	3ec50100 	polccs	f0, f5, f0
     d54:	02000000 	andeq	r0, r0, #0
     d58:	00006c91 	muleq	r0, r1, ip
     d5c:	00000099 	muleq	r0, r9, r0
     d60:	04fb0002 	ldrbteq	r0, [fp], #2
     d64:	01040000 	mrseq	r0, (UNDEF: 4)
     d68:	00000607 	andeq	r0, r0, r7, lsl #12
     d6c:	40001760 	andmi	r1, r0, r0, ror #14
     d70:	40001840 	andmi	r1, r0, r0, asr #16
     d74:	2e2f2e2e 	cdpcs	14, 2, cr2, cr15, cr14, {1}
     d78:	2e2e2f2e 	cdpcs	15, 2, cr2, cr14, cr14, {1}
     d7c:	2f2e2e2f 	svccs	0x002e2e2f
     d80:	6d6d6f63 	stclvs	15, cr6, [sp, #-396]!	; 0xfffffe74
     d84:	672f6e6f 	strvs	r6, [pc, -pc, ror #28]!
     d88:	74736575 	ldrbtvc	r6, [r3], #-1397	; 0x575
     d8c:	726f632f 	rsbvc	r6, pc, #-1140850688	; 0xbc000000
     d90:	75672f65 	strbvc	r2, [r7, #-3941]!	; 0xf65
     d94:	2e747365 	cdpcs	3, 7, cr7, cr4, cr5, {3}
     d98:	682f0053 	stmdavs	pc!, {r0, r1, r4, r6}	; <UNPREDICTABLE>
     d9c:	2f656d6f 	svccs	0x00656d6f
     da0:	69736163 	ldmdbvs	r3!, {r0, r1, r5, r6, r8, sp, lr}^
     da4:	6f776e6f 	svcvs	0x00776e6f
     da8:	686b2f6f 	stmdavs	fp!, {r0, r1, r2, r3, r5, r6, r8, r9, sl, fp, sp}^
     dac:	72657079 	rsbvc	r7, r5, #121	; 0x79
     db0:	6f736976 	svcvs	0x00736976
     db4:	6c702f72 	ldclvs	15, cr2, [r0], #-456	; 0xfffffe38
     db8:	6f667461 	svcvs	0x00667461
     dbc:	642d6d72 	strtvs	r6, [sp], #-3442	; 0xd72
     dc0:	63697665 	cmnvs	r9, #105906176	; 0x6500000
     dc4:	6f632f65 	svcvs	0x00632f65
     dc8:	78657472 	stmdavc	r5!, {r1, r4, r5, r6, sl, ip, sp, lr}^
     dcc:	3531615f 	ldrcc	r6, [r1, #-351]!	; 0x15f
     dd0:	615f3278 	cmpvs	pc, r8, ror r2	; <UNPREDICTABLE>
     dd4:	61646e72 	smcvs	18146	; 0x46e2
     dd8:	672f656c 	strvs	r6, [pc, -ip, ror #10]!
     ddc:	74736575 	ldrbtvc	r6, [r3], #-1397	; 0x575
     de0:	622f736f 	eorvs	r7, pc, #-1140850687	; 0xbc000001
     de4:	6575676d 	ldrbvs	r6, [r5, #-1901]!	; 0x76d
     de8:	47007473 	smlsdxmi	r0, r3, r4, r7
     dec:	4120554e 	teqmi	r0, lr, asr #10
     df0:	2e322053 	mrccs	0, 1, r2, cr2, cr3, {2}
     df4:	01003232 	tsteq	r0, r2, lsr r2
     df8:	0002d880 	andeq	sp, r2, r0, lsl #17
     dfc:	0f000200 	svceq	0x00000200
     e00:	04000005 	streq	r0, [r0], #-5
     e04:	00004001 	andeq	r4, r0, r1
     e08:	056b0100 	strbeq	r0, [fp, #-256]!	; 0x100
     e0c:	005a0000 	subseq	r0, sl, r0
     e10:	18400000 	stmdane	r0, {}^	; <UNPREDICTABLE>
     e14:	1a604000 	bne	1810e1c <GUEST_OFFSET-0x3e7ef1e4>
     e18:	06914000 	ldreq	r4, [r1], r0
     e1c:	04020000 	streq	r0, [r2], #-0
     e20:	746e6905 	strbtvc	r6, [lr], #-2309	; 0x905
     e24:	031a0300 	tsteq	sl, #0
     e28:	05020000 	streq	r0, [r2, #-0]
     e2c:	00000037 	andeq	r0, r0, r7, lsr r0
     e30:	2c070404 	cfstrscs	mvf0, [r7], {4}
     e34:	04000000 	streq	r0, [r0], #-0
     e38:	00000702 	andeq	r0, r0, r2, lsl #14
     e3c:	ca030000 	bgt	c0e44 <GUEST_OFFSET-0x3ff3f1bc>
     e40:	02000004 	andeq	r0, r0, #4
     e44:	00005007 	andeq	r5, r0, r7
     e48:	07080400 	streq	r0, [r8, -r0, lsl #8]
     e4c:	00000022 	andeq	r0, r0, r2, lsr #32
     e50:	4c080104 	stfmis	f0, [r8], {4}
     e54:	05000000 	streq	r0, [r0, #-0]
     e58:	0000057a 	andeq	r0, r0, sl, ror r5
     e5c:	811c0302 	tsthi	ip, r2, lsl #6
     e60:	06000000 	streq	r0, [r0], -r0
     e64:	0000054e 	andeq	r0, r0, lr, asr #10
     e68:	003e1d03 	eorseq	r1, lr, r3, lsl #26
     e6c:	93060000 	movwls	r0, #24576	; 0x6000
     e70:	03000001 	movweq	r0, #1
     e74:	0000571e 	andeq	r5, r0, lr, lsl r7
     e78:	0c070000 	stceq	0, cr0, [r7], {-0}
     e7c:	00000005 	andeq	r0, r0, r5
     e80:	03000100 	movweq	r0, #256	; 0x100
     e84:	00016321 	andeq	r6, r1, r1, lsr #6
     e88:	059c0800 	ldreq	r0, [ip, #2048]	; 0x800
     e8c:	22030000 	andcs	r0, r3, #0
     e90:	00000037 	andeq	r0, r0, r7, lsr r0
     e94:	08002302 	stmdaeq	r0, {r1, r8, r9, sp}
     e98:	00000597 	muleq	r0, r7, r5
     e9c:	00372303 	eorseq	r2, r7, r3, lsl #6
     ea0:	23020000 	movwcs	r0, #8192	; 0x2000
     ea4:	05530804 	ldrbeq	r0, [r3, #-2052]	; 0x804
     ea8:	24030000 	strcs	r0, [r3], #-0
     eac:	00000037 	andeq	r0, r0, r7, lsr r0
     eb0:	08082302 	stmdaeq	r8, {r1, r8, r9, sp}
     eb4:	00000565 	andeq	r0, r0, r5, ror #10
     eb8:	00372503 	eorseq	r2, r7, r3, lsl #10
     ebc:	23020000 	movwcs	r0, #8192	; 0x2000
     ec0:	0535080c 	ldreq	r0, [r5, #-2060]!	; 0x80c
     ec4:	26030000 	strcs	r0, [r3], -r0
     ec8:	00000037 	andeq	r0, r0, r7, lsr r0
     ecc:	08102302 	ldmdaeq	r0, {r1, r8, r9, sp}
     ed0:	000004bb 			; <UNDEFINED> instruction: 0x000004bb
     ed4:	00372703 	eorseq	r2, r7, r3, lsl #14
     ed8:	23020000 	movwcs	r0, #8192	; 0x2000
     edc:	05470814 	strbeq	r0, [r7, #-2068]	; 0x814
     ee0:	28030000 	stmdacs	r3, {}	; <UNPREDICTABLE>
     ee4:	00000037 	andeq	r0, r0, r7, lsr r0
     ee8:	08182302 	ldmdaeq	r8, {r1, r8, r9, sp}
     eec:	00000505 	andeq	r0, r0, r5, lsl #10
     ef0:	00372903 	eorseq	r2, r7, r3, lsl #18
     ef4:	23020000 	movwcs	r0, #8192	; 0x2000
     ef8:	0530081c 	ldreq	r0, [r0, #-2076]!	; 0x81c
     efc:	2a030000 	bcs	c0f04 <GUEST_OFFSET-0x3ff3f0fc>
     f00:	00000057 	andeq	r0, r0, r7, asr r0
     f04:	08202302 	stmdaeq	r0!, {r1, r8, r9, sp}
     f08:	000004f5 	strdeq	r0, [r0], -r5
     f0c:	01632b03 	cmneq	r3, r3, lsl #22
     f10:	23020000 	movwcs	r0, #8192	; 0x2000
     f14:	05820821 	streq	r0, [r2, #2081]	; 0x821
     f18:	2c030000 	stccs	0, cr0, [r3], {-0}
     f1c:	00000057 	andeq	r0, r0, r7, asr r0
     f20:	08242302 	stmdaeq	r4!, {r1, r8, r9, sp}
     f24:	0000053d 	andeq	r0, r0, sp, lsr r5
     f28:	01632d03 	cmneq	r3, r3, lsl #26
     f2c:	23020000 	movwcs	r0, #8192	; 0x2000
     f30:	04c30825 	strbeq	r0, [r3], #2085	; 0x825
     f34:	2e030000 	cdpcs	0, 0, cr0, cr3, cr0, {0}
     f38:	00000037 	andeq	r0, r0, r7, lsr r0
     f3c:	08282302 	stmdaeq	r8!, {r1, r8, r9, sp}
     f40:	0000057d 	andeq	r0, r0, sp, ror r5
     f44:	005e2f03 	subseq	r2, lr, r3, lsl #30
     f48:	23020000 	movwcs	r0, #8192	; 0x2000
     f4c:	0542082c 	strbeq	r0, [r2, #-2092]	; 0x82c
     f50:	30030000 	andcc	r0, r3, r0
     f54:	00000173 	andeq	r0, r0, r3, ror r1
     f58:	002e2302 	eoreq	r2, lr, r2, lsl #6
     f5c:	00005709 	andeq	r5, r0, r9, lsl #14
     f60:	00017300 	andeq	r7, r1, r0, lsl #6
     f64:	00370a00 	eorseq	r0, r7, r0, lsl #20
     f68:	00020000 	andeq	r0, r2, r0
     f6c:	00005709 	andeq	r5, r0, r9, lsl #14
     f70:	00018400 	andeq	r8, r1, r0, lsl #8
     f74:	00370b00 	eorseq	r0, r7, r0, lsl #22
     f78:	ffcf0000 			; <UNDEFINED> instruction: 0xffcf0000
     f7c:	04d30c00 	ldrbeq	r0, [r3], #3072	; 0xc00
     f80:	10010000 	andne	r0, r1, r0
     f84:	00002501 	andeq	r2, r0, r1, lsl #10
     f88:	00184000 	andseq	r4, r8, r0
     f8c:	0018a040 	andseq	sl, r8, r0, asr #32
     f90:	0005ac40 	andeq	sl, r5, r0, asr #24
     f94:	0001ca00 	andeq	ip, r1, r0, lsl #20
     f98:	706f0d00 	rsbvc	r0, pc, r0, lsl #26
     f9c:	25100100 	ldrcs	r0, [r0, #-256]	; 0x100
     fa0:	02000000 	andeq	r0, r0, #0
     fa4:	100e6c91 	mulne	lr, r1, ip
     fa8:	01000005 	tsteq	r0, r5
     fac:	0001ca12 	andeq	ip, r1, r2, lsl sl
     fb0:	70910200 	addsvc	r0, r1, r0, lsl #4
     fb4:	0003aa0e 	andeq	sl, r3, lr, lsl #20
     fb8:	37130100 	ldrcc	r0, [r3, -r0, lsl #2]
     fbc:	02000000 	andeq	r0, r0, #0
     fc0:	0f007491 	svceq	0x00007491
     fc4:	000001cf 	andeq	r0, r0, pc, asr #3
     fc8:	00810410 	addeq	r0, r1, r0, lsl r4
     fcc:	01110000 	tsteq	r1, r0
     fd0:	0000058d 	andeq	r0, r0, sp, lsl #11
     fd4:	a0011c01 	andge	r1, r1, r1, lsl #24
     fd8:	24400018 	strbcs	r0, [r0], #-24
     fdc:	d8400019 	stmdale	r0, {r0, r3, r4}^
     fe0:	09000005 	stmdbeq	r0, {r0, r2}
     fe4:	0d000002 	stceq	0, cr0, [r0, #-8]
     fe8:	1c010063 	stcne	0, cr0, [r1], {99}	; 0x63
     fec:	00000209 	andeq	r0, r0, r9, lsl #4
     ff0:	0e6f9102 	lgneqe	f1, f2
     ff4:	00000510 	andeq	r0, r0, r0, lsl r5
     ff8:	01ca1e01 	biceq	r1, sl, r1, lsl #28
     ffc:	91020000 	mrsls	r0, (UNDEF: 2)
    1000:	0e0f0074 	mcreq	0, 0, r0, cr15, cr4, {3}
    1004:	04000002 	streq	r0, [r0], #-2
    1008:	00550801 	subseq	r0, r5, r1, lsl #16
    100c:	01110000 	tsteq	r1, r0
    1010:	000004fa 	strdeq	r0, [r0], -sl
    1014:	24012701 	strcs	r2, [r1], #-1793	; 0x701
    1018:	6c400019 	mcrrvs	0, 1, r0, r0, cr9
    101c:	04400019 	strbeq	r0, [r0], #-25
    1020:	3d000006 	stccc	0, cr0, [r0, #-24]	; 0xffffffe8
    1024:	0d000002 	stceq	0, cr0, [r0, #-8]
    1028:	00727473 	rsbseq	r7, r2, r3, ror r4
    102c:	023d2701 	eorseq	r2, sp, #262144	; 0x40000
    1030:	91020000 	mrsls	r0, (UNDEF: 2)
    1034:	04100074 	ldreq	r0, [r0], #-116	; 0x74
    1038:	00000209 	andeq	r0, r0, r9, lsl #4
    103c:	04e40111 	strbteq	r0, [r4], #273	; 0x111
    1040:	2d010000 	stccs	0, cr0, [r1, #-0]
    1044:	00196c01 	andseq	r6, r9, r1, lsl #24
    1048:	001a1040 	andseq	r1, sl, r0, asr #32
    104c:	00063040 	andeq	r3, r6, r0, asr #32
    1050:	00028f00 	andeq	r8, r2, r0, lsl #30
    1054:	00760d00 	rsbseq	r0, r6, r0, lsl #26
    1058:	002c2d01 	eoreq	r2, ip, r1, lsl #26
    105c:	91020000 	mrsls	r0, (UNDEF: 2)
    1060:	05870e64 	streq	r0, [r7, #3684]	; 0xe64
    1064:	2f010000 	svccs	0x00010000
    1068:	00000037 	andeq	r0, r0, r7, lsr r0
    106c:	126c9102 	rsbne	r9, ip, #-2147483648	; 0x80000000
    1070:	30010063 	andcc	r0, r1, r3, rrx
    1074:	00000037 	andeq	r0, r0, r7, lsr r0
    1078:	12749102 	rsbsne	r9, r4, #-2147483648	; 0x80000000
    107c:	31010069 	tstcc	r1, r9, rrx
    1080:	00000025 	andeq	r0, r0, r5, lsr #32
    1084:	00709102 	rsbseq	r9, r0, r2, lsl #2
    1088:	05150111 	ldreq	r0, [r5, #-273]	; 0x111
    108c:	3d010000 	stccc	0, cr0, [r1, #-0]
    1090:	001a1001 	andseq	r1, sl, r1
    1094:	001a4c40 	andseq	r4, sl, r0, asr #24
    1098:	00065c40 	andeq	r5, r6, r0, asr #24
    109c:	0002b500 	andeq	fp, r2, r0, lsl #10
    10a0:	00760d00 	rsbseq	r0, r6, r0, lsl #26
    10a4:	00453d01 	subeq	r3, r5, r1, lsl #26
    10a8:	91020000 	mrsls	r0, (UNDEF: 2)
    10ac:	01130070 	tsteq	r3, r0, ror r0
    10b0:	00000526 	andeq	r0, r0, r6, lsr #10
    10b4:	4c014301 	stcmi	3, cr4, [r1], {1}
    10b8:	6040001a 	subvs	r0, r0, sl, lsl r0
    10bc:	8840001a 	stmdahi	r0, {r1, r3, r4}^
    10c0:	0e000006 	cdpeq	0, 0, cr0, cr0, cr6, {0}
    10c4:	00000559 	andeq	r0, r0, r9, asr r5
    10c8:	020e0501 	andeq	r0, lr, #4194304	; 0x400000
    10cc:	03050000 	movweq	r0, #20480	; 0x5000
    10d0:	40002210 	andmi	r2, r0, r0, lsl r2
    10d4:	00032900 	andeq	r2, r3, r0, lsl #18
    10d8:	1b000200 	blne	18e0 <GUEST_OFFSET-0x3fffe720>
    10dc:	04000006 	streq	r0, [r0], #-6
    10e0:	00004001 	andeq	r4, r0, r1
    10e4:	05e90100 	strbeq	r0, [r9, #256]!	; 0x100
    10e8:	005a0000 	subseq	r0, sl, r0
    10ec:	1a600000 	bne	18010f4 <GUEST_OFFSET-0x3e7fef0c>
    10f0:	1dec4000 	stclne	0, cr4, [ip]
    10f4:	07444000 	strbeq	r4, [r4, -r0]
    10f8:	04020000 	streq	r0, [r2], #-0
    10fc:	746e6905 	strbtvc	r6, [lr], #-2309	; 0x905
    1100:	031a0300 	tsteq	sl, #0
    1104:	05030000 	streq	r0, [r3, #-0]
    1108:	00000037 	andeq	r0, r0, r7, lsr r0
    110c:	2c070404 	cfstrscs	mvf0, [r7], {4}
    1110:	04000000 	streq	r0, [r0], #-0
    1114:	00000702 	andeq	r0, r0, r2, lsl #14
    1118:	08040000 	stmdaeq	r4, {}	; <UNPREDICTABLE>
    111c:	00002207 	andeq	r2, r0, r7, lsl #4
    1120:	08010400 	stmdaeq	r1, {sl}
    1124:	0000004c 	andeq	r0, r0, ip, asr #32
    1128:	00032e05 	andeq	r2, r3, r5, lsl #28
    112c:	09040400 	stmdbeq	r4, {sl}
    1130:	0000008a 	andeq	r0, r0, sl, lsl #1
    1134:	0001da06 	andeq	sp, r1, r6, lsl #20
    1138:	e0060000 	and	r0, r6, r0
    113c:	7f000002 	svcvc	0x00000002
    1140:	0002fa06 	andeq	pc, r2, r6, lsl #20
    1144:	bb067e00 	bllt	1a094c <GUEST_OFFSET-0x3fe5f6b4>
    1148:	7d000002 	stcvc	0, cr0, [r0, #-8]
    114c:	00020706 	andeq	r0, r2, r6, lsl #14
    1150:	b4067c00 	strlt	r7, [r6], #-3072	; 0xc00
    1154:	7b000001 	blvc	1160 <GUEST_OFFSET-0x3fffeea0>
    1158:	0002a706 	andeq	sl, r2, r6, lsl #14
    115c:	03007a00 	movweq	r7, #2560	; 0xa00
    1160:	00000272 	andeq	r0, r0, r2, ror r2
    1164:	00531104 	subseq	r1, r3, r4, lsl #2
    1168:	04070000 	streq	r0, [r7], #-0
    116c:	00068f03 	andeq	r8, r6, r3, lsl #30
    1170:	a21e0500 	andsge	r0, lr, #0
    1174:	08000000 	stmdaeq	r0, {}	; <UNPREDICTABLE>
    1178:	0000a804 	andeq	sl, r0, r4, lsl #16
    117c:	b4010900 	strlt	r0, [r1], #-2304	; 0x900
    1180:	0a000000 	beq	1188 <GUEST_OFFSET-0x3fffee78>
    1184:	00000095 	muleq	r0, r5, r0
    1188:	05a20b00 	streq	r0, [r2, #2816]!	; 0xb00
    118c:	0e010000 	cdpeq	0, 0, cr0, cr1, cr0, {0}
    1190:	00002c01 	andeq	r2, r0, r1, lsl #24
    1194:	001a6000 	andseq	r6, sl, r0
    1198:	001a9440 	andseq	r9, sl, r0, asr #8
    119c:	0006b440 	andeq	fp, r6, r0, asr #8
    11a0:	0000f500 	andeq	pc, r0, r0, lsl #10
    11a4:	026d0c00 	rsbeq	r0, sp, #0
    11a8:	0e010000 	cdpeq	0, 0, cr0, cr1, cr0, {0}
    11ac:	000000f5 	strdeq	r0, [r0], -r5
    11b0:	0d6c9102 	stfeqp	f1, [ip, #-8]!
    11b4:	40001a70 	andmi	r1, r0, r0, ror sl
    11b8:	40001a84 	andmi	r1, r0, r4, lsl #21
    11bc:	0100760e 	tsteq	r0, lr, lsl #12
    11c0:	00002c10 	andeq	r2, r0, r0, lsl ip
    11c4:	74910200 	ldrvc	r0, [r1], #512	; 0x200
    11c8:	04080000 	streq	r0, [r8], #-0
    11cc:	000000fb 	strdeq	r0, [r0], -fp
    11d0:	05de100f 	ldrbeq	r1, [lr, #15]
    11d4:	12010000 	andne	r0, r1, #0
    11d8:	001a9401 	andseq	r9, sl, r1, lsl #8
    11dc:	001ac440 	andseq	ip, sl, r0, asr #8
    11e0:	0006e040 	andeq	lr, r6, r0, asr #32
    11e4:	00013100 	andeq	r3, r1, r0, lsl #2
    11e8:	01760c00 	cmneq	r6, r0, lsl #24
    11ec:	12010000 	andne	r0, r1, #0
    11f0:	0000002c 	andeq	r0, r0, ip, lsr #32
    11f4:	0c749102 	ldfeqp	f1, [r4], #-8
    11f8:	0000026d 	andeq	r0, r0, sp, ror #4
    11fc:	00f51201 	rscseq	r1, r5, r1, lsl #4
    1200:	91020000 	mrsls	r0, (UNDEF: 2)
    1204:	01110070 	tsteq	r1, r0, ror r0
    1208:	000005fd 	strdeq	r0, [r0], -sp
    120c:	008a0c02 	addeq	r0, sl, r2, lsl #24
    1210:	1ac40000 	bne	ff101218 <guest_stacklimit+0xaf101218>
    1214:	1b444000 	blne	111121c <GUEST_OFFSET-0x3eeeede4>
    1218:	070c4000 	streq	r4, [ip, -r0]
    121c:	016a0000 	cmneq	sl, r0
    1220:	74120000 	ldrvc	r0, [r2], #-0
    1224:	02000006 	andeq	r0, r0, #6
    1228:	00002c0e 	andeq	r2, r0, lr, lsl #24
    122c:	74910200 	ldrvc	r0, [r1], #512	; 0x200
    1230:	00066d12 	andeq	r6, r6, r2, lsl sp
    1234:	2c0f0200 	sfmcs	f0, 4, [pc], {-0}
    1238:	02000000 	andeq	r0, r0, #0
    123c:	11007091 	swpne	r7, r1, [r0]
    1240:	00067901 	andeq	r7, r6, r1, lsl #18
    1244:	8a1d0200 	bhi	741a4c <GUEST_OFFSET-0x3f8be5b4>
    1248:	44000000 	strmi	r0, [r0], #-0
    124c:	b840001b 	stmdalt	r0, {r0, r1, r3, r4}^
    1250:	3840001b 	stmdacc	r0, {r0, r1, r3, r4}^
    1254:	a3000007 	movwge	r0, #7
    1258:	12000001 	andne	r0, r0, #1
    125c:	0000066d 	andeq	r0, r0, sp, ror #12
    1260:	002c1f02 	eoreq	r1, ip, r2, lsl #30
    1264:	91020000 	mrsls	r0, (UNDEF: 2)
    1268:	06741270 			; <UNDEFINED> instruction: 0x06741270
    126c:	20020000 	andcs	r0, r2, r0
    1270:	0000002c 	andeq	r0, r0, ip, lsr #32
    1274:	00749102 	rsbseq	r9, r4, r2, lsl #2
    1278:	05c10113 	strbeq	r0, [r1, #275]	; 0x113
    127c:	2b020000 	blcs	81284 <GUEST_OFFSET-0x3ff7ed7c>
    1280:	00008a01 	andeq	r8, r0, r1, lsl #20
    1284:	001bb800 	andseq	fp, fp, r0, lsl #16
    1288:	001bec40 	andseq	lr, fp, r0, asr #24
    128c:	00076440 	andeq	r6, r7, r0, asr #8
    1290:	0001cf00 	andeq	ip, r1, r0, lsl #30
    1294:	05cf0c00 	strbeq	r0, [pc, #3072]	; 1e9c <GUEST_OFFSET-0x3fffe164>
    1298:	2b020000 	blcs	812a0 <GUEST_OFFSET-0x3ff7ed60>
    129c:	0000002c 	andeq	r0, r0, ip, lsr #32
    12a0:	00749102 	rsbseq	r9, r4, r2, lsl #2
    12a4:	0006a410 	andeq	sl, r6, r0, lsl r4
    12a8:	01300200 	teqeq	r0, r0, lsl #4
    12ac:	40001bec 	andmi	r1, r0, ip, ror #23
    12b0:	40001c20 	andmi	r1, r0, r0, lsr #24
    12b4:	00000790 	muleq	r0, r0, r7
    12b8:	00000212 	andeq	r0, r0, r2, lsl r2
    12bc:	71726914 	cmnvc	r2, r4, lsl r9
    12c0:	25300200 	ldrcs	r0, [r0, #-512]!	; 0x200
    12c4:	02000000 	andeq	r0, r0, #0
    12c8:	3a0c7491 	bcc	31e514 <GUEST_OFFSET-0x3fce1aec>
    12cc:	02000001 	andeq	r0, r0, #1
    12d0:	00009530 	andeq	r9, r0, r0, lsr r5
    12d4:	70910200 	addsvc	r0, r1, r0, lsl #4
    12d8:	0001750c 	andeq	r7, r1, ip, lsl #10
    12dc:	95300200 	ldrls	r0, [r0, #-512]!	; 0x200
    12e0:	02000000 	andeq	r0, r0, #0
    12e4:	11006c91 			; <UNDEFINED> instruction: 0x11006c91
    12e8:	00061801 	andeq	r1, r6, r1, lsl #16
    12ec:	8a340200 	bhi	d01af4 <GUEST_OFFSET-0x3f2fe50c>
    12f0:	20000000 	andcs	r0, r0, r0
    12f4:	6840001c 	stmdavs	r0, {r2, r3, r4}^
    12f8:	bc40001c 	mcrrlt	0, 1, r0, r0, cr12
    12fc:	3d000007 	stccc	0, cr0, [r0, #-28]	; 0xffffffe4
    1300:	12000002 	andne	r0, r0, #2
    1304:	0000018c 	andeq	r0, r0, ip, lsl #3
    1308:	008a3602 	addeq	r3, sl, r2, lsl #12
    130c:	91020000 	mrsls	r0, (UNDEF: 2)
    1310:	01130074 	tsteq	r3, r4, ror r0
    1314:	0000064f 	andeq	r0, r0, pc, asr #12
    1318:	8a013e02 	bhi	50b28 <GUEST_OFFSET-0x3ffaf4d8>
    131c:	68000000 	stmdavs	r0, {}	; <UNPREDICTABLE>
    1320:	9c40001c 	mcrrls	0, 1, r0, r0, cr12
    1324:	e840001c 	stmda	r0, {r2, r3, r4}^
    1328:	69000007 	stmdbvs	r0, {r0, r1, r2}
    132c:	0c000002 	stceq	0, cr0, [r0], {2}
    1330:	0000065d 	andeq	r0, r0, sp, asr r6
    1334:	00973e02 	addseq	r3, r7, r2, lsl #28
    1338:	91020000 	mrsls	r0, (UNDEF: 2)
    133c:	01150074 	tsteq	r5, r4, ror r0
    1340:	00000640 	andeq	r0, r0, r0, asr #12
    1344:	1c9c4402 	cfldrsne	mvf4, [ip], {2}
    1348:	1d904000 	ldcne	0, cr4, [r0]
    134c:	08144000 	ldmdaeq	r4, {lr}
    1350:	02ac0000 	adceq	r0, ip, #0
    1354:	d8120000 	ldmdale	r2, {}	; <UNPREDICTABLE>
    1358:	02000005 	andeq	r0, r0, #5
    135c:	00002c46 	andeq	r2, r0, r6, asr #24
    1360:	74910200 	ldrvc	r0, [r1], #512	; 0x200
    1364:	00061212 	andeq	r1, r6, r2, lsl r2
    1368:	2c470200 	sfmcs	f0, 2, [r7], {-0}
    136c:	02000000 	andeq	r0, r0, #0
    1370:	74127091 	ldrvc	r7, [r2], #-145	; 0x91
    1374:	02000006 	andeq	r0, r0, #6
    1378:	00002c48 	andeq	r2, r0, r8, asr #24
    137c:	6c910200 	lfmvs	f0, 4, [r1], {0}
    1380:	2d011600 	stccs	6, cr1, [r1, #-0]
    1384:	02000006 	andeq	r0, r0, #6
    1388:	1d90015e 	ldfnes	f0, [r0, #376]	; 0x178
    138c:	1dd04000 	ldclne	0, cr4, [r0]
    1390:	08404000 	stmdaeq	r0, {lr}^
    1394:	02f00000 	rscseq	r0, r0, #0
    1398:	69140000 	ldmdbvs	r4, {}	; <UNPREDICTABLE>
    139c:	02007172 	andeq	r7, r0, #-2147483620	; 0x8000001c
    13a0:	0000255e 	andeq	r2, r0, lr, asr r5
    13a4:	74910200 	ldrvc	r0, [r1], #512	; 0x200
    13a8:	0003230c 	andeq	r2, r3, ip, lsl #6
    13ac:	955e0200 	ldrbls	r0, [lr, #-512]	; 0x200
    13b0:	02000000 	andeq	r0, r0, #0
    13b4:	750c7091 	strvc	r7, [ip, #-145]	; 0x91
    13b8:	02000001 	andeq	r0, r0, #1
    13bc:	0000955e 	andeq	r9, r0, lr, asr r5
    13c0:	6c910200 	lfmvs	f0, 4, [r1], {0}
    13c4:	ac011700 	stcge	7, cr1, [r1], {-0}
    13c8:	02000005 	andeq	r0, r0, #5
    13cc:	008a0168 	addeq	r0, sl, r8, ror #2
    13d0:	1dd00000 	ldclne	0, cr0, [r0]
    13d4:	1dec4000 	stclne	0, cr4, [ip]
    13d8:	086c4000 	stmdaeq	ip!, {lr}^
    13dc:	5c120000 	ldcpl	0, cr0, [r2], {-0}
    13e0:	02000006 	andeq	r0, r0, #6
    13e4:	00009709 	andeq	r9, r0, r9, lsl #14
    13e8:	14030500 	strne	r0, [r3], #-1280	; 0x500
    13ec:	18400022 	stmdane	r0, {r1, r5}^
    13f0:	00000666 	andeq	r0, r0, r6, ror #12
    13f4:	002c0802 	eoreq	r0, ip, r2, lsl #16
    13f8:	05010000 	streq	r0, [r1, #-0]
    13fc:	00221803 	eoreq	r1, r2, r3, lsl #16
    1400:	Address 0x0000000000001400 is out of bounds.


Disassembly of section .debug_abbrev:

00000000 <.debug_abbrev>:
   0:	10001101 	andne	r1, r0, r1, lsl #2
   4:	12011106 	andne	r1, r1, #-2147483647	; 0x80000001
   8:	1b080301 	blne	200c14 <GUEST_OFFSET-0x3fdff3ec>
   c:	13082508 	movwne	r2, #34056	; 0x8508
  10:	00000005 	andeq	r0, r0, r5
  14:	25011101 	strcs	r1, [r1, #-257]	; 0x101
  18:	030b130e 	movweq	r1, #45838	; 0xb30e
  1c:	110e1b0e 	tstne	lr, lr, lsl #22
  20:	10011201 	andne	r1, r1, r1, lsl #4
  24:	02000006 	andeq	r0, r0, #6
  28:	0b0b0024 	bleq	2c00c0 <GUEST_OFFSET-0x3fd3ff40>
  2c:	0e030b3e 	vmoveq.16	d3[0], r0
  30:	24030000 	strcs	r0, [r3], #-0
  34:	3e0b0b00 	vmlacc.f64	d0, d11, d0
  38:	0008030b 	andeq	r0, r8, fp, lsl #6
  3c:	002e0400 	eoreq	r0, lr, r0, lsl #8
  40:	0e030c3f 	mcreq	12, 0, r0, cr3, cr15, {1}
  44:	0b3b0b3a 	bleq	ec2d34 <GUEST_OFFSET-0x3f13d2cc>
  48:	01111349 	tsteq	r1, r9, asr #6
  4c:	06400112 			; <UNDEFINED> instruction: 0x06400112
  50:	01000000 	mrseq	r0, (UNDEF: 0)
  54:	0e250111 	mcreq	1, 1, r0, cr5, cr1, {0}
  58:	0e030b13 	vmoveq.32	d3[0], r0
  5c:	01110e1b 	tsteq	r1, fp, lsl lr
  60:	06100112 			; <UNDEFINED> instruction: 0x06100112
  64:	24020000 	strcs	r0, [r2], #-0
  68:	3e0b0b00 	vmlacc.f64	d0, d11, d0
  6c:	0008030b 	andeq	r0, r8, fp, lsl #6
  70:	00240300 	eoreq	r0, r4, r0, lsl #6
  74:	0b3e0b0b 	bleq	f82ca8 <GUEST_OFFSET-0x3f07d358>
  78:	00000e03 	andeq	r0, r0, r3, lsl #28
  7c:	3f012e04 	svccc	0x00012e04
  80:	3a0e030c 	bcc	380cb8 <GUEST_OFFSET-0x3fc7f348>
  84:	270b3b0b 	strcs	r3, [fp, -fp, lsl #22]
  88:	1201110c 	andne	r1, r1, #3
  8c:	01064001 	tsteq	r6, r1
  90:	05000013 	streq	r0, [r0, #-19]
  94:	08030034 	stmdaeq	r3, {r2, r4, r5}
  98:	0b3b0b3a 	bleq	ec2d88 <GUEST_OFFSET-0x3f13d278>
  9c:	0a021349 	beq	84dc8 <GUEST_OFFSET-0x3ff7b238>
  a0:	35060000 	strcc	r0, [r6, #-0]
  a4:	00134900 	andseq	r4, r3, r0, lsl #18
  a8:	012e0700 	teqeq	lr, r0, lsl #14
  ac:	0e030c3f 	mcreq	12, 0, r0, cr3, cr15, {1}
  b0:	0b3b0b3a 	bleq	ec2da0 <GUEST_OFFSET-0x3f13d260>
  b4:	01110c27 	tsteq	r1, r7, lsr #24
  b8:	06400112 			; <UNDEFINED> instruction: 0x06400112
  bc:	2e080000 	cdpcs	0, 0, cr0, cr8, cr0, {0}
  c0:	030c3f01 	movweq	r3, #52993	; 0xcf01
  c4:	3b0b3a0e 	blcc	2ce904 <GUEST_OFFSET-0x3fd316fc>
  c8:	3c13490b 	ldccc	9, cr4, [r3], {11}
  cc:	0900000c 	stmdbeq	r0, {r2, r3}
  d0:	00000018 	andeq	r0, r0, r8, lsl r0
  d4:	01110100 	tsteq	r1, r0, lsl #2
  d8:	0b130e25 	bleq	4c3974 <GUEST_OFFSET-0x3fb3c68c>
  dc:	0e1b0e03 	cdpeq	14, 1, cr0, cr11, cr3, {0}
  e0:	01120111 	tsteq	r2, r1, lsl r1
  e4:	00000610 	andeq	r0, r0, r0, lsl r6
  e8:	03011302 	movweq	r1, #4866	; 0x1302
  ec:	3a0b0b0e 	bcc	2c2d2c <GUEST_OFFSET-0x3fd3d2d4>
  f0:	010b3b0b 	tsteq	fp, fp, lsl #22
  f4:	03000013 	movweq	r0, #19
  f8:	0e03000d 	cdpeq	0, 0, cr0, cr3, cr13, {0}
  fc:	0b3b0b3a 	bleq	ec2dec <GUEST_OFFSET-0x3f13d214>
 100:	0a381349 	beq	e04e2c <GUEST_OFFSET-0x3f1fb1d4>
 104:	0d040000 	stceq	0, cr0, [r4, #-0]
 108:	3a080300 	bcc	200d10 <GUEST_OFFSET-0x3fdff2f0>
 10c:	490b3b0b 	stmdbmi	fp, {r0, r1, r3, r8, r9, fp, ip, sp}
 110:	000a3813 	andeq	r3, sl, r3, lsl r8
 114:	00240500 	eoreq	r0, r4, r0, lsl #10
 118:	0b3e0b0b 	bleq	f82d4c <GUEST_OFFSET-0x3f07d2b4>
 11c:	00000e03 	andeq	r0, r0, r3, lsl #28
 120:	49010106 	stmdbmi	r1, {r1, r2, r8}
 124:	00130113 	andseq	r0, r3, r3, lsl r1
 128:	00210700 	eoreq	r0, r1, r0, lsl #14
 12c:	0b2f1349 	bleq	bc4e58 <GUEST_OFFSET-0x3f43b1a8>
 130:	2e080000 	cdpcs	0, 0, cr0, cr8, cr0, {0}
 134:	030c3f01 	movweq	r3, #52993	; 0xcf01
 138:	3b0b3a0e 	blcc	2ce978 <GUEST_OFFSET-0x3fd31688>
 13c:	110c270b 	tstne	ip, fp, lsl #14
 140:	40011201 	andmi	r1, r1, r1, lsl #4
 144:	00130106 	andseq	r0, r3, r6, lsl #2
 148:	00050900 	andeq	r0, r5, r0, lsl #18
 14c:	0b3a0e03 	bleq	e83960 <GUEST_OFFSET-0x3f17c6a0>
 150:	13490b3b 	movtne	r0, #39739	; 0x9b3b
 154:	00000a02 	andeq	r0, r0, r2, lsl #20
 158:	0b000f0a 	bleq	3d88 <GUEST_OFFSET-0x3fffc278>
 15c:	0013490b 	andseq	r4, r3, fp, lsl #18
 160:	012e0b00 	teqeq	lr, r0, lsl #22
 164:	0e030c3f 	mcreq	12, 0, r0, cr3, cr15, {1}
 168:	0b3b0b3a 	bleq	ec2e58 <GUEST_OFFSET-0x3f13d1a8>
 16c:	0c3c1349 	ldceq	3, cr1, [ip], #-292	; 0xfffffedc
 170:	180c0000 	stmdane	ip, {}	; <UNPREDICTABLE>
 174:	0d000000 	stceq	0, cr0, [r0, #-0]
 178:	0b0b0024 	bleq	2c0210 <GUEST_OFFSET-0x3fd3fdf0>
 17c:	08030b3e 	stmdaeq	r3, {r1, r2, r3, r4, r5, r8, r9, fp}
 180:	01000000 	mrseq	r0, (UNDEF: 0)
 184:	0e250111 	mcreq	1, 1, r0, cr5, cr1, {0}
 188:	0e030b13 	vmoveq.32	d3[0], r0
 18c:	01110e1b 	tsteq	r1, fp, lsl lr
 190:	06100112 			; <UNDEFINED> instruction: 0x06100112
 194:	24020000 	strcs	r0, [r2], #-0
 198:	3e0b0b00 	vmlacc.f64	d0, d11, d0
 19c:	0008030b 	andeq	r0, r8, fp, lsl #6
 1a0:	00160300 	andseq	r0, r6, r0, lsl #6
 1a4:	0b3a0e03 	bleq	e839b8 <GUEST_OFFSET-0x3f17c648>
 1a8:	13490b3b 	movtne	r0, #39739	; 0x9b3b
 1ac:	24040000 	strcs	r0, [r4], #-0
 1b0:	3e0b0b00 	vmlacc.f64	d0, d11, d0
 1b4:	000e030b 	andeq	r0, lr, fp, lsl #6
 1b8:	01040500 	tsteq	r4, r0, lsl #10
 1bc:	0b0b0e03 	bleq	2c39d0 <GUEST_OFFSET-0x3fd3c630>
 1c0:	0b3b0b3a 	bleq	ec2eb0 <GUEST_OFFSET-0x3f13d150>
 1c4:	00001301 	andeq	r1, r0, r1, lsl #6
 1c8:	03002806 	movweq	r2, #2054	; 0x806
 1cc:	000d1c0e 	andeq	r1, sp, lr, lsl #24
 1d0:	000f0700 	andeq	r0, pc, r0, lsl #14
 1d4:	13490b0b 	movtne	r0, #39691	; 0x9b0b
 1d8:	15080000 	strne	r0, [r8, #-0]
 1dc:	010c2701 	tsteq	ip, r1, lsl #14
 1e0:	09000013 	stmdbeq	r0, {r0, r1, r4}
 1e4:	13490005 	movtne	r0, #36869	; 0x9005
 1e8:	0f0a0000 	svceq	0x000a0000
 1ec:	000b0b00 	andeq	r0, fp, r0, lsl #22
 1f0:	01130b00 	tsteq	r3, r0, lsl #22
 1f4:	050b0803 	streq	r0, [fp, #-2051]	; 0x803
 1f8:	0b3b0b3a 	bleq	ec2ee8 <GUEST_OFFSET-0x3f13d118>
 1fc:	00001301 	andeq	r1, r0, r1, lsl #6
 200:	03000d0c 	movweq	r0, #3340	; 0xd0c
 204:	3b0b3a0e 	blcc	2cea44 <GUEST_OFFSET-0x3fd315bc>
 208:	3813490b 	ldmdacc	r3, {r0, r1, r3, r8, fp, lr}
 20c:	0d00000a 	stceq	0, cr0, [r0, #-40]	; 0xffffffd8
 210:	13490035 	movtne	r0, #36917	; 0x9035
 214:	010e0000 	mrseq	r0, (UNDEF: 14)
 218:	01134901 	tsteq	r3, r1, lsl #18
 21c:	0f000013 	svceq	0x00000013
 220:	13490021 	movtne	r0, #36897	; 0x9021
 224:	00000b2f 	andeq	r0, r0, pc, lsr #22
 228:	03012e10 	movweq	r2, #7696	; 0x1e10
 22c:	3b0b3a0e 	blcc	2cea6c <GUEST_OFFSET-0x3fd31594>
 230:	490c270b 	stmdbmi	ip, {r0, r1, r3, r8, r9, sl, sp}
 234:	12011113 	andne	r1, r1, #-1073741820	; 0xc0000004
 238:	01064001 	tsteq	r6, r1
 23c:	11000013 	tstne	r0, r3, lsl r0
 240:	0111010b 	tsteq	r1, fp, lsl #2
 244:	00000112 	andeq	r0, r0, r2, lsl r1
 248:	03003412 	movweq	r3, #1042	; 0x412
 24c:	3b0b3a0e 	blcc	2cea8c <GUEST_OFFSET-0x3fd31574>
 250:	0213490b 	andseq	r4, r3, #180224	; 0x2c000
 254:	1300000a 	movwne	r0, #10
 258:	0e03012e 	adfeqsp	f0, f3, #0.5
 25c:	0b3b0b3a 	bleq	ec2f4c <GUEST_OFFSET-0x3f13d0b4>
 260:	01110c27 	tsteq	r1, r7, lsr #24
 264:	06400112 			; <UNDEFINED> instruction: 0x06400112
 268:	00001301 	andeq	r1, r0, r1, lsl #6
 26c:	11010b14 	tstne	r1, r4, lsl fp
 270:	01011201 	tsteq	r1, r1, lsl #4
 274:	15000013 	strne	r0, [r0, #-19]
 278:	0e030034 	mcreq	0, 0, r0, cr3, cr4, {1}
 27c:	0b3b0b3a 	bleq	ec2f6c <GUEST_OFFSET-0x3f13d094>
 280:	00001349 	andeq	r1, r0, r9, asr #6
 284:	03000516 	movweq	r0, #1302	; 0x516
 288:	3b0b3a0e 	blcc	2ceac8 <GUEST_OFFSET-0x3fd31538>
 28c:	0213490b 	andseq	r4, r3, #180224	; 0x2c000
 290:	1700000a 	strne	r0, [r0, -sl]
 294:	0c3f012e 	ldfeqs	f0, [pc], #-184	; 1e4 <GUEST_OFFSET-0x3ffffe1c>
 298:	0b3a0e03 	bleq	e83aac <GUEST_OFFSET-0x3f17c554>
 29c:	0c270b3b 	stceq	11, cr0, [r7], #-236	; 0xffffff14
 2a0:	01111349 	tsteq	r1, r9, asr #6
 2a4:	06400112 			; <UNDEFINED> instruction: 0x06400112
 2a8:	00001301 	andeq	r1, r0, r1, lsl #6
 2ac:	03000518 	movweq	r0, #1304	; 0x518
 2b0:	3b0b3a08 	blcc	2cead8 <GUEST_OFFSET-0x3fd31528>
 2b4:	0213490b 	andseq	r4, r3, #180224	; 0x2c000
 2b8:	1900000a 	stmdbne	r0, {r1, r3}
 2bc:	08030034 	stmdaeq	r3, {r2, r4, r5}
 2c0:	0b3b0b3a 	bleq	ec2fb0 <GUEST_OFFSET-0x3f13d050>
 2c4:	0a021349 	beq	84ff0 <GUEST_OFFSET-0x3ff7b010>
 2c8:	2e1a0000 	cdpcs	0, 1, cr0, cr10, cr0, {0}
 2cc:	030c3f01 	movweq	r3, #52993	; 0xcf01
 2d0:	3b0b3a0e 	blcc	2ceb10 <GUEST_OFFSET-0x3fd314f0>
 2d4:	110c270b 	tstne	ip, fp, lsl #14
 2d8:	40011201 	andmi	r1, r1, r1, lsl #4
 2dc:	00130106 	andseq	r0, r3, r6, lsl #2
 2e0:	00131b00 	andseq	r1, r3, r0, lsl #22
 2e4:	0c3c0e03 	ldceq	14, cr0, [ip], #-12
 2e8:	01000000 	mrseq	r0, (UNDEF: 0)
 2ec:	0e250111 	mcreq	1, 1, r0, cr5, cr1, {0}
 2f0:	0e030b13 	vmoveq.32	d3[0], r0
 2f4:	01110e1b 	tsteq	r1, fp, lsl lr
 2f8:	06100112 			; <UNDEFINED> instruction: 0x06100112
 2fc:	24020000 	strcs	r0, [r2], #-0
 300:	3e0b0b00 	vmlacc.f64	d0, d11, d0
 304:	0008030b 	andeq	r0, r8, fp, lsl #6
 308:	00160300 	andseq	r0, r6, r0, lsl #6
 30c:	0b3a0e03 	bleq	e83b20 <GUEST_OFFSET-0x3f17c4e0>
 310:	13490b3b 	movtne	r0, #39739	; 0x9b3b
 314:	24040000 	strcs	r0, [r4], #-0
 318:	3e0b0b00 	vmlacc.f64	d0, d11, d0
 31c:	000e030b 	andeq	r0, lr, fp, lsl #6
 320:	012e0500 	teqeq	lr, r0, lsl #10
 324:	0e030c3f 	mcreq	12, 0, r0, cr3, cr15, {1}
 328:	0b3b0b3a 	bleq	ec3018 <GUEST_OFFSET-0x3f13cfe8>
 32c:	01120111 	tsteq	r2, r1, lsl r1
 330:	13010640 	movwne	r0, #5696	; 0x1640
 334:	34060000 	strcc	r0, [r6], #-0
 338:	3a0e0300 	bcc	380f40 <GUEST_OFFSET-0x3fc7f0c0>
 33c:	490b3b0b 	stmdbmi	fp, {r0, r1, r3, r8, r9, fp, ip, sp}
 340:	000a0213 	andeq	r0, sl, r3, lsl r2
 344:	00340700 	eorseq	r0, r4, r0, lsl #14
 348:	0b3a0803 	bleq	e8235c <GUEST_OFFSET-0x3f17dca4>
 34c:	13490b3b 	movtne	r0, #39739	; 0x9b3b
 350:	00000a02 	andeq	r0, r0, r2, lsl #20
 354:	0b000f08 	bleq	3f7c <GUEST_OFFSET-0x3fffc084>
 358:	0013490b 	andseq	r4, r3, fp, lsl #18
 35c:	00350900 	eorseq	r0, r5, r0, lsl #18
 360:	00001349 	andeq	r1, r0, r9, asr #6
 364:	01110100 	tsteq	r1, r0, lsl #2
 368:	0b130e25 	bleq	4c3c04 <GUEST_OFFSET-0x3fb3c3fc>
 36c:	0e1b0e03 	cdpeq	14, 1, cr0, cr11, cr3, {0}
 370:	01120111 	tsteq	r2, r1, lsl r1
 374:	00000610 	andeq	r0, r0, r0, lsl r6
 378:	0b002402 	bleq	9388 <GUEST_OFFSET-0x3fff6c78>
 37c:	030b3e0b 	movweq	r3, #48651	; 0xbe0b
 380:	03000008 	movweq	r0, #8
 384:	0e030016 	mcreq	0, 0, r0, cr3, cr6, {0}
 388:	0b3b0b3a 	bleq	ec3078 <GUEST_OFFSET-0x3f13cf88>
 38c:	00001349 	andeq	r1, r0, r9, asr #6
 390:	0b002404 	bleq	93a8 <GUEST_OFFSET-0x3fff6c58>
 394:	030b3e0b 	movweq	r3, #48651	; 0xbe0b
 398:	0500000e 	streq	r0, [r0, #-14]
 39c:	0c3f012e 	ldfeqs	f0, [pc], #-184	; 2ec <GUEST_OFFSET-0x3ffffd14>
 3a0:	0b3a0e03 	bleq	e83bb4 <GUEST_OFFSET-0x3f17c44c>
 3a4:	0c270b3b 	stceq	11, cr0, [r7], #-236	; 0xffffff14
 3a8:	01120111 	tsteq	r2, r1, lsl r1
 3ac:	13010640 	movwne	r0, #5696	; 0x1640
 3b0:	05060000 	streq	r0, [r6, #-0]
 3b4:	3a0e0300 	bcc	380fbc <GUEST_OFFSET-0x3fc7f044>
 3b8:	490b3b0b 	stmdbmi	fp, {r0, r1, r3, r8, r9, fp, ip, sp}
 3bc:	000a0213 	andeq	r0, sl, r3, lsl r2
 3c0:	00340700 	eorseq	r0, r4, r0, lsl #14
 3c4:	0b3a0e03 	bleq	e83bd8 <GUEST_OFFSET-0x3f17c428>
 3c8:	13490b3b 	movtne	r0, #39739	; 0x9b3b
 3cc:	0a020c3f 	beq	834d0 <GUEST_OFFSET-0x3ff7cb30>
 3d0:	0f080000 	svceq	0x00080000
 3d4:	490b0b00 	stmdbmi	fp, {r8, r9, fp}
 3d8:	09000013 	stmdbeq	r0, {r0, r1, r4}
 3dc:	13490035 	movtne	r0, #36917	; 0x9035
 3e0:	01000000 	mrseq	r0, (UNDEF: 0)
 3e4:	0e250111 	mcreq	1, 1, r0, cr5, cr1, {0}
 3e8:	0e030b13 	vmoveq.32	d3[0], r0
 3ec:	01110e1b 	tsteq	r1, fp, lsl lr
 3f0:	06100112 			; <UNDEFINED> instruction: 0x06100112
 3f4:	16020000 	strne	r0, [r2], -r0
 3f8:	3a0e0300 	bcc	381000 <GUEST_OFFSET-0x3fc7f000>
 3fc:	490b3b0b 	stmdbmi	fp, {r0, r1, r3, r8, r9, fp, ip, sp}
 400:	03000013 	movweq	r0, #19
 404:	0b0b0024 	bleq	2c049c <GUEST_OFFSET-0x3fd3fb64>
 408:	0e030b3e 	vmoveq.16	d3[0], r0
 40c:	24040000 	strcs	r0, [r4], #-0
 410:	3e0b0b00 	vmlacc.f64	d0, d11, d0
 414:	0008030b 	andeq	r0, r8, fp, lsl #6
 418:	000f0500 	andeq	r0, pc, r0, lsl #10
 41c:	13490b0b 	movtne	r0, #39691	; 0x9b0b
 420:	26060000 	strcs	r0, [r6], -r0
 424:	00134900 	andseq	r4, r3, r0, lsl #18
 428:	012e0700 	teqeq	lr, r0, lsl #14
 42c:	0b3a0e03 	bleq	e83c40 <GUEST_OFFSET-0x3f17c3c0>
 430:	0c270b3b 	stceq	11, cr0, [r7], #-236	; 0xffffff14
 434:	01111349 	tsteq	r1, r9, asr #6
 438:	06400112 			; <UNDEFINED> instruction: 0x06400112
 43c:	00001301 	andeq	r1, r0, r1, lsl #6
 440:	03000508 	movweq	r0, #1288	; 0x508
 444:	3b0b3a0e 	blcc	2cec84 <GUEST_OFFSET-0x3fd3137c>
 448:	0213490b 	andseq	r4, r3, #180224	; 0x2c000
 44c:	0900000a 	stmdbeq	r0, {r1, r3}
 450:	08030005 	stmdaeq	r3, {r0, r2}
 454:	0b3b0b3a 	bleq	ec3144 <GUEST_OFFSET-0x3f13cebc>
 458:	0a021349 	beq	85184 <GUEST_OFFSET-0x3ff7ae7c>
 45c:	340a0000 	strcc	r0, [sl], #-0
 460:	3a080300 	bcc	201068 <GUEST_OFFSET-0x3fdfef98>
 464:	490b3b0b 	stmdbmi	fp, {r0, r1, r3, r8, r9, fp, ip, sp}
 468:	000a0213 	andeq	r0, sl, r3, lsl r2
 46c:	000f0b00 	andeq	r0, pc, r0, lsl #22
 470:	00000b0b 	andeq	r0, r0, fp, lsl #22
 474:	0000260c 	andeq	r2, r0, ip, lsl #12
 478:	012e0d00 	teqeq	lr, r0, lsl #26
 47c:	0e030c3f 	mcreq	12, 0, r0, cr3, cr15, {1}
 480:	0b3b0b3a 	bleq	ec3170 <GUEST_OFFSET-0x3f13ce90>
 484:	13490c27 	movtne	r0, #39975	; 0x9c27
 488:	01120111 	tsteq	r2, r1, lsl r1
 48c:	13010640 	movwne	r0, #5696	; 0x1640
 490:	2e0e0000 	cdpcs	0, 0, cr0, cr14, cr0, {0}
 494:	030c3f01 	movweq	r3, #52993	; 0xcf01
 498:	3b0b3a0e 	blcc	2cecd8 <GUEST_OFFSET-0x3fd31328>
 49c:	490c2705 	stmdbmi	ip, {r0, r2, r8, r9, sl, sp}
 4a0:	12011113 	andne	r1, r1, #-1073741820	; 0xc0000004
 4a4:	01064001 	tsteq	r6, r1
 4a8:	0f000013 	svceq	0x00000013
 4ac:	0c3f012e 	ldfeqs	f0, [pc], #-184	; 3fc <GUEST_OFFSET-0x3ffffc04>
 4b0:	0b3a0e03 	bleq	e83cc4 <GUEST_OFFSET-0x3f17c33c>
 4b4:	0c270b3b 	stceq	11, cr0, [r7], #-236	; 0xffffff14
 4b8:	01120111 	tsteq	r2, r1, lsl r1
 4bc:	13010640 	movwne	r0, #5696	; 0x1640
 4c0:	34100000 	ldrcc	r0, [r0], #-0
 4c4:	3a0e0300 	bcc	3810cc <GUEST_OFFSET-0x3fc7ef34>
 4c8:	490b3b0b 	stmdbmi	fp, {r0, r1, r3, r8, r9, fp, ip, sp}
 4cc:	000a0213 	andeq	r0, sl, r3, lsl r2
 4d0:	01011100 	mrseq	r1, (UNDEF: 17)
 4d4:	13011349 	movwne	r1, #4937	; 0x1349
 4d8:	21120000 	tstcs	r2, r0
 4dc:	2f134900 	svccs	0x00134900
 4e0:	1300000b 	movwne	r0, #11
 4e4:	0c3f012e 	ldfeqs	f0, [pc], #-184	; 434 <GUEST_OFFSET-0x3ffffbcc>
 4e8:	0b3a0e03 	bleq	e83cfc <GUEST_OFFSET-0x3f17c304>
 4ec:	0c270b3b 	stceq	11, cr0, [r7], #-236	; 0xffffff14
 4f0:	01111349 	tsteq	r1, r9, asr #6
 4f4:	06400112 			; <UNDEFINED> instruction: 0x06400112
 4f8:	01000000 	mrseq	r0, (UNDEF: 0)
 4fc:	06100011 			; <UNDEFINED> instruction: 0x06100011
 500:	01120111 	tsteq	r2, r1, lsl r1
 504:	081b0803 	ldmdaeq	fp, {r0, r1, fp}
 508:	05130825 	ldreq	r0, [r3, #-2085]	; 0x825
 50c:	01000000 	mrseq	r0, (UNDEF: 0)
 510:	0e250111 	mcreq	1, 1, r0, cr5, cr1, {0}
 514:	0e030b13 	vmoveq.32	d3[0], r0
 518:	01110e1b 	tsteq	r1, fp, lsl lr
 51c:	06100112 			; <UNDEFINED> instruction: 0x06100112
 520:	24020000 	strcs	r0, [r2], #-0
 524:	3e0b0b00 	vmlacc.f64	d0, d11, d0
 528:	0008030b 	andeq	r0, r8, fp, lsl #6
 52c:	00160300 	andseq	r0, r6, r0, lsl #6
 530:	0b3a0e03 	bleq	e83d44 <GUEST_OFFSET-0x3f17c2bc>
 534:	13490b3b 	movtne	r0, #39739	; 0x9b3b
 538:	24040000 	strcs	r0, [r4], #-0
 53c:	3e0b0b00 	vmlacc.f64	d0, d11, d0
 540:	000e030b 	andeq	r0, lr, fp, lsl #6
 544:	01170500 	tsteq	r7, r0, lsl #10
 548:	0b0b0e03 	bleq	2c3d5c <GUEST_OFFSET-0x3fd3c2a4>
 54c:	0b3b0b3a 	bleq	ec323c <GUEST_OFFSET-0x3f13cdc4>
 550:	00001301 	andeq	r1, r0, r1, lsl #6
 554:	03000d06 	movweq	r0, #3334	; 0xd06
 558:	3b0b3a0e 	blcc	2ced98 <GUEST_OFFSET-0x3fd31268>
 55c:	0013490b 	andseq	r4, r3, fp, lsl #18
 560:	01130700 	tsteq	r3, r0, lsl #14
 564:	060b0e03 	streq	r0, [fp], -r3, lsl #28
 568:	0b3b0b3a 	bleq	ec3258 <GUEST_OFFSET-0x3f13cda8>
 56c:	00001301 	andeq	r1, r0, r1, lsl #6
 570:	03000d08 	movweq	r0, #3336	; 0xd08
 574:	3b0b3a0e 	blcc	2cedb4 <GUEST_OFFSET-0x3fd3124c>
 578:	3813490b 	ldmdacc	r3, {r0, r1, r3, r8, fp, lr}
 57c:	0900000a 	stmdbeq	r0, {r1, r3}
 580:	13490101 	movtne	r0, #37121	; 0x9101
 584:	00001301 	andeq	r1, r0, r1, lsl #6
 588:	4900210a 	stmdbmi	r0, {r1, r3, r8, sp}
 58c:	000b2f13 	andeq	r2, fp, r3, lsl pc
 590:	00210b00 	eoreq	r0, r1, r0, lsl #22
 594:	052f1349 	streq	r1, [pc, #-841]!	; 253 <GUEST_OFFSET-0x3ffffdad>
 598:	2e0c0000 	cdpcs	0, 0, cr0, cr12, cr0, {0}
 59c:	3a0e0301 	bcc	3811a8 <GUEST_OFFSET-0x3fc7ee58>
 5a0:	270b3b0b 	strcs	r3, [fp, -fp, lsl #22]
 5a4:	1113490c 	tstne	r3, ip, lsl #18
 5a8:	40011201 	andmi	r1, r1, r1, lsl #4
 5ac:	00130106 	andseq	r0, r3, r6, lsl #2
 5b0:	00050d00 	andeq	r0, r5, r0, lsl #26
 5b4:	0b3a0803 	bleq	e825c8 <GUEST_OFFSET-0x3f17da38>
 5b8:	13490b3b 	movtne	r0, #39739	; 0x9b3b
 5bc:	00000a02 	andeq	r0, r0, r2, lsl #20
 5c0:	0300340e 	movweq	r3, #1038	; 0x40e
 5c4:	3b0b3a0e 	blcc	2cee04 <GUEST_OFFSET-0x3fd311fc>
 5c8:	0213490b 	andseq	r4, r3, #180224	; 0x2c000
 5cc:	0f00000a 	svceq	0x0000000a
 5d0:	13490026 	movtne	r0, #36902	; 0x9026
 5d4:	0f100000 	svceq	0x00100000
 5d8:	490b0b00 	stmdbmi	fp, {r8, r9, fp}
 5dc:	11000013 	tstne	r0, r3, lsl r0
 5e0:	0c3f012e 	ldfeqs	f0, [pc], #-184	; 530 <GUEST_OFFSET-0x3ffffad0>
 5e4:	0b3a0e03 	bleq	e83df8 <GUEST_OFFSET-0x3f17c208>
 5e8:	0c270b3b 	stceq	11, cr0, [r7], #-236	; 0xffffff14
 5ec:	01120111 	tsteq	r2, r1, lsl r1
 5f0:	13010640 	movwne	r0, #5696	; 0x1640
 5f4:	34120000 	ldrcc	r0, [r2], #-0
 5f8:	3a080300 	bcc	201200 <GUEST_OFFSET-0x3fdfee00>
 5fc:	490b3b0b 	stmdbmi	fp, {r0, r1, r3, r8, r9, fp, ip, sp}
 600:	000a0213 	andeq	r0, sl, r3, lsl r2
 604:	002e1300 	eoreq	r1, lr, r0, lsl #6
 608:	0e030c3f 	mcreq	12, 0, r0, cr3, cr15, {1}
 60c:	0b3b0b3a 	bleq	ec32fc <GUEST_OFFSET-0x3f13cd04>
 610:	01110c27 	tsteq	r1, r7, lsr #24
 614:	06400112 			; <UNDEFINED> instruction: 0x06400112
 618:	01000000 	mrseq	r0, (UNDEF: 0)
 61c:	0e250111 	mcreq	1, 1, r0, cr5, cr1, {0}
 620:	0e030b13 	vmoveq.32	d3[0], r0
 624:	01110e1b 	tsteq	r1, fp, lsl lr
 628:	06100112 			; <UNDEFINED> instruction: 0x06100112
 62c:	24020000 	strcs	r0, [r2], #-0
 630:	3e0b0b00 	vmlacc.f64	d0, d11, d0
 634:	0008030b 	andeq	r0, r8, fp, lsl #6
 638:	00160300 	andseq	r0, r6, r0, lsl #6
 63c:	0b3a0e03 	bleq	e83e50 <GUEST_OFFSET-0x3f17c1b0>
 640:	13490b3b 	movtne	r0, #39739	; 0x9b3b
 644:	24040000 	strcs	r0, [r4], #-0
 648:	3e0b0b00 	vmlacc.f64	d0, d11, d0
 64c:	000e030b 	andeq	r0, lr, fp, lsl #6
 650:	01040500 	tsteq	r4, r0, lsl #10
 654:	0b0b0e03 	bleq	2c3e68 <GUEST_OFFSET-0x3fd3c198>
 658:	0b3b0b3a 	bleq	ec3348 <GUEST_OFFSET-0x3f13ccb8>
 65c:	00001301 	andeq	r1, r0, r1, lsl #6
 660:	03002806 	movweq	r2, #2054	; 0x806
 664:	000d1c0e 	andeq	r1, sp, lr, lsl #24
 668:	000f0700 	andeq	r0, pc, r0, lsl #14
 66c:	00000b0b 	andeq	r0, r0, fp, lsl #22
 670:	0b000f08 	bleq	4298 <GUEST_OFFSET-0x3fffbd68>
 674:	0013490b 	andseq	r4, r3, fp, lsl #18
 678:	01150900 	tsteq	r5, r0, lsl #18
 67c:	13010c27 	movwne	r0, #7207	; 0x1c27
 680:	050a0000 	streq	r0, [sl, #-0]
 684:	00134900 	andseq	r4, r3, r0, lsl #18
 688:	012e0b00 	teqeq	lr, r0, lsl #22
 68c:	0b3a0e03 	bleq	e83ea0 <GUEST_OFFSET-0x3f17c160>
 690:	0c270b3b 	stceq	11, cr0, [r7], #-236	; 0xffffff14
 694:	01111349 	tsteq	r1, r9, asr #6
 698:	06400112 			; <UNDEFINED> instruction: 0x06400112
 69c:	00001301 	andeq	r1, r0, r1, lsl #6
 6a0:	0300050c 	movweq	r0, #1292	; 0x50c
 6a4:	3b0b3a0e 	blcc	2ceee4 <GUEST_OFFSET-0x3fd3111c>
 6a8:	0213490b 	andseq	r4, r3, #180224	; 0x2c000
 6ac:	0d00000a 	stceq	0, cr0, [r0, #-40]	; 0xffffffd8
 6b0:	0111010b 	tsteq	r1, fp, lsl #2
 6b4:	00000112 	andeq	r0, r0, r2, lsl r1
 6b8:	0300340e 	movweq	r3, #1038	; 0x40e
 6bc:	3b0b3a08 	blcc	2ceee4 <GUEST_OFFSET-0x3fd3111c>
 6c0:	0213490b 	andseq	r4, r3, #180224	; 0x2c000
 6c4:	0f00000a 	svceq	0x0000000a
 6c8:	00000035 	andeq	r0, r0, r5, lsr r0
 6cc:	03012e10 	movweq	r2, #7696	; 0x1e10
 6d0:	3b0b3a0e 	blcc	2cef10 <GUEST_OFFSET-0x3fd310f0>
 6d4:	110c270b 	tstne	ip, fp, lsl #14
 6d8:	40011201 	andmi	r1, r1, r1, lsl #4
 6dc:	00130106 	andseq	r0, r3, r6, lsl #2
 6e0:	012e1100 	teqeq	lr, r0, lsl #2
 6e4:	0e030c3f 	mcreq	12, 0, r0, cr3, cr15, {1}
 6e8:	0b3b0b3a 	bleq	ec33d8 <GUEST_OFFSET-0x3f13cc28>
 6ec:	01111349 	tsteq	r1, r9, asr #6
 6f0:	06400112 			; <UNDEFINED> instruction: 0x06400112
 6f4:	00001301 	andeq	r1, r0, r1, lsl #6
 6f8:	03003412 	movweq	r3, #1042	; 0x412
 6fc:	3b0b3a0e 	blcc	2cef3c <GUEST_OFFSET-0x3fd310c4>
 700:	0213490b 	andseq	r4, r3, #180224	; 0x2c000
 704:	1300000a 	movwne	r0, #10
 708:	0c3f012e 	ldfeqs	f0, [pc], #-184	; 658 <GUEST_OFFSET-0x3ffff9a8>
 70c:	0b3a0e03 	bleq	e83f20 <GUEST_OFFSET-0x3f17c0e0>
 710:	0c270b3b 	stceq	11, cr0, [r7], #-236	; 0xffffff14
 714:	01111349 	tsteq	r1, r9, asr #6
 718:	06400112 			; <UNDEFINED> instruction: 0x06400112
 71c:	00001301 	andeq	r1, r0, r1, lsl #6
 720:	03000514 	movweq	r0, #1300	; 0x514
 724:	3b0b3a08 	blcc	2cef4c <GUEST_OFFSET-0x3fd310b4>
 728:	0213490b 	andseq	r4, r3, #180224	; 0x2c000
 72c:	1500000a 	strne	r0, [r0, #-10]
 730:	0c3f012e 	ldfeqs	f0, [pc], #-184	; 680 <GUEST_OFFSET-0x3ffff980>
 734:	0b3a0e03 	bleq	e83f48 <GUEST_OFFSET-0x3f17c0b8>
 738:	01110b3b 	tsteq	r1, fp, lsr fp
 73c:	06400112 			; <UNDEFINED> instruction: 0x06400112
 740:	00001301 	andeq	r1, r0, r1, lsl #6
 744:	3f012e16 	svccc	0x00012e16
 748:	3a0e030c 	bcc	381380 <GUEST_OFFSET-0x3fc7ec80>
 74c:	270b3b0b 	strcs	r3, [fp, -fp, lsl #22]
 750:	1201110c 	andne	r1, r1, #3
 754:	01064001 	tsteq	r6, r1
 758:	17000013 	smladne	r0, r3, r0, r0
 75c:	0c3f002e 	ldceq	0, cr0, [pc], #-184	; 6ac <GUEST_OFFSET-0x3ffff954>
 760:	0b3a0e03 	bleq	e83f74 <GUEST_OFFSET-0x3f17c08c>
 764:	0c270b3b 	stceq	11, cr0, [r7], #-236	; 0xffffff14
 768:	01111349 	tsteq	r1, r9, asr #6
 76c:	06400112 			; <UNDEFINED> instruction: 0x06400112
 770:	34180000 	ldrcc	r0, [r8], #-0
 774:	3a0e0300 	bcc	38137c <GUEST_OFFSET-0x3fc7ec84>
 778:	490b3b0b 	stmdbmi	fp, {r0, r1, r3, r8, r9, fp, ip, sp}
 77c:	020c3f13 	andeq	r3, ip, #76	; 0x4c
 780:	0000000a 	andeq	r0, r0, sl

Disassembly of section .debug_aranges:

00000000 <.debug_aranges>:
   0:	0000001c 	andeq	r0, r0, ip, lsl r0
   4:	00000002 	andeq	r0, r0, r2
   8:	00040000 	andeq	r0, r4, r0
   c:	00000000 	andeq	r0, r0, r0
  10:	40000000 	andmi	r0, r0, r0
  14:	00000004 	andeq	r0, r0, r4
	...
  20:	0000001c 	andeq	r0, r0, ip, lsl r0
  24:	007e0002 	rsbseq	r0, lr, r2
  28:	00040000 	andeq	r0, r4, r0
  2c:	00000000 	andeq	r0, r0, r0
  30:	40000004 	andmi	r0, r0, r4
  34:	00000024 	andeq	r0, r0, r4, lsr #32
	...
  40:	0000001c 	andeq	r0, r0, ip, lsl r0
  44:	00f40002 	rscseq	r0, r4, r2
  48:	00040000 	andeq	r0, r4, r0
  4c:	00000000 	andeq	r0, r0, r0
  50:	40000028 	andmi	r0, r0, r8, lsr #32
  54:	000001a0 	andeq	r0, r0, r0, lsr #3
	...
  60:	0000001c 	andeq	r0, r0, ip, lsl r0
  64:	01990002 	orrseq	r0, r9, r2
  68:	00040000 	andeq	r0, r4, r0
  6c:	00000000 	andeq	r0, r0, r0
  70:	400001c8 	andmi	r0, r0, r8, asr #3
  74:	0000005c 	andeq	r0, r0, ip, asr r0
	...
  80:	0000001c 	andeq	r0, r0, ip, lsl r0
  84:	02a00002 	adceq	r0, r0, #2
  88:	00040000 	andeq	r0, r4, r0
  8c:	00000000 	andeq	r0, r0, r0
  90:	40000224 	andmi	r0, r0, r4, lsr #4
  94:	00000890 	muleq	r0, r0, r8
	...
  a0:	0000001c 	andeq	r0, r0, ip, lsl r0
  a4:	068b0002 	streq	r0, [fp], r2
  a8:	00040000 	andeq	r0, r4, r0
  ac:	00000000 	andeq	r0, r0, r0
  b0:	40000ab4 			; <UNDEFINED> instruction: 0x40000ab4
  b4:	00000174 	andeq	r0, r0, r4, ror r1
	...
  c0:	0000001c 	andeq	r0, r0, ip, lsl r0
  c4:	076d0002 	strbeq	r0, [sp, -r2]!
  c8:	00040000 	andeq	r0, r4, r0
  cc:	00000000 	andeq	r0, r0, r0
  d0:	40000c28 	andmi	r0, r0, r8, lsr #24
  d4:	00000030 	andeq	r0, r0, r0, lsr r0
	...
  e0:	0000001c 	andeq	r0, r0, ip, lsl r0
  e4:	08060002 	stmdaeq	r6, {r1}
  e8:	00040000 	andeq	r0, r4, r0
  ec:	00000000 	andeq	r0, r0, r0
  f0:	40000c58 	andmi	r0, r0, r8, asr ip
  f4:	00000afc 	strdeq	r0, [r0], -ip
	...
 100:	0000001c 	andeq	r0, r0, ip, lsl r0
 104:	0d5c0002 	ldcleq	0, cr0, [ip, #-8]
 108:	00040000 	andeq	r0, r4, r0
 10c:	00000000 	andeq	r0, r0, r0
 110:	40001760 	andmi	r1, r0, r0, ror #14
 114:	000000e0 	andeq	r0, r0, r0, ror #1
	...
 120:	0000001c 	andeq	r0, r0, ip, lsl r0
 124:	0df90002 	ldcleq	0, cr0, [r9, #8]!
 128:	00040000 	andeq	r0, r4, r0
 12c:	00000000 	andeq	r0, r0, r0
 130:	40001840 	andmi	r1, r0, r0, asr #16
 134:	00000220 	andeq	r0, r0, r0, lsr #4
	...
 140:	0000001c 	andeq	r0, r0, ip, lsl r0
 144:	10d50002 	sbcsne	r0, r5, r2
 148:	00040000 	andeq	r0, r4, r0
 14c:	00000000 	andeq	r0, r0, r0
 150:	40001a60 	andmi	r1, r0, r0, ror #20
 154:	0000038c 	andeq	r0, r0, ip, lsl #7
	...

Disassembly of section .debug_loc:

00000000 <.debug_loc>:
   0:	00000000 	andeq	r0, r0, r0
   4:	00000004 	andeq	r0, r0, r4
   8:	007d0002 	rsbseq	r0, sp, r2
   c:	00000004 	andeq	r0, r0, r4
  10:	00000008 	andeq	r0, r0, r8
  14:	087d0002 	ldmdaeq	sp!, {r1}^
  18:	00000008 	andeq	r0, r0, r8
  1c:	00000024 	andeq	r0, r0, r4, lsr #32
  20:	047b0002 	ldrbteq	r0, [fp], #-2
	...
  30:	00000004 	andeq	r0, r0, r4
  34:	007d0002 	rsbseq	r0, sp, r2
  38:	00000004 	andeq	r0, r0, r4
  3c:	00000008 	andeq	r0, r0, r8
  40:	047d0002 	ldrbteq	r0, [sp], #-2
  44:	00000008 	andeq	r0, r0, r8
  48:	00000048 	andeq	r0, r0, r8, asr #32
  4c:	047b0002 	ldrbteq	r0, [fp], #-2
	...
  58:	00000048 	andeq	r0, r0, r8, asr #32
  5c:	0000004c 	andeq	r0, r0, ip, asr #32
  60:	007d0002 	rsbseq	r0, sp, r2
  64:	0000004c 	andeq	r0, r0, ip, asr #32
  68:	00000050 	andeq	r0, r0, r0, asr r0
  6c:	087d0002 	ldmdaeq	sp!, {r1}^
  70:	00000050 	andeq	r0, r0, r0, asr r0
  74:	000001a0 	andeq	r0, r0, r0, lsr #3
  78:	047b0002 	ldrbteq	r0, [fp], #-2
	...
  88:	00000004 	andeq	r0, r0, r4
  8c:	007d0002 	rsbseq	r0, sp, r2
  90:	00000004 	andeq	r0, r0, r4
  94:	00000008 	andeq	r0, r0, r8
  98:	047d0002 	ldrbteq	r0, [sp], #-2
  9c:	00000008 	andeq	r0, r0, r8
  a0:	0000001c 	andeq	r0, r0, ip, lsl r0
  a4:	047b0002 	ldrbteq	r0, [fp], #-2
	...
  b0:	0000001c 	andeq	r0, r0, ip, lsl r0
  b4:	00000020 	andeq	r0, r0, r0, lsr #32
  b8:	007d0002 	rsbseq	r0, sp, r2
  bc:	00000020 	andeq	r0, r0, r0, lsr #32
  c0:	00000024 	andeq	r0, r0, r4, lsr #32
  c4:	047d0002 	ldrbteq	r0, [sp], #-2
  c8:	00000024 	andeq	r0, r0, r4, lsr #32
  cc:	00000038 	andeq	r0, r0, r8, lsr r0
  d0:	047b0002 	ldrbteq	r0, [fp], #-2
	...
  dc:	00000038 	andeq	r0, r0, r8, lsr r0
  e0:	0000003c 	andeq	r0, r0, ip, lsr r0
  e4:	007d0002 	rsbseq	r0, sp, r2
  e8:	0000003c 	andeq	r0, r0, ip, lsr r0
  ec:	00000040 	andeq	r0, r0, r0, asr #32
  f0:	087d0002 	ldmdaeq	sp!, {r1}^
  f4:	00000040 	andeq	r0, r0, r0, asr #32
  f8:	0000005c 	andeq	r0, r0, ip, asr r0
  fc:	047b0002 	ldrbteq	r0, [fp], #-2
	...
 10c:	00000004 	andeq	r0, r0, r4
 110:	007d0002 	rsbseq	r0, sp, r2
 114:	00000004 	andeq	r0, r0, r4
 118:	00000008 	andeq	r0, r0, r8
 11c:	087d0002 	ldmdaeq	sp!, {r1}^
 120:	00000008 	andeq	r0, r0, r8
 124:	0000002c 	andeq	r0, r0, ip, lsr #32
 128:	047b0002 	ldrbteq	r0, [fp], #-2
	...
 134:	0000002c 	andeq	r0, r0, ip, lsr #32
 138:	00000030 	andeq	r0, r0, r0, lsr r0
 13c:	007d0002 	rsbseq	r0, sp, r2
 140:	00000030 	andeq	r0, r0, r0, lsr r0
 144:	00000034 	andeq	r0, r0, r4, lsr r0
 148:	087d0002 	ldmdaeq	sp!, {r1}^
 14c:	00000034 	andeq	r0, r0, r4, lsr r0
 150:	00000168 	andeq	r0, r0, r8, ror #2
 154:	047b0002 	ldrbteq	r0, [fp], #-2
	...
 160:	00000168 	andeq	r0, r0, r8, ror #2
 164:	0000016c 	andeq	r0, r0, ip, ror #2
 168:	007d0002 	rsbseq	r0, sp, r2
 16c:	0000016c 	andeq	r0, r0, ip, ror #2
 170:	00000170 	andeq	r0, r0, r0, ror r1
 174:	0c7d0002 	ldcleq	0, cr0, [sp], #-8
 178:	00000170 	andeq	r0, r0, r0, ror r1
 17c:	000003b4 			; <UNDEFINED> instruction: 0x000003b4
 180:	047b0002 	ldrbteq	r0, [fp], #-2
	...
 18c:	000003b4 			; <UNDEFINED> instruction: 0x000003b4
 190:	000003b8 			; <UNDEFINED> instruction: 0x000003b8
 194:	007d0002 	rsbseq	r0, sp, r2
 198:	000003b8 			; <UNDEFINED> instruction: 0x000003b8
 19c:	000003bc 			; <UNDEFINED> instruction: 0x000003bc
 1a0:	0c7d0002 	ldcleq	0, cr0, [sp], #-8
 1a4:	000003bc 			; <UNDEFINED> instruction: 0x000003bc
 1a8:	000004c0 	andeq	r0, r0, r0, asr #9
 1ac:	047b0002 	ldrbteq	r0, [fp], #-2
	...
 1b8:	000004c0 	andeq	r0, r0, r0, asr #9
 1bc:	000004c4 	andeq	r0, r0, r4, asr #9
 1c0:	007d0002 	rsbseq	r0, sp, r2
 1c4:	000004c4 	andeq	r0, r0, r4, asr #9
 1c8:	000004c8 	andeq	r0, r0, r8, asr #9
 1cc:	047d0002 	ldrbteq	r0, [sp], #-2
 1d0:	000004c8 	andeq	r0, r0, r8, asr #9
 1d4:	00000518 	andeq	r0, r0, r8, lsl r5
 1d8:	047b0002 	ldrbteq	r0, [fp], #-2
	...
 1e4:	00000518 	andeq	r0, r0, r8, lsl r5
 1e8:	0000051c 	andeq	r0, r0, ip, lsl r5
 1ec:	007d0002 	rsbseq	r0, sp, r2
 1f0:	0000051c 	andeq	r0, r0, ip, lsl r5
 1f4:	00000520 	andeq	r0, r0, r0, lsr #10
 1f8:	047d0002 	ldrbteq	r0, [sp], #-2
 1fc:	00000520 	andeq	r0, r0, r0, lsr #10
 200:	00000570 	andeq	r0, r0, r0, ror r5
 204:	047b0002 	ldrbteq	r0, [fp], #-2
	...
 210:	00000570 	andeq	r0, r0, r0, ror r5
 214:	00000574 	andeq	r0, r0, r4, ror r5
 218:	007d0002 	rsbseq	r0, sp, r2
 21c:	00000574 	andeq	r0, r0, r4, ror r5
 220:	00000578 	andeq	r0, r0, r8, ror r5
 224:	047d0002 	ldrbteq	r0, [sp], #-2
 228:	00000578 	andeq	r0, r0, r8, ror r5
 22c:	000005e0 	andeq	r0, r0, r0, ror #11
 230:	047b0002 	ldrbteq	r0, [fp], #-2
	...
 23c:	000005e0 	andeq	r0, r0, r0, ror #11
 240:	000005e4 	andeq	r0, r0, r4, ror #11
 244:	007d0002 	rsbseq	r0, sp, r2
 248:	000005e4 	andeq	r0, r0, r4, ror #11
 24c:	000005e8 	andeq	r0, r0, r8, ror #11
 250:	087d0002 	ldmdaeq	sp!, {r1}^
 254:	000005e8 	andeq	r0, r0, r8, ror #11
 258:	00000730 	andeq	r0, r0, r0, lsr r7
 25c:	047b0002 	ldrbteq	r0, [fp], #-2
	...
 268:	00000730 	andeq	r0, r0, r0, lsr r7
 26c:	00000734 	andeq	r0, r0, r4, lsr r7
 270:	007d0002 	rsbseq	r0, sp, r2
 274:	00000734 	andeq	r0, r0, r4, lsr r7
 278:	00000738 	andeq	r0, r0, r8, lsr r7
 27c:	087d0002 	ldmdaeq	sp!, {r1}^
 280:	00000738 	andeq	r0, r0, r8, lsr r7
 284:	00000890 	muleq	r0, r0, r8
 288:	047b0002 	ldrbteq	r0, [fp], #-2
	...
 298:	00000004 	andeq	r0, r0, r4
 29c:	007d0002 	rsbseq	r0, sp, r2
 2a0:	00000004 	andeq	r0, r0, r4
 2a4:	00000008 	andeq	r0, r0, r8
 2a8:	087d0002 	ldmdaeq	sp!, {r1}^
 2ac:	00000008 	andeq	r0, r0, r8
 2b0:	00000174 	andeq	r0, r0, r4, ror r1
 2b4:	047b0002 	ldrbteq	r0, [fp], #-2
	...
 2c4:	00000004 	andeq	r0, r0, r4
 2c8:	007d0002 	rsbseq	r0, sp, r2
 2cc:	00000004 	andeq	r0, r0, r4
 2d0:	00000008 	andeq	r0, r0, r8
 2d4:	047d0002 	ldrbteq	r0, [sp], #-2
 2d8:	00000008 	andeq	r0, r0, r8
 2dc:	00000030 	andeq	r0, r0, r0, lsr r0
 2e0:	047b0002 	ldrbteq	r0, [fp], #-2
	...
 2f0:	00000004 	andeq	r0, r0, r4
 2f4:	007d0002 	rsbseq	r0, sp, r2
 2f8:	00000004 	andeq	r0, r0, r4
 2fc:	00000008 	andeq	r0, r0, r8
 300:	047d0002 	ldrbteq	r0, [sp], #-2
 304:	00000008 	andeq	r0, r0, r8
 308:	00000090 	muleq	r0, r0, r0
 30c:	047b0002 	ldrbteq	r0, [fp], #-2
	...
 318:	00000090 	muleq	r0, r0, r0
 31c:	00000094 	muleq	r0, r4, r0
 320:	007d0002 	rsbseq	r0, sp, r2
 324:	00000094 	muleq	r0, r4, r0
 328:	00000098 	muleq	r0, r8, r0
 32c:	047d0002 	ldrbteq	r0, [sp], #-2
 330:	00000098 	muleq	r0, r8, r0
 334:	00000138 	andeq	r0, r0, r8, lsr r1
 338:	047b0002 	ldrbteq	r0, [fp], #-2
	...
 344:	00000138 	andeq	r0, r0, r8, lsr r1
 348:	0000013c 	andeq	r0, r0, ip, lsr r1
 34c:	007d0002 	rsbseq	r0, sp, r2
 350:	0000013c 	andeq	r0, r0, ip, lsr r1
 354:	00000140 	andeq	r0, r0, r0, asr #2
 358:	087d0002 	ldmdaeq	sp!, {r1}^
 35c:	00000140 	andeq	r0, r0, r0, asr #2
 360:	00000170 	andeq	r0, r0, r0, ror r1
 364:	047b0002 	ldrbteq	r0, [fp], #-2
	...
 370:	00000170 	andeq	r0, r0, r0, ror r1
 374:	00000174 	andeq	r0, r0, r4, ror r1
 378:	007d0002 	rsbseq	r0, sp, r2
 37c:	00000174 	andeq	r0, r0, r4, ror r1
 380:	00000178 	andeq	r0, r0, r8, ror r1
 384:	087d0002 	ldmdaeq	sp!, {r1}^
 388:	00000178 	andeq	r0, r0, r8, ror r1
 38c:	000001d0 	ldrdeq	r0, [r0], -r0	; <UNPREDICTABLE>
 390:	047b0002 	ldrbteq	r0, [fp], #-2
	...
 39c:	000001d0 	ldrdeq	r0, [r0], -r0	; <UNPREDICTABLE>
 3a0:	000001d4 	ldrdeq	r0, [r0], -r4
 3a4:	007d0002 	rsbseq	r0, sp, r2
 3a8:	000001d4 	ldrdeq	r0, [r0], -r4
 3ac:	000001d8 	ldrdeq	r0, [r0], -r8
 3b0:	047d0002 	ldrbteq	r0, [sp], #-2
 3b4:	000001d8 	ldrdeq	r0, [r0], -r8
 3b8:	00000258 	andeq	r0, r0, r8, asr r2
 3bc:	047b0002 	ldrbteq	r0, [fp], #-2
	...
 3c8:	00000258 	andeq	r0, r0, r8, asr r2
 3cc:	0000025c 	andeq	r0, r0, ip, asr r2
 3d0:	007d0002 	rsbseq	r0, sp, r2
 3d4:	0000025c 	andeq	r0, r0, ip, asr r2
 3d8:	00000260 	andeq	r0, r0, r0, ror #4
 3dc:	047d0002 	ldrbteq	r0, [sp], #-2
 3e0:	00000260 	andeq	r0, r0, r0, ror #4
 3e4:	000002ac 	andeq	r0, r0, ip, lsr #5
 3e8:	047b0002 	ldrbteq	r0, [fp], #-2
	...
 3f4:	000002ac 	andeq	r0, r0, ip, lsr #5
 3f8:	000002b0 			; <UNDEFINED> instruction: 0x000002b0
 3fc:	007d0002 	rsbseq	r0, sp, r2
 400:	000002b0 			; <UNDEFINED> instruction: 0x000002b0
 404:	000002b4 			; <UNDEFINED> instruction: 0x000002b4
 408:	047d0002 	ldrbteq	r0, [sp], #-2
 40c:	000002b4 			; <UNDEFINED> instruction: 0x000002b4
 410:	00000328 	andeq	r0, r0, r8, lsr #6
 414:	047b0002 	ldrbteq	r0, [fp], #-2
	...
 420:	00000328 	andeq	r0, r0, r8, lsr #6
 424:	0000032c 	andeq	r0, r0, ip, lsr #6
 428:	007d0002 	rsbseq	r0, sp, r2
 42c:	0000032c 	andeq	r0, r0, ip, lsr #6
 430:	00000330 	andeq	r0, r0, r0, lsr r3
 434:	047d0002 	ldrbteq	r0, [sp], #-2
 438:	00000330 	andeq	r0, r0, r0, lsr r3
 43c:	000003e8 	andeq	r0, r0, r8, ror #7
 440:	047b0002 	ldrbteq	r0, [fp], #-2
	...
 44c:	000003e8 	andeq	r0, r0, r8, ror #7
 450:	000003ec 	andeq	r0, r0, ip, ror #7
 454:	007d0002 	rsbseq	r0, sp, r2
 458:	000003ec 	andeq	r0, r0, ip, ror #7
 45c:	000003f0 	strdeq	r0, [r0], -r0	; <UNPREDICTABLE>
 460:	047d0002 	ldrbteq	r0, [sp], #-2
 464:	000003f0 	strdeq	r0, [r0], -r0	; <UNPREDICTABLE>
 468:	000004cc 	andeq	r0, r0, ip, asr #9
 46c:	047b0002 	ldrbteq	r0, [fp], #-2
	...
 478:	000004cc 	andeq	r0, r0, ip, asr #9
 47c:	000004d0 	ldrdeq	r0, [r0], -r0	; <UNPREDICTABLE>
 480:	007d0002 	rsbseq	r0, sp, r2
 484:	000004d0 	ldrdeq	r0, [r0], -r0	; <UNPREDICTABLE>
 488:	000004d4 	ldrdeq	r0, [r0], -r4
 48c:	047d0002 	ldrbteq	r0, [sp], #-2
 490:	000004d4 	ldrdeq	r0, [r0], -r4
 494:	000005e8 	andeq	r0, r0, r8, ror #11
 498:	047b0002 	ldrbteq	r0, [fp], #-2
	...
 4a4:	000005e8 	andeq	r0, r0, r8, ror #11
 4a8:	000005ec 	andeq	r0, r0, ip, ror #11
 4ac:	007d0002 	rsbseq	r0, sp, r2
 4b0:	000005ec 	andeq	r0, r0, ip, ror #11
 4b4:	000005f0 	strdeq	r0, [r0], -r0	; <UNPREDICTABLE>
 4b8:	047d0002 	ldrbteq	r0, [sp], #-2
 4bc:	000005f0 	strdeq	r0, [r0], -r0	; <UNPREDICTABLE>
 4c0:	00000668 	andeq	r0, r0, r8, ror #12
 4c4:	047b0002 	ldrbteq	r0, [fp], #-2
	...
 4d0:	00000668 	andeq	r0, r0, r8, ror #12
 4d4:	0000066c 	andeq	r0, r0, ip, ror #12
 4d8:	007d0002 	rsbseq	r0, sp, r2
 4dc:	0000066c 	andeq	r0, r0, ip, ror #12
 4e0:	00000670 	andeq	r0, r0, r0, ror r6
 4e4:	047d0002 	ldrbteq	r0, [sp], #-2
 4e8:	00000670 	andeq	r0, r0, r0, ror r6
 4ec:	000006f4 	strdeq	r0, [r0], -r4
 4f0:	047b0002 	ldrbteq	r0, [fp], #-2
	...
 4fc:	000006f4 	strdeq	r0, [r0], -r4
 500:	000006f8 	strdeq	r0, [r0], -r8
 504:	007d0002 	rsbseq	r0, sp, r2
 508:	000006f8 	strdeq	r0, [r0], -r8
 50c:	000006fc 	strdeq	r0, [r0], -ip
 510:	047d0002 	ldrbteq	r0, [sp], #-2
 514:	000006fc 	strdeq	r0, [r0], -ip
 518:	00000888 	andeq	r0, r0, r8, lsl #17
 51c:	047b0002 	ldrbteq	r0, [fp], #-2
	...
 528:	00000888 	andeq	r0, r0, r8, lsl #17
 52c:	0000088c 	andeq	r0, r0, ip, lsl #17
 530:	007d0002 	rsbseq	r0, sp, r2
 534:	0000088c 	andeq	r0, r0, ip, lsl #17
 538:	00000890 	muleq	r0, r0, r8
 53c:	047d0002 	ldrbteq	r0, [sp], #-2
 540:	00000890 	muleq	r0, r0, r8
 544:	00000988 	andeq	r0, r0, r8, lsl #19
 548:	047b0002 	ldrbteq	r0, [fp], #-2
	...
 554:	00000988 	andeq	r0, r0, r8, lsl #19
 558:	0000098c 	andeq	r0, r0, ip, lsl #19
 55c:	007d0002 	rsbseq	r0, sp, r2
 560:	0000098c 	andeq	r0, r0, ip, lsl #19
 564:	00000990 	muleq	r0, r0, r9
 568:	047d0002 	ldrbteq	r0, [sp], #-2
 56c:	00000990 	muleq	r0, r0, r9
 570:	00000a18 	andeq	r0, r0, r8, lsl sl
 574:	047b0002 	ldrbteq	r0, [fp], #-2
	...
 580:	00000a18 	andeq	r0, r0, r8, lsl sl
 584:	00000a1c 	andeq	r0, r0, ip, lsl sl
 588:	007d0002 	rsbseq	r0, sp, r2
 58c:	00000a1c 	andeq	r0, r0, ip, lsl sl
 590:	00000a20 	andeq	r0, r0, r0, lsr #20
 594:	047d0002 	ldrbteq	r0, [sp], #-2
 598:	00000a20 	andeq	r0, r0, r0, lsr #20
 59c:	00000afc 	strdeq	r0, [r0], -ip
 5a0:	047b0002 	ldrbteq	r0, [fp], #-2
	...
 5b0:	00000004 	andeq	r0, r0, r4
 5b4:	007d0002 	rsbseq	r0, sp, r2
 5b8:	00000004 	andeq	r0, r0, r4
 5bc:	00000008 	andeq	r0, r0, r8
 5c0:	047d0002 	ldrbteq	r0, [sp], #-2
 5c4:	00000008 	andeq	r0, r0, r8
 5c8:	00000060 	andeq	r0, r0, r0, rrx
 5cc:	047b0002 	ldrbteq	r0, [fp], #-2
	...
 5d8:	00000060 	andeq	r0, r0, r0, rrx
 5dc:	00000064 	andeq	r0, r0, r4, rrx
 5e0:	007d0002 	rsbseq	r0, sp, r2
 5e4:	00000064 	andeq	r0, r0, r4, rrx
 5e8:	00000068 	andeq	r0, r0, r8, rrx
 5ec:	087d0002 	ldmdaeq	sp!, {r1}^
 5f0:	00000068 	andeq	r0, r0, r8, rrx
 5f4:	000000e4 	andeq	r0, r0, r4, ror #1
 5f8:	047b0002 	ldrbteq	r0, [fp], #-2
	...
 604:	000000e4 	andeq	r0, r0, r4, ror #1
 608:	000000e8 	andeq	r0, r0, r8, ror #1
 60c:	007d0002 	rsbseq	r0, sp, r2
 610:	000000e8 	andeq	r0, r0, r8, ror #1
 614:	000000ec 	andeq	r0, r0, ip, ror #1
 618:	087d0002 	ldmdaeq	sp!, {r1}^
 61c:	000000ec 	andeq	r0, r0, ip, ror #1
 620:	0000012c 	andeq	r0, r0, ip, lsr #2
 624:	047b0002 	ldrbteq	r0, [fp], #-2
	...
 630:	0000012c 	andeq	r0, r0, ip, lsr #2
 634:	00000130 	andeq	r0, r0, r0, lsr r1
 638:	007d0002 	rsbseq	r0, sp, r2
 63c:	00000130 	andeq	r0, r0, r0, lsr r1
 640:	00000134 	andeq	r0, r0, r4, lsr r1
 644:	087d0002 	ldmdaeq	sp!, {r1}^
 648:	00000134 	andeq	r0, r0, r4, lsr r1
 64c:	000001d0 	ldrdeq	r0, [r0], -r0	; <UNPREDICTABLE>
 650:	047b0002 	ldrbteq	r0, [fp], #-2
	...
 65c:	000001d0 	ldrdeq	r0, [r0], -r0	; <UNPREDICTABLE>
 660:	000001d4 	ldrdeq	r0, [r0], -r4
 664:	007d0002 	rsbseq	r0, sp, r2
 668:	000001d4 	ldrdeq	r0, [r0], -r4
 66c:	000001d8 	ldrdeq	r0, [r0], -r8
 670:	087d0002 	ldmdaeq	sp!, {r1}^
 674:	000001d8 	ldrdeq	r0, [r0], -r8
 678:	0000020c 	andeq	r0, r0, ip, lsl #4
 67c:	047b0002 	ldrbteq	r0, [fp], #-2
	...
 688:	0000020c 	andeq	r0, r0, ip, lsl #4
 68c:	00000210 	andeq	r0, r0, r0, lsl r2
 690:	007d0002 	rsbseq	r0, sp, r2
 694:	00000210 	andeq	r0, r0, r0, lsl r2
 698:	00000214 	andeq	r0, r0, r4, lsl r2
 69c:	047d0002 	ldrbteq	r0, [sp], #-2
 6a0:	00000214 	andeq	r0, r0, r4, lsl r2
 6a4:	00000220 	andeq	r0, r0, r0, lsr #4
 6a8:	047b0002 	ldrbteq	r0, [fp], #-2
	...
 6b8:	00000004 	andeq	r0, r0, r4
 6bc:	007d0002 	rsbseq	r0, sp, r2
 6c0:	00000004 	andeq	r0, r0, r4
 6c4:	00000008 	andeq	r0, r0, r8
 6c8:	047d0002 	ldrbteq	r0, [sp], #-2
 6cc:	00000008 	andeq	r0, r0, r8
 6d0:	00000034 	andeq	r0, r0, r4, lsr r0
 6d4:	047b0002 	ldrbteq	r0, [fp], #-2
	...
 6e0:	00000034 	andeq	r0, r0, r4, lsr r0
 6e4:	00000038 	andeq	r0, r0, r8, lsr r0
 6e8:	007d0002 	rsbseq	r0, sp, r2
 6ec:	00000038 	andeq	r0, r0, r8, lsr r0
 6f0:	0000003c 	andeq	r0, r0, ip, lsr r0
 6f4:	047d0002 	ldrbteq	r0, [sp], #-2
 6f8:	0000003c 	andeq	r0, r0, ip, lsr r0
 6fc:	00000064 	andeq	r0, r0, r4, rrx
 700:	047b0002 	ldrbteq	r0, [fp], #-2
	...
 70c:	00000064 	andeq	r0, r0, r4, rrx
 710:	00000068 	andeq	r0, r0, r8, rrx
 714:	007d0002 	rsbseq	r0, sp, r2
 718:	00000068 	andeq	r0, r0, r8, rrx
 71c:	0000006c 	andeq	r0, r0, ip, rrx
 720:	087d0002 	ldmdaeq	sp!, {r1}^
 724:	0000006c 	andeq	r0, r0, ip, rrx
 728:	000000e4 	andeq	r0, r0, r4, ror #1
 72c:	047b0002 	ldrbteq	r0, [fp], #-2
	...
 738:	000000e4 	andeq	r0, r0, r4, ror #1
 73c:	000000e8 	andeq	r0, r0, r8, ror #1
 740:	007d0002 	rsbseq	r0, sp, r2
 744:	000000e8 	andeq	r0, r0, r8, ror #1
 748:	000000ec 	andeq	r0, r0, ip, ror #1
 74c:	087d0002 	ldmdaeq	sp!, {r1}^
 750:	000000ec 	andeq	r0, r0, ip, ror #1
 754:	00000158 	andeq	r0, r0, r8, asr r1
 758:	047b0002 	ldrbteq	r0, [fp], #-2
	...
 764:	00000158 	andeq	r0, r0, r8, asr r1
 768:	0000015c 	andeq	r0, r0, ip, asr r1
 76c:	007d0002 	rsbseq	r0, sp, r2
 770:	0000015c 	andeq	r0, r0, ip, asr r1
 774:	00000160 	andeq	r0, r0, r0, ror #2
 778:	047d0002 	ldrbteq	r0, [sp], #-2
 77c:	00000160 	andeq	r0, r0, r0, ror #2
 780:	0000018c 	andeq	r0, r0, ip, lsl #3
 784:	047b0002 	ldrbteq	r0, [fp], #-2
	...
 790:	0000018c 	andeq	r0, r0, ip, lsl #3
 794:	00000190 	muleq	r0, r0, r1
 798:	007d0002 	rsbseq	r0, sp, r2
 79c:	00000190 	muleq	r0, r0, r1
 7a0:	00000194 	muleq	r0, r4, r1
 7a4:	087d0002 	ldmdaeq	sp!, {r1}^
 7a8:	00000194 	muleq	r0, r4, r1
 7ac:	000001c0 	andeq	r0, r0, r0, asr #3
 7b0:	047b0002 	ldrbteq	r0, [fp], #-2
	...
 7bc:	000001c0 	andeq	r0, r0, r0, asr #3
 7c0:	000001c4 	andeq	r0, r0, r4, asr #3
 7c4:	007d0002 	rsbseq	r0, sp, r2
 7c8:	000001c4 	andeq	r0, r0, r4, asr #3
 7cc:	000001c8 	andeq	r0, r0, r8, asr #3
 7d0:	087d0002 	ldmdaeq	sp!, {r1}^
 7d4:	000001c8 	andeq	r0, r0, r8, asr #3
 7d8:	00000208 	andeq	r0, r0, r8, lsl #4
 7dc:	047b0002 	ldrbteq	r0, [fp], #-2
	...
 7e8:	00000208 	andeq	r0, r0, r8, lsl #4
 7ec:	0000020c 	andeq	r0, r0, ip, lsl #4
 7f0:	007d0002 	rsbseq	r0, sp, r2
 7f4:	0000020c 	andeq	r0, r0, ip, lsl #4
 7f8:	00000210 	andeq	r0, r0, r0, lsl r2
 7fc:	047d0002 	ldrbteq	r0, [sp], #-2
 800:	00000210 	andeq	r0, r0, r0, lsl r2
 804:	0000023c 	andeq	r0, r0, ip, lsr r2
 808:	047b0002 	ldrbteq	r0, [fp], #-2
	...
 814:	0000023c 	andeq	r0, r0, ip, lsr r2
 818:	00000240 	andeq	r0, r0, r0, asr #4
 81c:	007d0002 	rsbseq	r0, sp, r2
 820:	00000240 	andeq	r0, r0, r0, asr #4
 824:	00000244 	andeq	r0, r0, r4, asr #4
 828:	087d0002 	ldmdaeq	sp!, {r1}^
 82c:	00000244 	andeq	r0, r0, r4, asr #4
 830:	00000330 	andeq	r0, r0, r0, lsr r3
 834:	047b0002 	ldrbteq	r0, [fp], #-2
	...
 840:	00000330 	andeq	r0, r0, r0, lsr r3
 844:	00000334 	andeq	r0, r0, r4, lsr r3
 848:	007d0002 	rsbseq	r0, sp, r2
 84c:	00000334 	andeq	r0, r0, r4, lsr r3
 850:	00000338 	andeq	r0, r0, r8, lsr r3
 854:	087d0002 	ldmdaeq	sp!, {r1}^
 858:	00000338 	andeq	r0, r0, r8, lsr r3
 85c:	00000370 	andeq	r0, r0, r0, ror r3
 860:	047b0002 	ldrbteq	r0, [fp], #-2
	...
 86c:	00000370 	andeq	r0, r0, r0, ror r3
 870:	00000374 	andeq	r0, r0, r4, ror r3
 874:	007d0002 	rsbseq	r0, sp, r2
 878:	00000374 	andeq	r0, r0, r4, ror r3
 87c:	00000378 	andeq	r0, r0, r8, ror r3
 880:	087d0002 	ldmdaeq	sp!, {r1}^
 884:	00000378 	andeq	r0, r0, r8, ror r3
 888:	0000038c 	andeq	r0, r0, ip, lsl #7
 88c:	047b0002 	ldrbteq	r0, [fp], #-2
	...

Disassembly of section .debug_str:

00000000 <.debug_str>:
   0:	726f6873 	rsbvc	r6, pc, #7536640	; 0x730000
   4:	6e752074 	mrcvs	0, 3, r2, cr5, cr4, {3}
   8:	6e676973 	mcrvs	9, 3, r6, cr7, cr3, {3}
   c:	69206465 	stmdbvs	r0!, {r0, r2, r5, r6, sl, sp, lr}
  10:	7300746e 	movwvc	r7, #1134	; 0x46e
  14:	74726f68 	ldrbtvc	r6, [r2], #-3944	; 0xf68
  18:	746e6920 	strbtvc	r6, [lr], #-2336	; 0x920
  1c:	69616d00 	stmdbvs	r1!, {r8, sl, fp, sp, lr}^
  20:	6f6c006e 	svcvs	0x006c006e
  24:	6c20676e 	stcvs	7, cr6, [r0], #-440	; 0xfffffe48
  28:	20676e6f 	rsbcs	r6, r7, pc, ror #28
  2c:	69736e75 	ldmdbvs	r3!, {r0, r2, r4, r5, r6, r9, sl, fp, sp, lr}^
  30:	64656e67 	strbtvs	r6, [r5], #-3687	; 0xe67
  34:	746e6920 	strbtvc	r6, [lr], #-2336	; 0x920
  38:	69616d00 	stmdbvs	r1!, {r8, sl, fp, sp, lr}^
  3c:	00632e6e 	rsbeq	r2, r3, lr, ror #28
  40:	20554e47 	subscs	r4, r5, r7, asr #28
  44:	2e342043 	cdpcs	0, 3, cr2, cr4, cr3, {2}
  48:	00332e36 	eorseq	r2, r3, r6, lsr lr
  4c:	69736e75 	ldmdbvs	r3!, {r0, r2, r4, r5, r6, r9, sl, fp, sp, lr}^
  50:	64656e67 	strbtvs	r6, [r5], #-3687	; 0xe67
  54:	61686320 	cmnvs	r8, r0, lsr #6
  58:	682f0072 	stmdavs	pc!, {r1, r4, r5, r6}	; <UNPREDICTABLE>
  5c:	2f656d6f 	svccs	0x00656d6f
  60:	69736163 	ldmdbvs	r3!, {r0, r1, r5, r6, r8, sp, lr}^
  64:	6f776e6f 	svcvs	0x00776e6f
  68:	686b2f6f 	stmdavs	fp!, {r0, r1, r2, r3, r5, r6, r8, r9, sl, fp, sp}^
  6c:	72657079 	rsbvc	r7, r5, #121	; 0x79
  70:	6f736976 	svcvs	0x00736976
  74:	6c702f72 	ldclvs	15, cr2, [r0], #-456	; 0xfffffe38
  78:	6f667461 	svcvs	0x00667461
  7c:	642d6d72 	strtvs	r6, [sp], #-3442	; 0xd72
  80:	63697665 	cmnvs	r9, #105906176	; 0x6500000
  84:	6f632f65 	svcvs	0x00632f65
  88:	78657472 	stmdavc	r5!, {r1, r4, r5, r6, sl, ip, sp, lr}^
  8c:	3531615f 	ldrcc	r6, [r1, #-351]!	; 0x15f
  90:	615f3278 	cmpvs	pc, r8, ror r2	; <UNPREDICTABLE>
  94:	61646e72 	smcvs	18146	; 0x46e2
  98:	672f656c 	strvs	r6, [pc, -ip, ror #10]!
  9c:	74736575 	ldrbtvc	r6, [r3], #-1397	; 0x575
  a0:	622f736f 	eorvs	r7, pc, #-1140850687	; 0xbc000001
  a4:	6575676d 	ldrbvs	r6, [r5, #-1901]!	; 0x76d
  a8:	6c007473 	cfstrsvs	mvf7, [r0], {115}	; 0x73
  ac:	20676e6f 	rsbcs	r6, r7, pc, ror #28
  b0:	676e6f6c 	strbvs	r6, [lr, -ip, ror #30]!
  b4:	746e6920 	strbtvc	r6, [lr], #-2336	; 0x920
  b8:	2f2e2e00 	svccs	0x002e2e00
  bc:	2e2f2e2e 	cdpcs	14, 2, cr2, cr15, cr14, {1}
  c0:	2e2e2f2e 	cdpcs	15, 2, cr2, cr14, cr14, {1}
  c4:	6d6f632f 	stclvs	3, cr6, [pc, #-188]!	; 10 <GUEST_OFFSET-0x3ffffff0>
  c8:	2f6e6f6d 	svccs	0x006e6f6d
  cc:	73657567 	cmnvc	r5, #432013312	; 0x19c00000
  d0:	6f632f74 	svcvs	0x00632f74
  d4:	632f6572 	teqvs	pc, #478150656	; 0x1c800000
  d8:	6174735f 	cmnvs	r4, pc, asr r3
  dc:	632e7472 	teqvs	lr, #1912602624	; 0x72000000
  e0:	6d726e00 	ldclvs	14, cr6, [r2, #-0]
  e4:	6c65645f 	cfstrdvs	mvd6, [r5], #-380	; 0xfffffe84
  e8:	6e007961 	cdpvs	9, 0, cr7, cr0, cr1, {3}
  ec:	6c5f6d72 	mrrcvs	13, 7, r6, pc, cr2	; <UNPREDICTABLE>
  f0:	00706f6f 	rsbseq	r6, r0, pc, ror #30
  f4:	6378655f 	cmnvs	r8, #398458880	; 0x17c00000
  f8:	5f747065 	svcpl	0x00747065
  fc:	61686e75 	smcvs	34533	; 0x86e5
 100:	656c646e 	strbvs	r6, [ip, #-1134]!	; 0x46e
 104:	2e2e0064 	cdpcs	0, 2, cr0, cr14, cr4, {3}
 108:	2f2e2e2f 	svccs	0x002e2e2f
 10c:	2e2f2e2e 	cdpcs	14, 2, cr2, cr15, cr14, {1}
 110:	6f632f2e 	svcvs	0x00632f2e
 114:	6e6f6d6d 	cdpvs	13, 6, cr6, cr15, cr13, {3}
 118:	6575672f 	ldrbvs	r6, [r5, #-1839]!	; 0x72f
 11c:	632f7473 	teqvs	pc, #1929379840	; 0x73000000
 120:	2f65726f 	svccs	0x0065726f
 124:	65637865 	strbvs	r7, [r3, #-2149]!	; 0x865
 128:	6f697470 	svcvs	0x00697470
 12c:	00632e6e 	rsbeq	r2, r3, lr, ror #28
 130:	72737063 	rsbsvc	r7, r3, #99	; 0x63
 134:	63726100 	cmnvs	r2, #0
 138:	65725f68 	ldrbvs	r5, [r2, #-3944]!	; 0xf68
 13c:	5f007367 	svcpl	0x00007367
 140:	65637865 	strbvs	r7, [r3, #-2149]!	; 0x865
 144:	695f7470 	ldmdbvs	pc, {r4, r5, r6, sl, ip, sp, lr}^	; <UNPREDICTABLE>
 148:	67007172 	smlsdxvs	r0, r2, r1, r7
 14c:	695f6369 	ldmdbvs	pc, {r0, r3, r5, r6, r8, r9, sp, lr}^	; <UNPREDICTABLE>
 150:	7265746e 	rsbvc	r7, r5, #1845493760	; 0x6e000000
 154:	74707572 	ldrbtvc	r7, [r0], #-1394	; 0x572
 158:	78655f00 	stmdavc	r5!, {r8, r9, sl, fp, ip, lr}^
 15c:	74706563 	ldrbtvc	r6, [r0], #-1379	; 0x563
 160:	6376735f 	cmnvs	r6, #2080374785	; 0x7c000001
 164:	5f616200 	svcpl	0x00616200
 168:	63636967 	cmnvs	r3, #1687552	; 0x19c000
 16c:	5f616200 	svcpl	0x00616200
 170:	64636967 	strbtvs	r6, [r3], #-2407	; 0x967
 174:	61647000 	cmnvs	r4, r0
 178:	73006174 	movwvc	r6, #372	; 0x174
 17c:	705f706d 	subsvc	r7, pc, sp, rrx
 180:	65636f72 	strbvs	r6, [r3, #-3954]!	; 0xf72
 184:	726f7373 	rsbvc	r7, pc, #-872415231	; 0xcc000001
 188:	0064695f 	rsbeq	r6, r4, pc, asr r9
 18c:	75736572 	ldrbvc	r6, [r3, #-1394]!	; 0x572
 190:	7600746c 	strvc	r7, [r0], -ip, ror #8
 194:	65756c61 	ldrbvs	r6, [r5, #-3169]!	; 0xc61
 198:	63696700 	cmnvs	r9, #0
 19c:	616e655f 	cmnvs	lr, pc, asr r5
 1a0:	5f656c62 	svcpl	0x00656c62
 1a4:	00717269 	rsbseq	r7, r1, r9, ror #4
 1a8:	74696e69 	strbtvc	r6, [r9], #-3689	; 0xe69
 1ac:	696c6169 	stmdbvs	ip!, {r0, r3, r5, r6, r8, sp, lr}^
 1b0:	0064657a 	rsbeq	r6, r4, sl, ror r5
 1b4:	4d4d5648 	stclmi	6, cr5, [sp, #-288]	; 0xfffffee0
 1b8:	4154535f 	cmpmi	r4, pc, asr r3
 1bc:	5f535554 	svcpl	0x00535554
 1c0:	5f544f4e 	svcpl	0x00544f4e
 1c4:	4e554f46 	cdpmi	15, 5, cr4, cr5, cr6, {2}
 1c8:	69670044 	stmdbvs	r7!, {r2, r6}^
 1cc:	69645f63 	stmdbvs	r4!, {r0, r1, r5, r6, r8, r9, sl, fp, ip, lr}^
 1d0:	6c626173 	stfvse	f6, [r2], #-460	; 0xfffffe34
 1d4:	72695f65 	rsbvc	r5, r9, #404	; 0x194
 1d8:	56480071 			; <UNDEFINED> instruction: 0x56480071
 1dc:	535f4d4d 	cmppl	pc, #4928	; 0x1340
 1e0:	55544154 	ldrbpl	r4, [r4, #-340]	; 0x154
 1e4:	55535f53 	ldrbpl	r5, [r3, #-3923]	; 0xf53
 1e8:	53454343 	movtpl	r4, #21315	; 0x5343
 1ec:	69670053 	stmdbvs	r7!, {r0, r1, r4, r6}^
 1f0:	75645f63 	strbvc	r5, [r4, #-3939]!	; 0xf63
 1f4:	725f706d 	subsvc	r7, pc, #109	; 0x6d
 1f8:	73696765 	cmnvc	r9, #26476544	; 0x1940000
 1fc:	73726574 	cmnvc	r2, #486539264	; 0x1d000000
 200:	6e696c00 	cdpvs	12, 6, cr6, cr9, cr0, {0}
 204:	48007365 	stmdami	r0, {r0, r2, r5, r6, r8, r9, ip, sp, lr}
 208:	5f4d4d56 	svcpl	0x004d4d56
 20c:	54415453 	strbpl	r5, [r1], #-1107	; 0x453
 210:	425f5355 	subsmi	r5, pc, #1409286145	; 0x54000001
 214:	415f4441 	cmpmi	pc, r1, asr #8
 218:	53454343 	movtpl	r4, #21315	; 0x5343
 21c:	675f0053 			; <UNDEFINED> instruction: 0x675f0053
 220:	2e006369 	cdpcs	3, 0, cr6, cr0, cr9, {3}
 224:	2e2e2f2e 	cdpcs	15, 2, cr2, cr14, cr14, {1}
 228:	2f2e2e2f 	svccs	0x002e2e2f
 22c:	632f2e2e 	teqvs	pc, #736	; 0x2e0
 230:	6f6d6d6f 	svcvs	0x006d6d6f
 234:	75672f6e 	strbvc	r2, [r7, #-3950]!	; 0xf6e
 238:	2f747365 	svccs	0x00747365
 23c:	65726f63 	ldrbvs	r6, [r2, #-3939]!	; 0xf63
 240:	6369672f 	cmnvs	r9, #12320768	; 0xbc0000
 244:	6700632e 	strvs	r6, [r0, -lr, lsr #6]
 248:	695f6369 	ldmdbvs	pc, {r0, r3, r5, r6, r8, r9, sp, lr}^	; <UNPREDICTABLE>
 24c:	0074696e 	rsbseq	r6, r4, lr, ror #18
 250:	625f6176 	subsvs	r6, pc, #-2147483619	; 0x8000001d
 254:	00657361 	rsbeq	r7, r5, r1, ror #6
 258:	746e6975 	strbtvc	r6, [lr], #-2421	; 0x975
 25c:	00745f38 	rsbseq	r5, r4, r8, lsr pc
 260:	5f636967 	svcpl	0x00636967
 264:	74696e69 	strbtvc	r6, [r9], #-3689	; 0xe69
 268:	7361625f 	cmnvc	r1, #-268435451	; 0xf0000005
 26c:	64646165 	strbtvs	r6, [r4], #-357	; 0x165
 270:	76680072 			; <UNDEFINED> instruction: 0x76680072
 274:	735f6d6d 	cmpvc	pc, #6976	; 0x1b40
 278:	75746174 	ldrbvc	r6, [r4, #-372]!	; 0x174
 27c:	00745f73 	rsbseq	r5, r4, r3, ror pc
 280:	5f636967 	svcpl	0x00636967
 284:	5f717269 	svcpl	0x00717269
 288:	646e6168 	strbtvs	r6, [lr], #-360	; 0x168
 28c:	5f72656c 	svcpl	0x0072656c
 290:	61680074 	smcvs	32772	; 0x8004
 294:	656c646e 	strbvs	r6, [ip, #-1134]!	; 0x46e
 298:	73007372 	movwvc	r7, #882	; 0x372
 29c:	6765725f 			; <UNDEFINED> instruction: 0x6765725f
 2a0:	696d0038 	stmdbvs	sp!, {r3, r4, r5}^
 2a4:	48007264 	stmdami	r0, {r2, r5, r6, r9, ip, sp, lr}
 2a8:	5f4d4d56 	svcpl	0x004d4d56
 2ac:	54415453 	strbpl	r5, [r1], #-1107	; 0x453
 2b0:	495f5355 	ldmdbmi	pc, {r0, r2, r4, r6, r8, r9, ip, lr}^	; <UNPREDICTABLE>
 2b4:	524f4e47 	subpl	r4, pc, #1136	; 0x470
 2b8:	48004445 	stmdami	r0, {r0, r2, r6, sl, lr}
 2bc:	5f4d4d56 	svcpl	0x004d4d56
 2c0:	54415453 	strbpl	r5, [r1], #-1107	; 0x453
 2c4:	425f5355 	subsmi	r5, pc, #1409286145	; 0x54000001
 2c8:	00595355 	subseq	r5, r9, r5, asr r3
 2cc:	5f636967 	svcpl	0x00636967
 2d0:	5f746573 	svcpl	0x00746573
 2d4:	5f717269 	svcpl	0x00717269
 2d8:	646e6168 	strbtvs	r6, [lr], #-360	; 0x168
 2dc:	0072656c 	rsbseq	r6, r2, ip, ror #10
 2e0:	4d4d5648 	stclmi	6, cr5, [sp, #-288]	; 0xfffffee0
 2e4:	4154535f 	cmpmi	r4, pc, asr r3
 2e8:	5f535554 	svcpl	0x00535554
 2ec:	4e4b4e55 	mcrmi	14, 2, r4, cr11, cr5, {2}
 2f0:	5f4e574f 	svcpl	0x004e574f
 2f4:	4f525245 	svcmi	0x00525245
 2f8:	56480052 			; <UNDEFINED> instruction: 0x56480052
 2fc:	535f4d4d 	cmppl	pc, #4928	; 0x1340
 300:	55544154 	ldrbpl	r4, [r4, #-340]	; 0x154
 304:	4e555f53 	mrcmi	15, 2, r5, cr5, cr3, {2}
 308:	50505553 	subspl	r5, r0, r3, asr r5
 30c:	4554524f 	ldrbmi	r5, [r4, #-591]	; 0x24f
 310:	45465f44 	strbmi	r5, [r6, #-3908]	; 0xf44
 314:	52555441 	subspl	r5, r5, #1090519040	; 0x41000000
 318:	69750045 	ldmdbvs	r5!, {r0, r2, r6}^
 31c:	3233746e 	eorscc	r7, r3, #1845493760	; 0x6e000000
 320:	7000745f 	andvc	r7, r0, pc, asr r4
 324:	73676572 	cmnvc	r7, #478150656	; 0x1c800000
 328:	75706300 	ldrbvc	r6, [r0, #-768]!	; 0x300
 32c:	76680073 			; <UNDEFINED> instruction: 0x76680073
 330:	735f6d6d 	cmpvc	pc, #6976	; 0x1b40
 334:	75746174 	ldrbvc	r6, [r4, #-372]!	; 0x174
 338:	69670073 	stmdbvs	r7!, {r0, r1, r4, r5, r6}^
 33c:	65745f63 	ldrbvs	r5, [r4, #-3939]!	; 0xf63
 340:	765f7473 			; <UNDEFINED> instruction: 0x765f7473
 344:	5f766564 	svcpl	0x00766564
 348:	65636361 	strbvs	r6, [r3, #-865]!	; 0x361
 34c:	72007373 	andvc	r7, r0, #-872415231	; 0xcc000001
 350:	625f6765 	subsvs	r6, pc, #26476544	; 0x1940000
 354:	67657200 	strbvs	r7, [r5, -r0, lsl #4]!
 358:	7400635f 	strvc	r6, [r0], #-863	; 0x35f
 35c:	5f747365 	svcpl	0x00747365
 360:	76656476 			; <UNDEFINED> instruction: 0x76656476
 364:	6d61735f 	stclvs	3, cr7, [r1, #-380]!	; 0xfffffe84
 368:	00656c70 	rsbeq	r6, r5, r0, ror ip
 36c:	5f676572 	svcpl	0x00676572
 370:	2e2e0061 	cdpcs	0, 2, cr0, cr14, cr1, {3}
 374:	2f2e2e2f 	svccs	0x002e2e2f
 378:	2e2f2e2e 	cdpcs	14, 2, cr2, cr15, cr14, {1}
 37c:	6f632f2e 	svcvs	0x00632f2e
 380:	6e6f6d6d 	cdpvs	13, 6, cr6, cr15, cr13, {3}
 384:	6575672f 	ldrbvs	r6, [r5, #-1839]!	; 0x72f
 388:	742f7473 	strtvc	r7, [pc], #-1139	; 390 <GUEST_OFFSET-0x3ffffc70>
 38c:	2f747365 	svccs	0x00747365
 390:	74736574 	ldrbtvc	r6, [r3], #-1396	; 0x574
 394:	6564765f 	strbvs	r7, [r4, #-1631]!	; 0x65f
 398:	61735f76 	cmnvs	r3, r6, ror pc
 39c:	656c706d 	strbvs	r7, [ip, #-109]!	; 0x6d
 3a0:	7600632e 	strvc	r6, [r0], -lr, lsr #6
 3a4:	656d6974 	strbvs	r6, [sp, #-2420]!	; 0x974
 3a8:	616d5f72 	smcvs	54770	; 0xd5f2
 3ac:	2e006b73 	vmovcs.16	d0[1], r6
 3b0:	2e2e2f2e 	cdpcs	15, 2, cr2, cr14, cr14, {1}
 3b4:	2f2e2e2f 	svccs	0x002e2e2f
 3b8:	632f2e2e 	teqvs	pc, #736	; 0x2e0
 3bc:	6f6d6d6f 	svcvs	0x006d6d6f
 3c0:	75672f6e 	strbvc	r2, [r7, #-3950]!	; 0xf6e
 3c4:	2f747365 	svccs	0x00747365
 3c8:	74736574 	ldrbtvc	r6, [r3], #-1396	; 0x574
 3cc:	7365742f 	cmnvc	r5, #788529152	; 0x2f000000
 3d0:	74765f74 	ldrbtvc	r5, [r6], #-3956	; 0xf74
 3d4:	72656d69 	rsbvc	r6, r5, #6720	; 0x1a40
 3d8:	5f00632e 	svcpl	0x0000632e
 3dc:	6372735f 	cmnvs	r2, #2080374785	; 0x7c000001
 3e0:	7a697300 	bvc	1a5cfe8 <GUEST_OFFSET-0x3e5a3018>
 3e4:	00745f65 	rsbseq	r5, r4, r5, ror #30
 3e8:	636d656d 	cmnvs	sp, #457179136	; 0x1b400000
 3ec:	6d00706d 	stcvs	0, cr7, [r0, #-436]	; 0xfffffe4c
 3f0:	6f6d6d65 	svcvs	0x006d6d65
 3f4:	5f006576 	svcpl	0x00006576
 3f8:	7365645f 	cmnvc	r5, #1593835520	; 0x5f000000
 3fc:	656d0074 	strbvs	r0, [sp, #-116]!	; 0x74
 400:	7268636d 	rsbvc	r6, r8, #-1275068415	; 0xb4000001
 404:	72747300 	rsbsvc	r7, r4, #0
 408:	00726863 	rsbseq	r6, r2, r3, ror #16
 40c:	6c727473 	cfldrdvs	mvd7, [r2], #-460	; 0xfffffe34
 410:	61006e65 	tstvs	r0, r5, ror #28
 414:	685f6d72 	ldmdavs	pc, {r1, r4, r5, r6, r8, sl, fp, sp, lr}^	; <UNPREDICTABLE>
 418:	74737865 	ldrbtvc	r7, [r3], #-2149	; 0x865
 41c:	69753272 	ldmdbvs	r5!, {r1, r4, r5, r6, r9, ip, sp}^
 420:	7300746e 	movwvc	r7, #1134	; 0x46e
 424:	70637274 	rsbvc	r7, r3, r4, ror r2
 428:	74730079 	ldrbtvc	r0, [r3], #-121	; 0x79
 42c:	74616372 	strbtvc	r6, [r1], #-882	; 0x372
 430:	6d656d00 	stclvs	13, cr6, [r5, #-0]
 434:	00746573 	rsbseq	r6, r4, r3, ror r5
 438:	656d5f5f 	strbvs	r5, [sp, #-3935]!	; 0xf5f
 43c:	766f6d6d 	strbtvc	r6, [pc], -sp, ror #26
 440:	6f645f65 	svcvs	0x00645f65
 444:	61006e77 	tstvs	r0, r7, ror lr
 448:	755f6d72 	ldrbvc	r6, [pc, #-3442]	; fffff6de <guest_stacklimit+0xaffff6de>
 44c:	32746e69 	rsbscc	r6, r4, #1680	; 0x690
 450:	73786568 	cmnvc	r8, #436207616	; 0x1a000000
 454:	6d007274 	sfmvs	f7, 4, [r0, #-464]	; 0xfffffe30
 458:	73756e69 	cmnvc	r5, #1680	; 0x690
 45c:	78656800 	stmdavc	r5!, {fp, sp, lr}^
 460:	72616863 	rsbvc	r6, r1, #6488064	; 0x630000
 464:	72610073 	rsbvc	r0, r1, #115	; 0x73
 468:	74735f6d 	ldrbtvc	r5, [r3], #-3949	; 0xf6d
 46c:	6e693272 	mcrvs	2, 3, r3, cr9, cr2, {3}
 470:	5f5f0074 	svcpl	0x005f0074
 474:	6d6d656d 	cfstr64vs	mvdx6, [sp, #-436]!	; 0xfffffe4c
 478:	5f65766f 	svcpl	0x0065766f
 47c:	73007075 	movwvc	r7, #117	; 0x75
 480:	6d637274 	sfmvs	f7, 2, [r3, #-464]!	; 0xfffffe30
 484:	656d0070 	strbvs	r0, [sp, #-112]!	; 0x70
 488:	7970636d 	ldmdbvc	r0!, {r0, r2, r3, r5, r6, r8, r9, sp, lr}^
 48c:	72747300 	rsbsvc	r7, r4, #0
 490:	706d636e 	rsbvc	r6, sp, lr, ror #6
 494:	756f6300 	strbvc	r6, [pc, #-768]!	; 19c <GUEST_OFFSET-0x3ffffe64>
 498:	2e00746e 	cdpcs	4, 0, cr7, cr0, cr14, {3}
 49c:	2e2e2f2e 	cdpcs	15, 2, cr2, cr14, cr14, {1}
 4a0:	2f2e2e2f 	svccs	0x002e2e2f
 4a4:	632f2e2e 	teqvs	pc, #736	; 0x2e0
 4a8:	6f6d6d6f 	svcvs	0x006d6d6f
 4ac:	6f6c2f6e 	svcvs	0x006c2f6e
 4b0:	74732f67 	ldrbtvc	r2, [r3], #-3943	; 0xf67
 4b4:	676e6972 			; <UNDEFINED> instruction: 0x676e6972
 4b8:	7500632e 	strvc	r6, [r0, #-814]	; 0x32e
 4bc:	74737265 	ldrbtvc	r7, [r3], #-613	; 0x265
 4c0:	75007461 	strvc	r7, [r0, #-1121]	; 0x461
 4c4:	69647262 	stmdbvs	r4!, {r1, r5, r6, r9, ip, sp, lr}^
 4c8:	69750076 	ldmdbvs	r5!, {r1, r2, r4, r5, r6}^
 4cc:	3436746e 	ldrtcc	r7, [r6], #-1134	; 0x46e
 4d0:	7300745f 	movwvc	r7, #1119	; 0x45f
 4d4:	61697265 	cmnvs	r9, r5, ror #4
 4d8:	72655f6c 	rsbvc	r5, r5, #432	; 0x1b0
 4dc:	68635f72 	stmdavs	r3!, {r1, r4, r5, r6, r8, r9, sl, fp, ip, lr}^
 4e0:	006b6365 	rsbeq	r6, fp, r5, ror #6
 4e4:	74726175 	ldrbtvc	r6, [r2], #-373	; 0x175
 4e8:	6972705f 	ldmdbvs	r2!, {r0, r1, r2, r3, r4, r6, ip, sp, lr}^
 4ec:	685f746e 	ldmdavs	pc, {r1, r2, r3, r5, r6, sl, ip, sp, lr}^	; <UNPREDICTABLE>
 4f0:	32337865 	eorscc	r7, r3, #6619136	; 0x650000
 4f4:	73657200 	cmnvc	r5, #0
 4f8:	61750031 	cmnvs	r5, r1, lsr r0
 4fc:	705f7472 	subsvc	r7, pc, r2, ror r4	; <UNPREDICTABLE>
 500:	746e6972 	strbtvc	r6, [lr], #-2418	; 0x972
 504:	736d7500 	cmnvc	sp, #0
 508:	00746174 	rsbseq	r6, r4, r4, ror r1
 50c:	5f703573 	svcpl	0x00703573
 510:	74726175 	ldrbtvc	r6, [r2], #-373	; 0x175
 514:	72617500 	rsbvc	r7, r1, #0
 518:	72705f74 	rsbsvc	r5, r0, #464	; 0x1d0
 51c:	5f746e69 	svcpl	0x00746e69
 520:	36786568 	ldrbtcc	r6, [r8], -r8, ror #10
 524:	61750034 	cmnvs	r5, r4, lsr r0
 528:	695f7472 	ldmdbvs	pc, {r1, r4, r5, r6, sl, ip, sp, lr}^	; <UNPREDICTABLE>
 52c:	0074696e 	rsbseq	r6, r4, lr, ror #18
 530:	68787475 	ldmdavs	r8!, {r0, r2, r4, r5, r6, sl, ip, sp, lr}^
 534:	72747500 	rsbsvc	r7, r4, #0
 538:	74617473 	strbtvc	r7, [r1], #-1139	; 0x473
 53c:	73657200 	cmnvc	r5, #0
 540:	65720032 	ldrbvs	r0, [r2, #-50]!	; 0x32
 544:	75003373 	strvc	r3, [r0, #-883]	; 0x373
 548:	61747366 	cmnvs	r4, r6, ror #6
 54c:	6c730074 	ldclvs	0, cr0, [r3], #-464	; 0xfffffe30
 550:	7500746f 	strvc	r7, [r0, #-1135]	; 0x46f
 554:	6e6f6366 	cdpvs	3, 6, cr6, cr15, cr6, {3}
 558:	75645f00 	strbvc	r5, [r4, #-3840]!	; 0xf00
 55c:	5f796d6d 	svcpl	0x00796d6d
 560:	65747962 	ldrbvs	r7, [r4, #-2402]!	; 0x962
 564:	636d7500 	cmnvs	sp, #0
 568:	64006e6f 	strvs	r6, [r0], #-3695	; 0xe6f
 56c:	65766972 	ldrbvs	r6, [r6, #-2418]!	; 0x972
 570:	752f7372 	strvc	r7, [pc, #-882]!	; 206 <GUEST_OFFSET-0x3ffffdfa>
 574:	2e747261 	cdpcs	2, 7, cr7, cr4, cr1, {3}
 578:	72620063 	rsbvc	r0, r2, #99	; 0x63
 57c:	7365725f 	cmnvc	r5, #-268435451	; 0xf0000005
 580:	72750074 	rsbsvc	r0, r5, #116	; 0x74
 584:	6d006878 	stcvs	8, cr6, [r0, #-480]	; 0xfffffe20
 588:	386b7361 	stmdacc	fp!, {r0, r5, r6, r8, r9, ip, sp, lr}^
 58c:	72617500 	rsbvc	r7, r1, #0
 590:	75705f74 	ldrbvc	r5, [r0, #-3956]!	; 0xf74
 594:	75006374 	strvc	r6, [r0, #-884]	; 0x374
 598:	006e6f63 	rsbeq	r6, lr, r3, ror #30
 59c:	6f636c75 	svcvs	0x00636c75
 5a0:	6d76006e 	ldclvs	0, cr0, [r6, #-440]!	; 0xfffffe48
 5a4:	65725f6d 	ldrbvs	r5, [r2, #-3949]!	; 0xf6d
 5a8:	006c6461 	rsbeq	r6, ip, r1, ror #8
 5ac:	6d6d7668 	stclvs	6, cr7, [sp, #-416]!	; 0xfffffe60
 5b0:	7365745f 	cmnvc	r5, #1593835520	; 0x5f000000
 5b4:	705f7374 	subsvc	r7, pc, r4, ror r3	; <UNPREDICTABLE>
 5b8:	745f6d77 	ldrbvc	r6, [pc], #-3447	; 5c0 <GUEST_OFFSET-0x3ffffa40>
 5bc:	72656d69 	rsbvc	r6, r5, #6720	; 0x1a40
 5c0:	6d777000 	ldclvs	0, cr7, [r7, #-0]
 5c4:	6d69745f 	cfstrdvs	mvd7, [r9, #-380]!	; 0xfffffe84
 5c8:	735f7265 	cmpvc	pc, #1342177286	; 0x50000006
 5cc:	695f7465 	ldmdbvs	pc, {r0, r2, r5, r6, sl, ip, sp, lr}^	; <UNPREDICTABLE>
 5d0:	7265746e 	rsbvc	r7, r5, #1845493760	; 0x6e000000
 5d4:	006c6176 	rsbeq	r6, ip, r6, ror r1
 5d8:	67666374 			; <UNDEFINED> instruction: 0x67666374
 5dc:	6d760030 	ldclvs	0, cr0, [r6, #-192]!	; 0xffffff40
 5e0:	72775f6d 	rsbsvc	r5, r7, #436	; 0x1b4
 5e4:	6c657469 	cfstrdvs	mvd7, [r5], #-420	; 0xfffffe5c
 5e8:	69726400 	ldmdbvs	r2!, {sl, sp, lr}^
 5ec:	73726576 	cmnvc	r2, #494927872	; 0x1d800000
 5f0:	6d77702f 	ldclvs	0, cr7, [r7, #-188]!	; 0xffffff44
 5f4:	6d69745f 	cfstrdvs	mvd7, [r9, #-380]!	; 0xfffffe84
 5f8:	632e7265 	teqvs	lr, #1342177286	; 0x50000006
 5fc:	6d777000 	ldclvs	0, cr7, [r7, #-0]
 600:	6d69745f 	cfstrdvs	mvd7, [r9, #-380]!	; 0xfffffe84
 604:	655f7265 	ldrbvs	r7, [pc, #-613]	; 3a7 <GUEST_OFFSET-0x3ffffc59>
 608:	6c62616e 	stfvse	f6, [r2], #-440	; 0xfffffe48
 60c:	6e695f65 	cdpvs	15, 6, cr5, cr9, cr5, {3}
 610:	63740074 	cmnvs	r4, #116	; 0x74
 614:	00316766 	eorseq	r6, r1, r6, ror #14
 618:	5f6d7770 	svcpl	0x006d7770
 61c:	656d6974 	strbvs	r6, [sp, #-2420]!	; 0x974
 620:	6e655f72 	mcrvs	15, 3, r5, cr5, cr2, {3}
 624:	656c6261 	strbvs	r6, [ip, #-609]!	; 0x261
 628:	7172695f 	cmnvc	r2, pc, asr r9
 62c:	746e6900 	strbtvc	r6, [lr], #-2304	; 0x900
 630:	75727265 	ldrbvc	r7, [r2, #-613]!	; 0x265
 634:	705f7470 	subsvc	r7, pc, r0, ror r4	; <UNPREDICTABLE>
 638:	69746d77 	ldmdbvs	r4!, {r0, r1, r2, r4, r5, r6, r8, sl, fp, sp, lr}^
 63c:	0072656d 	rsbseq	r6, r2, sp, ror #10
 640:	5f6d7770 	svcpl	0x006d7770
 644:	656d6974 	strbvs	r6, [sp, #-2420]!	; 0x974
 648:	6e695f72 	mcrvs	15, 3, r5, cr9, cr2, {3}
 64c:	70007469 	andvc	r7, r0, r9, ror #8
 650:	745f6d77 	ldrbvc	r6, [pc], #-3447	; 658 <GUEST_OFFSET-0x3ffff9a8>
 654:	72656d69 	rsbvc	r6, r5, #6720	; 0x1a40
 658:	7465735f 	strbtvc	r7, [r5], #-863	; 0x35f
 65c:	6c61635f 	stclvs	3, cr6, [r1], #-380	; 0xfffffe84
 660:	6361626c 	cmnvs	r1, #-1073741818	; 0xc0000006
 664:	6374006b 	cmnvs	r4, #107	; 0x6b
 668:	3162746e 	cmncc	r2, lr, ror #8
 66c:	73637400 	cmnvc	r3, #0
 670:	00746174 	rsbseq	r6, r4, r4, ror r1
 674:	6e6f6374 	mcrvs	3, 3, r6, cr15, cr4, {3}
 678:	6d777000 	ldclvs	0, cr7, [r7, #-0]
 67c:	6d69745f 	cfstrdvs	mvd7, [r9, #-380]!	; 0xfffffe84
 680:	645f7265 	ldrbvs	r7, [pc], #-613	; 688 <GUEST_OFFSET-0x3ffff978>
 684:	62617369 	rsbvs	r7, r1, #-1543503871	; 0xa4000001
 688:	695f656c 	ldmdbvs	pc, {r2, r3, r5, r6, r8, sl, sp, lr}^	; <UNPREDICTABLE>
 68c:	7000746e 	andvc	r7, r0, lr, ror #8
 690:	745f6d77 	ldrbvc	r6, [pc], #-3447	; 698 <GUEST_OFFSET-0x3ffff968>
 694:	72656d69 	rsbvc	r6, r5, #6720	; 0x1a40
 698:	6c61635f 	stclvs	3, cr6, [r1], #-380	; 0xfffffe84
 69c:	6361626c 	cmnvs	r1, #-1073741818	; 0xc0000006
 6a0:	00745f6b 	rsbseq	r5, r4, fp, ror #30
 6a4:	6d77705f 	ldclvs	0, cr7, [r7, #-380]!	; 0xfffffe84
 6a8:	6d69745f 	cfstrdvs	mvd7, [r9, #-380]!	; 0xfffffe84
 6ac:	695f7265 	ldmdbvs	pc, {r0, r2, r5, r6, r9, ip, sp, lr}^	; <UNPREDICTABLE>
 6b0:	685f7172 	ldmdavs	pc, {r1, r4, r5, r6, r8, ip, sp, lr}^	; <UNPREDICTABLE>
 6b4:	6c646e61 	stclvs	14, cr6, [r4], #-388	; 0xfffffe7c
 6b8:	Address 0x00000000000006b8 is out of bounds.


Disassembly of section .debug_frame:

00000000 <.debug_frame>:
   0:	0000000c 	andeq	r0, r0, ip
   4:	ffffffff 			; <UNDEFINED> instruction: 0xffffffff
   8:	7c020001 	stcvc	0, cr0, [r2], {1}
   c:	000d0c0e 	andeq	r0, sp, lr, lsl #24
  10:	00000018 	andeq	r0, r0, r8, lsl r0
  14:	00000000 	andeq	r0, r0, r0
  18:	40000004 	andmi	r0, r0, r4
  1c:	00000024 	andeq	r0, r0, r4, lsr #32
  20:	8e080e42 	cdphi	14, 0, cr0, cr8, cr2, {2}
  24:	42028b01 	andmi	r8, r2, #1024	; 0x400
  28:	00040b0c 	andeq	r0, r4, ip, lsl #22
  2c:	0000000c 	andeq	r0, r0, ip
  30:	ffffffff 			; <UNDEFINED> instruction: 0xffffffff
  34:	7c020001 	stcvc	0, cr0, [r2], {1}
  38:	000d0c0e 	andeq	r0, sp, lr, lsl #24
  3c:	00000014 	andeq	r0, r0, r4, lsl r0
  40:	0000002c 	andeq	r0, r0, ip, lsr #32
  44:	40000028 	andmi	r0, r0, r8, lsr #32
  48:	00000048 	andeq	r0, r0, r8, asr #32
  4c:	8b040e42 	blhi	10395c <GUEST_OFFSET-0x3fefc6a4>
  50:	0b0d4201 	bleq	35085c <GUEST_OFFSET-0x3fcaf7a4>
  54:	00000018 	andeq	r0, r0, r8, lsl r0
  58:	0000002c 	andeq	r0, r0, ip, lsr #32
  5c:	40000070 	andmi	r0, r0, r0, ror r0
  60:	00000158 	andeq	r0, r0, r8, asr r1
  64:	8e080e42 	cdphi	14, 0, cr0, cr8, cr2, {2}
  68:	42028b01 	andmi	r8, r2, #1024	; 0x400
  6c:	00040b0c 	andeq	r0, r4, ip, lsl #22
  70:	0000000c 	andeq	r0, r0, ip
  74:	ffffffff 			; <UNDEFINED> instruction: 0xffffffff
  78:	7c020001 	stcvc	0, cr0, [r2], {1}
  7c:	000d0c0e 	andeq	r0, sp, lr, lsl #24
  80:	00000014 	andeq	r0, r0, r4, lsl r0
  84:	00000070 	andeq	r0, r0, r0, ror r0
  88:	400001c8 	andmi	r0, r0, r8, asr #3
  8c:	0000001c 	andeq	r0, r0, ip, lsl r0
  90:	8b040e42 	blhi	1039a0 <GUEST_OFFSET-0x3fefc660>
  94:	0b0d4201 	bleq	3508a0 <GUEST_OFFSET-0x3fcaf760>
  98:	00000014 	andeq	r0, r0, r4, lsl r0
  9c:	00000070 	andeq	r0, r0, r0, ror r0
  a0:	400001e4 	andmi	r0, r0, r4, ror #3
  a4:	0000001c 	andeq	r0, r0, ip, lsl r0
  a8:	8b040e42 	blhi	1039b8 <GUEST_OFFSET-0x3fefc648>
  ac:	0b0d4201 	bleq	3508b8 <GUEST_OFFSET-0x3fcaf748>
  b0:	00000018 	andeq	r0, r0, r8, lsl r0
  b4:	00000070 	andeq	r0, r0, r0, ror r0
  b8:	40000200 	andmi	r0, r0, r0, lsl #4
  bc:	00000024 	andeq	r0, r0, r4, lsr #32
  c0:	8e080e42 	cdphi	14, 0, cr0, cr8, cr2, {2}
  c4:	42028b01 	andmi	r8, r2, #1024	; 0x400
  c8:	00040b0c 	andeq	r0, r4, ip, lsl #22
  cc:	0000000c 	andeq	r0, r0, ip
  d0:	ffffffff 			; <UNDEFINED> instruction: 0xffffffff
  d4:	7c020001 	stcvc	0, cr0, [r2], {1}
  d8:	000d0c0e 	andeq	r0, sp, lr, lsl #24
  dc:	00000018 	andeq	r0, r0, r8, lsl r0
  e0:	000000cc 	andeq	r0, r0, ip, asr #1
  e4:	40000224 	andmi	r0, r0, r4, lsr #4
  e8:	0000002c 	andeq	r0, r0, ip, lsr #32
  ec:	8b080e42 	blhi	2039fc <GUEST_OFFSET-0x3fdfc604>
  f0:	42028401 	andmi	r8, r2, #16777216	; 0x1000000
  f4:	00040b0c 	andeq	r0, r4, ip, lsl #22
  f8:	00000018 	andeq	r0, r0, r8, lsl r0
  fc:	000000cc 	andeq	r0, r0, ip, asr #1
 100:	40000250 	andmi	r0, r0, r0, asr r2
 104:	0000013c 	andeq	r0, r0, ip, lsr r1
 108:	8e080e42 	cdphi	14, 0, cr0, cr8, cr2, {2}
 10c:	42028b01 	andmi	r8, r2, #1024	; 0x400
 110:	00040b0c 	andeq	r0, r4, ip, lsl #22
 114:	0000001c 	andeq	r0, r0, ip, lsl r0
 118:	000000cc 	andeq	r0, r0, ip, asr #1
 11c:	4000038c 	andmi	r0, r0, ip, lsl #7
 120:	0000024c 	andeq	r0, r0, ip, asr #4
 124:	8e0c0e42 	cdphi	14, 0, cr0, cr12, cr2, {2}
 128:	84028b01 	strhi	r8, [r2], #-2817	; 0xb01
 12c:	0b0c4203 	bleq	310940 <GUEST_OFFSET-0x3fcef6c0>
 130:	00000004 	andeq	r0, r0, r4
 134:	0000001c 	andeq	r0, r0, ip, lsl r0
 138:	000000cc 	andeq	r0, r0, ip, asr #1
 13c:	400005d8 	ldrdmi	r0, [r0], -r8
 140:	0000010c 	andeq	r0, r0, ip, lsl #2
 144:	8e0c0e42 	cdphi	14, 0, cr0, cr12, cr2, {2}
 148:	84028b01 	strhi	r8, [r2], #-2817	; 0xb01
 14c:	0b0c4203 	bleq	310960 <GUEST_OFFSET-0x3fcef6a0>
 150:	00000004 	andeq	r0, r0, r4
 154:	00000014 	andeq	r0, r0, r4, lsl r0
 158:	000000cc 	andeq	r0, r0, ip, asr #1
 15c:	400006e4 	andmi	r0, r0, r4, ror #13
 160:	00000058 	andeq	r0, r0, r8, asr r0
 164:	8b040e42 	blhi	103a74 <GUEST_OFFSET-0x3fefc58c>
 168:	0b0d4201 	bleq	350974 <GUEST_OFFSET-0x3fcaf68c>
 16c:	00000014 	andeq	r0, r0, r4, lsl r0
 170:	000000cc 	andeq	r0, r0, ip, asr #1
 174:	4000073c 	andmi	r0, r0, ip, lsr r7
 178:	00000058 	andeq	r0, r0, r8, asr r0
 17c:	8b040e42 	blhi	103a8c <GUEST_OFFSET-0x3fefc574>
 180:	0b0d4201 	bleq	35098c <GUEST_OFFSET-0x3fcaf674>
 184:	00000014 	andeq	r0, r0, r4, lsl r0
 188:	000000cc 	andeq	r0, r0, ip, asr #1
 18c:	40000794 	mulmi	r0, r4, r7
 190:	00000070 	andeq	r0, r0, r0, ror r0
 194:	8b040e42 	blhi	103aa4 <GUEST_OFFSET-0x3fefc55c>
 198:	0b0d4201 	bleq	3509a4 <GUEST_OFFSET-0x3fcaf65c>
 19c:	00000018 	andeq	r0, r0, r8, lsl r0
 1a0:	000000cc 	andeq	r0, r0, ip, asr #1
 1a4:	40000804 	andmi	r0, r0, r4, lsl #16
 1a8:	00000150 	andeq	r0, r0, r0, asr r1
 1ac:	8e080e42 	cdphi	14, 0, cr0, cr8, cr2, {2}
 1b0:	42028b01 	andmi	r8, r2, #1024	; 0x400
 1b4:	00040b0c 	andeq	r0, r4, ip, lsl #22
 1b8:	00000018 	andeq	r0, r0, r8, lsl r0
 1bc:	000000cc 	andeq	r0, r0, ip, asr #1
 1c0:	40000954 	andmi	r0, r0, r4, asr r9
 1c4:	00000160 	andeq	r0, r0, r0, ror #2
 1c8:	8e080e42 	cdphi	14, 0, cr0, cr8, cr2, {2}
 1cc:	42028b01 	andmi	r8, r2, #1024	; 0x400
 1d0:	00040b0c 	andeq	r0, r4, ip, lsl #22
 1d4:	0000000c 	andeq	r0, r0, ip
 1d8:	ffffffff 			; <UNDEFINED> instruction: 0xffffffff
 1dc:	7c020001 	stcvc	0, cr0, [r2], {1}
 1e0:	000d0c0e 	andeq	r0, sp, lr, lsl #24
 1e4:	00000018 	andeq	r0, r0, r8, lsl r0
 1e8:	000001d4 	ldrdeq	r0, [r0], -r4
 1ec:	40000ab4 			; <UNDEFINED> instruction: 0x40000ab4
 1f0:	00000174 	andeq	r0, r0, r4, ror r1
 1f4:	8e080e42 	cdphi	14, 0, cr0, cr8, cr2, {2}
 1f8:	42028b01 	andmi	r8, r2, #1024	; 0x400
 1fc:	00040b0c 	andeq	r0, r4, ip, lsl #22
 200:	0000000c 	andeq	r0, r0, ip
 204:	ffffffff 			; <UNDEFINED> instruction: 0xffffffff
 208:	7c020001 	stcvc	0, cr0, [r2], {1}
 20c:	000d0c0e 	andeq	r0, sp, lr, lsl #24
 210:	00000014 	andeq	r0, r0, r4, lsl r0
 214:	00000200 	andeq	r0, r0, r0, lsl #4
 218:	40000c28 	andmi	r0, r0, r8, lsr #24
 21c:	00000030 	andeq	r0, r0, r0, lsr r0
 220:	8b040e42 	blhi	103b30 <GUEST_OFFSET-0x3fefc4d0>
 224:	0b0d4201 	bleq	350a30 <GUEST_OFFSET-0x3fcaf5d0>
 228:	0000000c 	andeq	r0, r0, ip
 22c:	ffffffff 			; <UNDEFINED> instruction: 0xffffffff
 230:	7c020001 	stcvc	0, cr0, [r2], {1}
 234:	000d0c0e 	andeq	r0, sp, lr, lsl #24
 238:	00000014 	andeq	r0, r0, r4, lsl r0
 23c:	00000228 	andeq	r0, r0, r8, lsr #4
 240:	40000c58 	andmi	r0, r0, r8, asr ip
 244:	00000090 	muleq	r0, r0, r0
 248:	8b040e42 	blhi	103b58 <GUEST_OFFSET-0x3fefc4a8>
 24c:	0b0d4201 	bleq	350a58 <GUEST_OFFSET-0x3fcaf5a8>
 250:	00000014 	andeq	r0, r0, r4, lsl r0
 254:	00000228 	andeq	r0, r0, r8, lsr #4
 258:	40000ce8 	andmi	r0, r0, r8, ror #25
 25c:	000000a8 	andeq	r0, r0, r8, lsr #1
 260:	8b040e42 	blhi	103b70 <GUEST_OFFSET-0x3fefc490>
 264:	0b0d4201 	bleq	350a70 <GUEST_OFFSET-0x3fcaf590>
 268:	00000018 	andeq	r0, r0, r8, lsl r0
 26c:	00000228 	andeq	r0, r0, r8, lsr #4
 270:	40000d90 	mulmi	r0, r0, sp
 274:	00000038 	andeq	r0, r0, r8, lsr r0
 278:	8e080e42 	cdphi	14, 0, cr0, cr8, cr2, {2}
 27c:	42028b01 	andmi	r8, r2, #1024	; 0x400
 280:	00040b0c 	andeq	r0, r4, ip, lsl #22
 284:	00000018 	andeq	r0, r0, r8, lsl r0
 288:	00000228 	andeq	r0, r0, r8, lsr #4
 28c:	40000dc8 	andmi	r0, r0, r8, asr #27
 290:	00000060 	andeq	r0, r0, r0, rrx
 294:	8e080e42 	cdphi	14, 0, cr0, cr8, cr2, {2}
 298:	42028b01 	andmi	r8, r2, #1024	; 0x400
 29c:	00040b0c 	andeq	r0, r4, ip, lsl #22
 2a0:	00000014 	andeq	r0, r0, r4, lsl r0
 2a4:	00000228 	andeq	r0, r0, r8, lsr #4
 2a8:	40000e28 	andmi	r0, r0, r8, lsr #28
 2ac:	00000088 	andeq	r0, r0, r8, lsl #1
 2b0:	8b040e42 	blhi	103bc0 <GUEST_OFFSET-0x3fefc440>
 2b4:	0b0d4201 	bleq	350ac0 <GUEST_OFFSET-0x3fcaf540>
 2b8:	00000014 	andeq	r0, r0, r4, lsl r0
 2bc:	00000228 	andeq	r0, r0, r8, lsr #4
 2c0:	40000eb0 			; <UNDEFINED> instruction: 0x40000eb0
 2c4:	00000054 	andeq	r0, r0, r4, asr r0
 2c8:	8b040e42 	blhi	103bd8 <GUEST_OFFSET-0x3fefc428>
 2cc:	0b0d4201 	bleq	350ad8 <GUEST_OFFSET-0x3fcaf528>
 2d0:	00000014 	andeq	r0, r0, r4, lsl r0
 2d4:	00000228 	andeq	r0, r0, r8, lsr #4
 2d8:	40000f04 	andmi	r0, r0, r4, lsl #30
 2dc:	0000007c 	andeq	r0, r0, ip, ror r0
 2e0:	8b040e42 	blhi	103bf0 <GUEST_OFFSET-0x3fefc410>
 2e4:	0b0d4201 	bleq	350af0 <GUEST_OFFSET-0x3fcaf510>
 2e8:	00000014 	andeq	r0, r0, r4, lsl r0
 2ec:	00000228 	andeq	r0, r0, r8, lsr #4
 2f0:	40000f80 	andmi	r0, r0, r0, lsl #31
 2f4:	000000c0 	andeq	r0, r0, r0, asr #1
 2f8:	8b040e42 	blhi	103c08 <GUEST_OFFSET-0x3fefc3f8>
 2fc:	0b0d4201 	bleq	350b08 <GUEST_OFFSET-0x3fcaf4f8>
 300:	00000014 	andeq	r0, r0, r4, lsl r0
 304:	00000228 	andeq	r0, r0, r8, lsr #4
 308:	40001040 	andmi	r1, r0, r0, asr #32
 30c:	000000e4 	andeq	r0, r0, r4, ror #1
 310:	8b040e42 	blhi	103c20 <GUEST_OFFSET-0x3fefc3e0>
 314:	0b0d4201 	bleq	350b20 <GUEST_OFFSET-0x3fcaf4e0>
 318:	00000014 	andeq	r0, r0, r4, lsl r0
 31c:	00000228 	andeq	r0, r0, r8, lsr #4
 320:	40001124 	andmi	r1, r0, r4, lsr #2
 324:	0000011c 	andeq	r0, r0, ip, lsl r1
 328:	8b040e42 	blhi	103c38 <GUEST_OFFSET-0x3fefc3c8>
 32c:	0b0d4201 	bleq	350b38 <GUEST_OFFSET-0x3fcaf4c8>
 330:	00000014 	andeq	r0, r0, r4, lsl r0
 334:	00000228 	andeq	r0, r0, r8, lsr #4
 338:	40001240 	andmi	r1, r0, r0, asr #4
 33c:	00000080 	andeq	r0, r0, r0, lsl #1
 340:	8b040e42 	blhi	103c50 <GUEST_OFFSET-0x3fefc3b0>
 344:	0b0d4201 	bleq	350b50 <GUEST_OFFSET-0x3fcaf4b0>
 348:	00000014 	andeq	r0, r0, r4, lsl r0
 34c:	00000228 	andeq	r0, r0, r8, lsr #4
 350:	400012c0 	andmi	r1, r0, r0, asr #5
 354:	0000008c 	andeq	r0, r0, ip, lsl #1
 358:	8b040e42 	blhi	103c68 <GUEST_OFFSET-0x3fefc398>
 35c:	0b0d4201 	bleq	350b68 <GUEST_OFFSET-0x3fcaf498>
 360:	00000014 	andeq	r0, r0, r4, lsl r0
 364:	00000228 	andeq	r0, r0, r8, lsr #4
 368:	4000134c 	andmi	r1, r0, ip, asr #6
 36c:	00000194 	muleq	r0, r4, r1
 370:	8b040e42 	blhi	103c80 <GUEST_OFFSET-0x3fefc380>
 374:	0b0d4201 	bleq	350b80 <GUEST_OFFSET-0x3fcaf480>
 378:	00000014 	andeq	r0, r0, r4, lsl r0
 37c:	00000228 	andeq	r0, r0, r8, lsr #4
 380:	400014e0 	andmi	r1, r0, r0, ror #9
 384:	00000100 	andeq	r0, r0, r0, lsl #2
 388:	8b040e42 	blhi	103c98 <GUEST_OFFSET-0x3fefc368>
 38c:	0b0d4201 	bleq	350b98 <GUEST_OFFSET-0x3fcaf468>
 390:	00000014 	andeq	r0, r0, r4, lsl r0
 394:	00000228 	andeq	r0, r0, r8, lsr #4
 398:	400015e0 	andmi	r1, r0, r0, ror #11
 39c:	00000090 	muleq	r0, r0, r0
 3a0:	8b040e42 	blhi	103cb0 <GUEST_OFFSET-0x3fefc350>
 3a4:	0b0d4201 	bleq	350bb0 <GUEST_OFFSET-0x3fcaf450>
 3a8:	00000014 	andeq	r0, r0, r4, lsl r0
 3ac:	00000228 	andeq	r0, r0, r8, lsr #4
 3b0:	40001670 	andmi	r1, r0, r0, ror r6
 3b4:	000000e4 	andeq	r0, r0, r4, ror #1
 3b8:	8b040e42 	blhi	103cc8 <GUEST_OFFSET-0x3fefc338>
 3bc:	0b0d4201 	bleq	350bc8 <GUEST_OFFSET-0x3fcaf438>
 3c0:	0000000c 	andeq	r0, r0, ip
 3c4:	ffffffff 			; <UNDEFINED> instruction: 0xffffffff
 3c8:	7c020001 	stcvc	0, cr0, [r2], {1}
 3cc:	000d0c0e 	andeq	r0, sp, lr, lsl #24
 3d0:	00000014 	andeq	r0, r0, r4, lsl r0
 3d4:	000003c0 	andeq	r0, r0, r0, asr #7
 3d8:	40001840 	andmi	r1, r0, r0, asr #16
 3dc:	00000060 	andeq	r0, r0, r0, rrx
 3e0:	8b040e42 	blhi	103cf0 <GUEST_OFFSET-0x3fefc310>
 3e4:	0b0d4201 	bleq	350bf0 <GUEST_OFFSET-0x3fcaf410>
 3e8:	00000018 	andeq	r0, r0, r8, lsl r0
 3ec:	000003c0 	andeq	r0, r0, r0, asr #7
 3f0:	400018a0 	andmi	r1, r0, r0, lsr #17
 3f4:	00000084 	andeq	r0, r0, r4, lsl #1
 3f8:	8e080e42 	cdphi	14, 0, cr0, cr8, cr2, {2}
 3fc:	42028b01 	andmi	r8, r2, #1024	; 0x400
 400:	00040b0c 	andeq	r0, r4, ip, lsl #22
 404:	00000018 	andeq	r0, r0, r8, lsl r0
 408:	000003c0 	andeq	r0, r0, r0, asr #7
 40c:	40001924 	andmi	r1, r0, r4, lsr #18
 410:	00000048 	andeq	r0, r0, r8, asr #32
 414:	8e080e42 	cdphi	14, 0, cr0, cr8, cr2, {2}
 418:	42028b01 	andmi	r8, r2, #1024	; 0x400
 41c:	00040b0c 	andeq	r0, r4, ip, lsl #22
 420:	00000018 	andeq	r0, r0, r8, lsl r0
 424:	000003c0 	andeq	r0, r0, r0, asr #7
 428:	4000196c 	andmi	r1, r0, ip, ror #18
 42c:	000000a4 	andeq	r0, r0, r4, lsr #1
 430:	8e080e42 	cdphi	14, 0, cr0, cr8, cr2, {2}
 434:	42028b01 	andmi	r8, r2, #1024	; 0x400
 438:	00040b0c 	andeq	r0, r4, ip, lsl #22
 43c:	00000018 	andeq	r0, r0, r8, lsl r0
 440:	000003c0 	andeq	r0, r0, r0, asr #7
 444:	40001a10 	andmi	r1, r0, r0, lsl sl
 448:	0000003c 	andeq	r0, r0, ip, lsr r0
 44c:	8e080e42 	cdphi	14, 0, cr0, cr8, cr2, {2}
 450:	42028b01 	andmi	r8, r2, #1024	; 0x400
 454:	00040b0c 	andeq	r0, r4, ip, lsl #22
 458:	00000014 	andeq	r0, r0, r4, lsl r0
 45c:	000003c0 	andeq	r0, r0, r0, asr #7
 460:	40001a4c 	andmi	r1, r0, ip, asr #20
 464:	00000014 	andeq	r0, r0, r4, lsl r0
 468:	8b040e42 	blhi	103d78 <GUEST_OFFSET-0x3fefc288>
 46c:	0b0d4201 	bleq	350c78 <GUEST_OFFSET-0x3fcaf388>
 470:	0000000c 	andeq	r0, r0, ip
 474:	ffffffff 			; <UNDEFINED> instruction: 0xffffffff
 478:	7c020001 	stcvc	0, cr0, [r2], {1}
 47c:	000d0c0e 	andeq	r0, sp, lr, lsl #24
 480:	00000014 	andeq	r0, r0, r4, lsl r0
 484:	00000470 	andeq	r0, r0, r0, ror r4
 488:	40001a60 	andmi	r1, r0, r0, ror #20
 48c:	00000034 	andeq	r0, r0, r4, lsr r0
 490:	8b040e42 	blhi	103da0 <GUEST_OFFSET-0x3fefc260>
 494:	0b0d4201 	bleq	350ca0 <GUEST_OFFSET-0x3fcaf360>
 498:	00000014 	andeq	r0, r0, r4, lsl r0
 49c:	00000470 	andeq	r0, r0, r0, ror r4
 4a0:	40001a94 	mulmi	r0, r4, sl
 4a4:	00000030 	andeq	r0, r0, r0, lsr r0
 4a8:	8b040e42 	blhi	103db8 <GUEST_OFFSET-0x3fefc248>
 4ac:	0b0d4201 	bleq	350cb8 <GUEST_OFFSET-0x3fcaf348>
 4b0:	00000018 	andeq	r0, r0, r8, lsl r0
 4b4:	00000470 	andeq	r0, r0, r0, ror r4
 4b8:	40001ac4 	andmi	r1, r0, r4, asr #21
 4bc:	00000080 	andeq	r0, r0, r0, lsl #1
 4c0:	8e080e42 	cdphi	14, 0, cr0, cr8, cr2, {2}
 4c4:	42028b01 	andmi	r8, r2, #1024	; 0x400
 4c8:	00040b0c 	andeq	r0, r4, ip, lsl #22
 4cc:	00000018 	andeq	r0, r0, r8, lsl r0
 4d0:	00000470 	andeq	r0, r0, r0, ror r4
 4d4:	40001b44 	andmi	r1, r0, r4, asr #22
 4d8:	00000074 	andeq	r0, r0, r4, ror r0
 4dc:	8e080e42 	cdphi	14, 0, cr0, cr8, cr2, {2}
 4e0:	42028b01 	andmi	r8, r2, #1024	; 0x400
 4e4:	00040b0c 	andeq	r0, r4, ip, lsl #22
 4e8:	00000014 	andeq	r0, r0, r4, lsl r0
 4ec:	00000470 	andeq	r0, r0, r0, ror r4
 4f0:	40001bb8 			; <UNDEFINED> instruction: 0x40001bb8
 4f4:	00000034 	andeq	r0, r0, r4, lsr r0
 4f8:	8b040e42 	blhi	103e08 <GUEST_OFFSET-0x3fefc1f8>
 4fc:	0b0d4201 	bleq	350d08 <GUEST_OFFSET-0x3fcaf2f8>
 500:	00000018 	andeq	r0, r0, r8, lsl r0
 504:	00000470 	andeq	r0, r0, r0, ror r4
 508:	40001bec 	andmi	r1, r0, ip, ror #23
 50c:	00000034 	andeq	r0, r0, r4, lsr r0
 510:	8e080e42 	cdphi	14, 0, cr0, cr8, cr2, {2}
 514:	42028b01 	andmi	r8, r2, #1024	; 0x400
 518:	00040b0c 	andeq	r0, r4, ip, lsl #22
 51c:	00000018 	andeq	r0, r0, r8, lsl r0
 520:	00000470 	andeq	r0, r0, r0, ror r4
 524:	40001c20 	andmi	r1, r0, r0, lsr #24
 528:	00000048 	andeq	r0, r0, r8, asr #32
 52c:	8e080e42 	cdphi	14, 0, cr0, cr8, cr2, {2}
 530:	42028b01 	andmi	r8, r2, #1024	; 0x400
 534:	00040b0c 	andeq	r0, r4, ip, lsl #22
 538:	00000014 	andeq	r0, r0, r4, lsl r0
 53c:	00000470 	andeq	r0, r0, r0, ror r4
 540:	40001c68 	andmi	r1, r0, r8, ror #24
 544:	00000034 	andeq	r0, r0, r4, lsr r0
 548:	8b040e42 	blhi	103e58 <GUEST_OFFSET-0x3fefc1a8>
 54c:	0b0d4201 	bleq	350d58 <GUEST_OFFSET-0x3fcaf2a8>
 550:	00000018 	andeq	r0, r0, r8, lsl r0
 554:	00000470 	andeq	r0, r0, r0, ror r4
 558:	40001c9c 	mulmi	r0, ip, ip
 55c:	000000f4 	strdeq	r0, [r0], -r4
 560:	8e080e42 	cdphi	14, 0, cr0, cr8, cr2, {2}
 564:	42028b01 	andmi	r8, r2, #1024	; 0x400
 568:	00040b0c 	andeq	r0, r4, ip, lsl #22
 56c:	00000018 	andeq	r0, r0, r8, lsl r0
 570:	00000470 	andeq	r0, r0, r0, ror r4
 574:	40001d90 	mulmi	r0, r0, sp
 578:	00000040 	andeq	r0, r0, r0, asr #32
 57c:	8e080e42 	cdphi	14, 0, cr0, cr8, cr2, {2}
 580:	42028b01 	andmi	r8, r2, #1024	; 0x400
 584:	00040b0c 	andeq	r0, r4, ip, lsl #22
 588:	00000018 	andeq	r0, r0, r8, lsl r0
 58c:	00000470 	andeq	r0, r0, r0, ror r4
 590:	40001dd0 	ldrdmi	r1, [r0], -r0
 594:	0000001c 	andeq	r0, r0, ip, lsl r0
 598:	8e080e42 	cdphi	14, 0, cr0, cr8, cr2, {2}
 59c:	42028b01 	andmi	r8, r2, #1024	; 0x400
 5a0:	00040b0c 	andeq	r0, r4, ip, lsl #22
