
guestloader.axf:     file format elf32-littlearm


Disassembly of section .text:

40000000 <guestloader_start>:
40000000:	e321f0d2 	msr	CPSR_c, #210	; 0xd2
40000004:	e59fd098 	ldr	sp, [pc, #152]	; 400000a4 <except_irq+0x24>
40000008:	e321f0d3 	msr	CPSR_c, #211	; 0xd3
4000000c:	e59fd094 	ldr	sp, [pc, #148]	; 400000a8 <except_irq+0x28>
40000010:	e59f0094 	ldr	r0, [pc, #148]	; 400000ac <except_irq+0x2c>
40000014:	ee0c0f10 	mcr	15, 0, r0, cr12, cr0, {0}
40000018:	e59f2090 	ldr	r2, [pc, #144]	; 400000b0 <except_irq+0x30>
4000001c:	e59f3090 	ldr	r3, [pc, #144]	; 400000b4 <except_irq+0x34>
40000020:	e3a00000 	mov	r0, #0
40000024:	e4820004 	str	r0, [r2], #4
40000028:	e1520003 	cmp	r2, r3
4000002c:	3afffffc 	bcc	40000024 <guestloader_start+0x24>
40000030:	e59f2080 	ldr	r2, [pc, #128]	; 400000b8 <except_irq+0x38>
40000034:	e59f3080 	ldr	r3, [pc, #128]	; 400000bc <except_irq+0x3c>
40000038:	e3a00000 	mov	r0, #0
4000003c:	e4820004 	str	r0, [r2], #4
40000040:	e1520003 	cmp	r2, r3
40000044:	3afffffc 	bcc	4000003c <guestloader_start+0x3c>
40000048:	e1a0000a 	mov	r0, sl
4000004c:	ea000bd3 	b	40002fa0 <main>
40000050:	e320f000 	nop	{0}
40000054:	e320f000 	nop	{0}
40000058:	e320f000 	nop	{0}
4000005c:	e320f000 	nop	{0}

40000060 <guestloader_vector>:
	...
40000078:	ea000000 	b	40000080 <except_irq>
4000007c:	00000000 	andeq	r0, r0, r0

40000080 <except_irq>:
40000080:	e92d1fff 	push	{r0, r1, r2, r3, r4, r5, r6, r7, r8, r9, sl, fp, ip}
40000084:	e14f0000 	mrs	r0, SPSR
40000088:	e92d4001 	push	{r0, lr}
4000008c:	e1a0000d 	mov	r0, sp
40000090:	eb0004d0 	bl	400013d8 <_except_irq>
40000094:	e8bd4001 	pop	{r0, lr}
40000098:	e169f000 	msr	SPSR_fc, r0
4000009c:	e8bd1fff 	pop	{r0, r1, r2, r3, r4, r5, r6, r7, r8, r9, sl, fp, ip}
400000a0:	e25ef004 	subs	pc, lr, #4
400000a4:	4f800000 	svcmi	0x00800000
400000a8:	4f400000 	svcmi	0x00400000
400000ac:	40000060 	andmi	r0, r0, r0, rrx
400000b0:	400039f0 	strdmi	r3, [r0], -r0
400000b4:	400fa590 	mulmi	pc, r0, r5	; <UNPREDICTABLE>
400000b8:	4ec00000 	cdpmi	0, 12, cr0, cr0, cr0, {0}
400000bc:	4f000000 	svcmi	0x00000000

400000c0 <guestloader_flag_autoboot>:
400000c0:	e3033bc0 	movw	r3, #15296	; 0x3bc0
400000c4:	e3443000 	movt	r3, #16384	; 0x4000
400000c8:	e5830000 	str	r0, [r3]
400000cc:	e12fff1e 	bx	lr

400000d0 <check_uart_mode>:
400000d0:	e30339f0 	movw	r3, #14832	; 0x39f0
400000d4:	e3a02000 	mov	r2, #0
400000d8:	e3443000 	movt	r3, #16384	; 0x4000
400000dc:	e34122c2 	movt	r2, #4802	; 0x12c2
400000e0:	e5930000 	ldr	r0, [r3]
400000e4:	e0500002 	subs	r0, r0, r2
400000e8:	13a00001 	movne	r0, #1
400000ec:	e12fff1e 	bx	lr

400000f0 <set_uart_mode>:
400000f0:	e3500000 	cmp	r0, #0
400000f4:	0a000009 	beq	40000120 <set_uart_mode+0x30>
400000f8:	e3500001 	cmp	r0, #1
400000fc:	112fff1e 	bxne	lr
40000100:	e59f3030 	ldr	r3, [pc, #48]	; 40000138 <set_uart_mode+0x48>
40000104:	e3a01000 	mov	r1, #0
40000108:	e1a02001 	mov	r2, r1
4000010c:	e34112c2 	movt	r1, #4802	; 0x12c2
40000110:	e34122c1 	movt	r2, #4801	; 0x12c1
40000114:	e5831004 	str	r1, [r3, #4]
40000118:	e5832000 	str	r2, [r3]
4000011c:	e12fff1e 	bx	lr
40000120:	e59f2010 	ldr	r2, [pc, #16]	; 40000138 <set_uart_mode+0x48>
40000124:	e3a03000 	mov	r3, #0
40000128:	e34132c2 	movt	r3, #4802	; 0x12c2
4000012c:	e5823004 	str	r3, [r2, #4]
40000130:	e5823000 	str	r3, [r2]
40000134:	e12fff1e 	bx	lr
40000138:	400039f0 	strdmi	r3, [r0], -r0

4000013c <serial_tst_fifo>:
4000013c:	e30339f0 	movw	r3, #14832	; 0x39f0
40000140:	e3443000 	movt	r3, #16384	; 0x4000
40000144:	e5933004 	ldr	r3, [r3, #4]
40000148:	e5930018 	ldr	r0, [r3, #24]
4000014c:	e1b00b80 	lsls	r0, r0, #23
40000150:	13a00001 	movne	r0, #1
40000154:	e12fff1e 	bx	lr

40000158 <serial_getc>:
40000158:	e59f302c 	ldr	r3, [pc, #44]	; 4000018c <serial_getc+0x34>
4000015c:	e5933004 	ldr	r3, [r3, #4]
40000160:	ea000002 	b	40000170 <serial_getc+0x18>
40000164:	e5932014 	ldr	r2, [r3, #20]
40000168:	e312000f 	tst	r2, #15
4000016c:	112fff1e 	bxne	lr
40000170:	e5930018 	ldr	r0, [r3, #24]
40000174:	e1a00b80 	lsl	r0, r0, #23
40000178:	e1a00ba0 	lsr	r0, r0, #23
4000017c:	e3500000 	cmp	r0, #0
40000180:	0afffff7 	beq	40000164 <serial_getc+0xc>
40000184:	e5d30024 	ldrb	r0, [r3, #36]	; 0x24
40000188:	e12fff1e 	bx	lr
4000018c:	400039f0 	strdmi	r3, [r0], -r0

40000190 <serial_putc>:
40000190:	e59f3024 	ldr	r3, [pc, #36]	; 400001bc <serial_putc+0x2c>
40000194:	e5933000 	ldr	r3, [r3]
40000198:	ea000002 	b	400001a8 <serial_putc+0x18>
4000019c:	e5932014 	ldr	r2, [r3, #20]
400001a0:	e3120008 	tst	r2, #8
400001a4:	112fff1e 	bxne	lr
400001a8:	e5932018 	ldr	r2, [r3, #24]
400001ac:	e3120401 	tst	r2, #16777216	; 0x1000000
400001b0:	1afffff9 	bne	4000019c <serial_putc+0xc>
400001b4:	e5c30020 	strb	r0, [r3, #32]
400001b8:	e12fff1e 	bx	lr
400001bc:	400039f0 	strdmi	r3, [r0], -r0

400001c0 <serial_setbrg_dev>:
400001c0:	e3a0300c 	mov	r3, #12
400001c4:	e5803028 	str	r3, [r0, #40]	; 0x28
400001c8:	e3a03000 	mov	r3, #0
400001cc:	e5c0302c 	strb	r3, [r0, #44]	; 0x2c
400001d0:	e12fff1e 	bx	lr

400001d4 <serial_init>:
400001d4:	e3a03000 	mov	r3, #0
400001d8:	e3a01001 	mov	r1, #1
400001dc:	e34132c2 	movt	r3, #4802	; 0x12c2
400001e0:	e30329f0 	movw	r2, #14832	; 0x39f0
400001e4:	e3442000 	movt	r2, #16384	; 0x4000
400001e8:	e5831008 	str	r1, [r3, #8]
400001ec:	e3a01000 	mov	r1, #0
400001f0:	e583100c 	str	r1, [r3, #12]
400001f4:	e3a01003 	mov	r1, #3
400001f8:	e5831000 	str	r1, [r3]
400001fc:	e3001245 	movw	r1, #581	; 0x245
40000200:	e5831004 	str	r1, [r3, #4]
40000204:	e5823004 	str	r3, [r2, #4]
40000208:	e5823000 	str	r3, [r2]
4000020c:	e12fff1e 	bx	lr

40000210 <uart_putc>:
40000210:	e350000a 	cmp	r0, #10
40000214:	e92d4010 	push	{r4, lr}
40000218:	e1a04000 	mov	r4, r0
4000021c:	0a000002 	beq	4000022c <uart_putc+0x1c>
40000220:	e1a00004 	mov	r0, r4
40000224:	e8bd4010 	pop	{r4, lr}
40000228:	eaffffd8 	b	40000190 <serial_putc>
4000022c:	e3a0000d 	mov	r0, #13
40000230:	ebffffd6 	bl	40000190 <serial_putc>
40000234:	eafffff9 	b	40000220 <uart_putc+0x10>

40000238 <uart_tst_fifo>:
40000238:	e92d4008 	push	{r3, lr}
4000023c:	ebffffbe 	bl	4000013c <serial_tst_fifo>
40000240:	e2900000 	adds	r0, r0, #0
40000244:	13a00001 	movne	r0, #1
40000248:	e8bd8008 	pop	{r3, pc}

4000024c <uart_print>:
4000024c:	e92d4038 	push	{r3, r4, r5, lr}
40000250:	e5d03000 	ldrb	r3, [r0]
40000254:	e3530000 	cmp	r3, #0
40000258:	08bd8038 	popeq	{r3, r4, r5, pc}
4000025c:	e2404001 	sub	r4, r0, #1
40000260:	e3a05000 	mov	r5, #0
40000264:	ea000004 	b	4000027c <uart_print+0x30>
40000268:	e5f40001 	ldrb	r0, [r4, #1]!
4000026c:	ebffffe7 	bl	40000210 <uart_putc>
40000270:	e5d43001 	ldrb	r3, [r4, #1]
40000274:	e3530000 	cmp	r3, #0
40000278:	0a000009 	beq	400002a4 <uart_print+0x58>
4000027c:	ebffff93 	bl	400000d0 <check_uart_mode>
40000280:	e3500001 	cmp	r0, #1
40000284:	1afffff7 	bne	40000268 <uart_print+0x1c>
40000288:	e2855001 	add	r5, r5, #1
4000028c:	e3550050 	cmp	r5, #80	; 0x50
40000290:	dafffff4 	ble	40000268 <uart_print+0x1c>
40000294:	e3a0000a 	mov	r0, #10
40000298:	e3a05000 	mov	r5, #0
4000029c:	ebffffdb 	bl	40000210 <uart_putc>
400002a0:	eafffff0 	b	40000268 <uart_print+0x1c>
400002a4:	e8bd8038 	pop	{r3, r4, r5, pc}

400002a8 <uart_print_hex32>:
400002a8:	e92d4038 	push	{r3, r4, r5, lr}
400002ac:	e1a05000 	mov	r5, r0
400002b0:	e59f002c 	ldr	r0, [pc, #44]	; 400002e4 <uart_print_hex32+0x3c>
400002b4:	e3a0401c 	mov	r4, #28
400002b8:	ebffffe3 	bl	4000024c <uart_print>
400002bc:	e1a03435 	lsr	r3, r5, r4
400002c0:	e2444004 	sub	r4, r4, #4
400002c4:	e203300f 	and	r3, r3, #15
400002c8:	e3530009 	cmp	r3, #9
400002cc:	e2830030 	add	r0, r3, #48	; 0x30
400002d0:	82830037 	addhi	r0, r3, #55	; 0x37
400002d4:	ebffffcd 	bl	40000210 <uart_putc>
400002d8:	e3740004 	cmn	r4, #4
400002dc:	1afffff6 	bne	400002bc <uart_print_hex32+0x14>
400002e0:	e8bd8038 	pop	{r3, r4, r5, pc}
400002e4:	40003214 	andmi	r3, r0, r4, lsl r2

400002e8 <uart_print_hex64>:
400002e8:	e92d4010 	push	{r4, lr}
400002ec:	e1a04000 	mov	r4, r0
400002f0:	e1a00001 	mov	r0, r1
400002f4:	ebffffeb 	bl	400002a8 <uart_print_hex32>
400002f8:	e1a00004 	mov	r0, r4
400002fc:	e8bd4010 	pop	{r4, lr}
40000300:	eaffffe8 	b	400002a8 <uart_print_hex32>

40000304 <uart_getc>:
40000304:	e92d4010 	push	{r4, lr}
40000308:	ebffff92 	bl	40000158 <serial_getc>
4000030c:	e6ef4070 	uxtb	r4, r0
40000310:	ebffff6e 	bl	400000d0 <check_uart_mode>
40000314:	e354000d 	cmp	r4, #13
40000318:	03a0400a 	moveq	r4, #10
4000031c:	e3500001 	cmp	r0, #1
40000320:	0a000001 	beq	4000032c <uart_getc+0x28>
40000324:	e1a00004 	mov	r0, r4
40000328:	ebffffb8 	bl	40000210 <uart_putc>
4000032c:	e1a00004 	mov	r0, r4
40000330:	e8bd8010 	pop	{r4, pc}

40000334 <uart_gets>:
40000334:	e92d4070 	push	{r4, r5, r6, lr}
40000338:	e1a04000 	mov	r4, r0
4000033c:	e1a06001 	mov	r6, r1
40000340:	ebffffef 	bl	40000304 <uart_getc>
40000344:	e350000a 	cmp	r0, #10
40000348:	0a000010 	beq	40000390 <uart_gets+0x5c>
4000034c:	e3560000 	cmp	r6, #0
40000350:	da00000e 	ble	40000390 <uart_gets+0x5c>
40000354:	e2566001 	subs	r6, r6, #1
40000358:	e4c40001 	strb	r0, [r4], #1
4000035c:	0a00000b 	beq	40000390 <uart_gets+0x5c>
40000360:	e1a05004 	mov	r5, r4
40000364:	ea000005 	b	40000380 <uart_gets+0x4c>
40000368:	e3560000 	cmp	r6, #0
4000036c:	0a000007 	beq	40000390 <uart_gets+0x5c>
40000370:	e2566001 	subs	r6, r6, #1
40000374:	e4c50001 	strb	r0, [r5], #1
40000378:	e1a04005 	mov	r4, r5
4000037c:	0a000003 	beq	40000390 <uart_gets+0x5c>
40000380:	ebffffdf 	bl	40000304 <uart_getc>
40000384:	e350000a 	cmp	r0, #10
40000388:	e1a04005 	mov	r4, r5
4000038c:	1afffff5 	bne	40000368 <uart_gets+0x34>
40000390:	e3a03000 	mov	r3, #0
40000394:	e5c43000 	strb	r3, [r4]
40000398:	e8bd8070 	pop	{r4, r5, r6, pc}

4000039c <uart_init>:
4000039c:	e92d4008 	push	{r3, lr}
400003a0:	ebffff8b 	bl	400001d4 <serial_init>
400003a4:	e8bd4008 	pop	{r3, lr}
400003a8:	ea0000dd 	b	40000724 <init_print>

400003ac <timer_handler>:
400003ac:	e92d4038 	push	{r3, r4, r5, lr}
400003b0:	e308551f 	movw	r5, #34079	; 0x851f
400003b4:	e59f406c 	ldr	r4, [pc, #108]	; 40000428 <timer_handler+0x7c>
400003b8:	e34551eb 	movt	r5, #20971	; 0x51eb
400003bc:	e5943000 	ldr	r3, [r4]
400003c0:	e0c12395 	smull	r2, r1, r5, r3
400003c4:	e1a02fc3 	asr	r2, r3, #31
400003c8:	e0622341 	rsb	r2, r2, r1, asr #6
400003cc:	e3a010c8 	mov	r1, #200	; 0xc8
400003d0:	e0623291 	mls	r2, r1, r2, r3
400003d4:	e3520000 	cmp	r2, #0
400003d8:	0a000007 	beq	400003fc <timer_handler+0x50>
400003dc:	e3530000 	cmp	r3, #0
400003e0:	1a000002 	bne	400003f0 <timer_handler+0x44>
400003e4:	e3a00001 	mov	r0, #1
400003e8:	ebffff34 	bl	400000c0 <guestloader_flag_autoboot>
400003ec:	e5943000 	ldr	r3, [r4]
400003f0:	e2433001 	sub	r3, r3, #1
400003f4:	e5843000 	str	r3, [r4]
400003f8:	e8bd8038 	pop	{r3, r4, r5, pc}
400003fc:	e59f0028 	ldr	r0, [pc, #40]	; 4000042c <timer_handler+0x80>
40000400:	ebffff91 	bl	4000024c <uart_print>
40000404:	e5943000 	ldr	r3, [r4]
40000408:	e0c02395 	smull	r2, r0, r5, r3
4000040c:	e1a03fc3 	asr	r3, r3, #31
40000410:	e0630340 	rsb	r0, r3, r0, asr #6
40000414:	ebffffa3 	bl	400002a8 <uart_print_hex32>
40000418:	e59f0010 	ldr	r0, [pc, #16]	; 40000430 <timer_handler+0x84>
4000041c:	ebffff8a 	bl	4000024c <uart_print>
40000420:	e5943000 	ldr	r3, [r4]
40000424:	eaffffec 	b	400003dc <timer_handler+0x30>
40000428:	400039b4 			; <UNDEFINED> instruction: 0x400039b4
4000042c:	40003218 	andmi	r3, r0, r8, lsl r2
40000430:	40003208 	andmi	r3, r0, r8, lsl #4

40000434 <timer_disable>:
40000434:	e3a00001 	mov	r0, #1
40000438:	ea0004ee 	b	400017f8 <vtimer_mask>

4000043c <timer_enable>:
4000043c:	e3a00000 	mov	r0, #0
40000440:	ea0004ec 	b	400017f8 <vtimer_mask>

40000444 <timer_init>:
40000444:	e30013ac 	movw	r1, #940	; 0x3ac
40000448:	e92d4008 	push	{r3, lr}
4000044c:	e3a02000 	mov	r2, #0
40000450:	e3441000 	movt	r1, #16384	; 0x4000
40000454:	e3a0001e 	mov	r0, #30
40000458:	eb0003f7 	bl	4000143c <gic_set_irq_handler>
4000045c:	e8bd4008 	pop	{r3, lr}
40000460:	eafffff5 	b	4000043c <timer_enable>

40000464 <s5p_gpio_cfg_pin>:
40000464:	e5903000 	ldr	r3, [r0]
40000468:	e1a01101 	lsl	r1, r1, #2
4000046c:	e3a0c00f 	mov	ip, #15
40000470:	e1c3311c 	bic	r3, r3, ip, lsl r1
40000474:	e1831112 	orr	r1, r3, r2, lsl r1
40000478:	e5801000 	str	r1, [r0]
4000047c:	e12fff1e 	bx	lr

40000480 <s5p_gpio_direction_output>:
40000480:	e52d4004 	push	{r4}		; (str r4, [sp, #-4]!)
40000484:	e1a03101 	lsl	r3, r1, #2
40000488:	e5904000 	ldr	r4, [r0]
4000048c:	e3520000 	cmp	r2, #0
40000490:	e3a0200f 	mov	r2, #15
40000494:	e3a0c001 	mov	ip, #1
40000498:	e1a0111c 	lsl	r1, ip, r1
4000049c:	e1c44312 	bic	r4, r4, r2, lsl r3
400004a0:	e184331c 	orr	r3, r4, ip, lsl r3
400004a4:	e5803000 	str	r3, [r0]
400004a8:	e5903004 	ldr	r3, [r0, #4]
400004ac:	e1c33001 	bic	r3, r3, r1
400004b0:	11833001 	orrne	r3, r3, r1
400004b4:	e5803004 	str	r3, [r0, #4]
400004b8:	e8bd0010 	pop	{r4}
400004bc:	e12fff1e 	bx	lr

400004c0 <s5p_gpio_direction_input>:
400004c0:	e5903000 	ldr	r3, [r0]
400004c4:	e1a01101 	lsl	r1, r1, #2
400004c8:	e3a0200f 	mov	r2, #15
400004cc:	e1c31112 	bic	r1, r3, r2, lsl r1
400004d0:	e5801000 	str	r1, [r0]
400004d4:	e12fff1e 	bx	lr

400004d8 <s5p_gpio_set_value>:
400004d8:	e5903004 	ldr	r3, [r0, #4]
400004dc:	e3a0c001 	mov	ip, #1
400004e0:	e3520000 	cmp	r2, #0
400004e4:	e1a0111c 	lsl	r1, ip, r1
400004e8:	e1c33001 	bic	r3, r3, r1
400004ec:	11833001 	orrne	r3, r3, r1
400004f0:	e5803004 	str	r3, [r0, #4]
400004f4:	e12fff1e 	bx	lr

400004f8 <s5p_gpio_get_value>:
400004f8:	e5903004 	ldr	r3, [r0, #4]
400004fc:	e3a02001 	mov	r2, #1
40000500:	e0132112 	ands	r2, r3, r2, lsl r1
40000504:	03a00000 	moveq	r0, #0
40000508:	13a00001 	movne	r0, #1
4000050c:	e12fff1e 	bx	lr

40000510 <s5p_gpio_set_pull>:
40000510:	e5903008 	ldr	r3, [r0, #8]
40000514:	e1a01081 	lsl	r1, r1, #1
40000518:	e3520001 	cmp	r2, #1
4000051c:	e3a0c003 	mov	ip, #3
40000520:	e1c3311c 	bic	r3, r3, ip, lsl r1
40000524:	0a000003 	beq	40000538 <s5p_gpio_set_pull+0x28>
40000528:	e152000c 	cmp	r2, ip
4000052c:	0a000001 	beq	40000538 <s5p_gpio_set_pull+0x28>
40000530:	e5803008 	str	r3, [r0, #8]
40000534:	e12fff1e 	bx	lr
40000538:	e1833112 	orr	r3, r3, r2, lsl r1
4000053c:	e5803008 	str	r3, [r0, #8]
40000540:	e12fff1e 	bx	lr

40000544 <s5p_gpio_set_drv>:
40000544:	e3520003 	cmp	r2, #3
40000548:	e590300c 	ldr	r3, [r0, #12]
4000054c:	812fff1e 	bxhi	lr
40000550:	e1a01081 	lsl	r1, r1, #1
40000554:	e3a0c003 	mov	ip, #3
40000558:	e1c3311c 	bic	r3, r3, ip, lsl r1
4000055c:	e1832112 	orr	r2, r3, r2, lsl r1
40000560:	e580200c 	str	r2, [r0, #12]
40000564:	e12fff1e 	bx	lr

40000568 <s5p_gpio_set_rate>:
40000568:	e3520001 	cmp	r2, #1
4000056c:	e590300c 	ldr	r3, [r0, #12]
40000570:	812fff1e 	bxhi	lr
40000574:	e2811010 	add	r1, r1, #16
40000578:	e3a02001 	mov	r2, #1
4000057c:	e1a01112 	lsl	r1, r2, r1
40000580:	e1c33001 	bic	r3, r3, r1
40000584:	e1831001 	orr	r1, r3, r1
40000588:	e580100c 	str	r1, [r0, #12]
4000058c:	e12fff1e 	bx	lr

40000590 <s5p_gpio_get_bank>:
40000590:	e3500e32 	cmp	r0, #800	; 0x320
40000594:	2a000004 	bcs	400005ac <s5p_gpio_get_bank+0x1c>
40000598:	e1a001a0 	lsr	r0, r0, #3
4000059c:	e3a03545 	mov	r3, #289406976	; 0x11400000
400005a0:	e1a00280 	lsl	r0, r0, #5
400005a4:	e0830000 	add	r0, r3, r0
400005a8:	e12fff1e 	bx	lr
400005ac:	e2400048 	sub	r0, r0, #72	; 0x48
400005b0:	e3a03000 	mov	r3, #0
400005b4:	e1a001a0 	lsr	r0, r0, #3
400005b8:	e34130d1 	movt	r3, #4305	; 0x10d1
400005bc:	e1a00280 	lsl	r0, r0, #5
400005c0:	e0830000 	add	r0, r3, r0
400005c4:	e12fff1e 	bx	lr

400005c8 <s5p_gpio_get_pin>:
400005c8:	e2000007 	and	r0, r0, #7
400005cc:	e12fff1e 	bx	lr

400005d0 <gpio_request>:
400005d0:	e3a00000 	mov	r0, #0
400005d4:	e12fff1e 	bx	lr

400005d8 <gpio_free>:
400005d8:	e3a00000 	mov	r0, #0
400005dc:	e12fff1e 	bx	lr

400005e0 <gpio_direction_input>:
400005e0:	e3500e32 	cmp	r0, #800	; 0x320
400005e4:	e52d4004 	push	{r4}		; (str r4, [sp, #-4]!)
400005e8:	2a00000b 	bcs	4000061c <gpio_direction_input+0x3c>
400005ec:	e1a021a0 	lsr	r2, r0, #3
400005f0:	e3a03545 	mov	r3, #289406976	; 0x11400000
400005f4:	e1a02282 	lsl	r2, r2, #5
400005f8:	e793c002 	ldr	ip, [r3, r2]
400005fc:	e2001007 	and	r1, r0, #7
40000600:	e3a0400f 	mov	r4, #15
40000604:	e1a01101 	lsl	r1, r1, #2
40000608:	e3a00000 	mov	r0, #0
4000060c:	e1cc1114 	bic	r1, ip, r4, lsl r1
40000610:	e7831002 	str	r1, [r3, r2]
40000614:	e8bd0010 	pop	{r4}
40000618:	e12fff1e 	bx	lr
4000061c:	e2402048 	sub	r2, r0, #72	; 0x48
40000620:	e3a03000 	mov	r3, #0
40000624:	e1a021a2 	lsr	r2, r2, #3
40000628:	e34130d1 	movt	r3, #4305	; 0x10d1
4000062c:	e1a02282 	lsl	r2, r2, #5
40000630:	eafffff0 	b	400005f8 <gpio_direction_input+0x18>

40000634 <gpio_direction_output>:
40000634:	e3500e32 	cmp	r0, #800	; 0x320
40000638:	e92d4008 	push	{r3, lr}
4000063c:	e1a02001 	mov	r2, r1
40000640:	e1a03000 	mov	r3, r0
40000644:	2a000007 	bcs	40000668 <gpio_direction_output+0x34>
40000648:	e1a001a0 	lsr	r0, r0, #3
4000064c:	e3a01545 	mov	r1, #289406976	; 0x11400000
40000650:	e1a00280 	lsl	r0, r0, #5
40000654:	e0810000 	add	r0, r1, r0
40000658:	e2031007 	and	r1, r3, #7
4000065c:	ebffff87 	bl	40000480 <s5p_gpio_direction_output>
40000660:	e3a00000 	mov	r0, #0
40000664:	e8bd8008 	pop	{r3, pc}
40000668:	e2400048 	sub	r0, r0, #72	; 0x48
4000066c:	e3a01000 	mov	r1, #0
40000670:	e1a001a0 	lsr	r0, r0, #3
40000674:	e34110d1 	movt	r1, #4305	; 0x10d1
40000678:	e1a00280 	lsl	r0, r0, #5
4000067c:	eafffff4 	b	40000654 <gpio_direction_output+0x20>

40000680 <gpio_get_value>:
40000680:	e3500e32 	cmp	r0, #800	; 0x320
40000684:	2a00000a 	bcs	400006b4 <gpio_get_value+0x34>
40000688:	e1a021a0 	lsr	r2, r0, #3
4000068c:	e3a03545 	mov	r3, #289406976	; 0x11400000
40000690:	e1a02282 	lsl	r2, r2, #5
40000694:	e0833002 	add	r3, r3, r2
40000698:	e2000007 	and	r0, r0, #7
4000069c:	e5933004 	ldr	r3, [r3, #4]
400006a0:	e3a02001 	mov	r2, #1
400006a4:	e0132012 	ands	r2, r3, r2, lsl r0
400006a8:	03a00000 	moveq	r0, #0
400006ac:	13a00001 	movne	r0, #1
400006b0:	e12fff1e 	bx	lr
400006b4:	e2402048 	sub	r2, r0, #72	; 0x48
400006b8:	e3a03000 	mov	r3, #0
400006bc:	e1a021a2 	lsr	r2, r2, #3
400006c0:	e34130d1 	movt	r3, #4305	; 0x10d1
400006c4:	e1a02282 	lsl	r2, r2, #5
400006c8:	eafffff1 	b	40000694 <gpio_get_value+0x14>

400006cc <gpio_set_value>:
400006cc:	e3500e32 	cmp	r0, #800	; 0x320
400006d0:	2a00000d 	bcs	4000070c <gpio_set_value+0x40>
400006d4:	e1a021a0 	lsr	r2, r0, #3
400006d8:	e3a03545 	mov	r3, #289406976	; 0x11400000
400006dc:	e1a02282 	lsl	r2, r2, #5
400006e0:	e0832002 	add	r2, r3, r2
400006e4:	e3510000 	cmp	r1, #0
400006e8:	e5923004 	ldr	r3, [r2, #4]
400006ec:	e3a01001 	mov	r1, #1
400006f0:	e2000007 	and	r0, r0, #7
400006f4:	e1a00011 	lsl	r0, r1, r0
400006f8:	e1c33000 	bic	r3, r3, r0
400006fc:	11833000 	orrne	r3, r3, r0
40000700:	e3a00000 	mov	r0, #0
40000704:	e5823004 	str	r3, [r2, #4]
40000708:	e12fff1e 	bx	lr
4000070c:	e2402048 	sub	r2, r0, #72	; 0x48
40000710:	e3a03000 	mov	r3, #0
40000714:	e1a021a2 	lsr	r2, r2, #3
40000718:	e34130d1 	movt	r3, #4305	; 0x10d1
4000071c:	e1a02282 	lsl	r2, r2, #5
40000720:	eaffffee 	b	400006e0 <gpio_set_value+0x14>

40000724 <init_print>:
40000724:	e3000210 	movw	r0, #528	; 0x210
40000728:	e92d4008 	push	{r3, lr}
4000072c:	e3440000 	movt	r0, #16384	; 0x4000
40000730:	eb0001cc 	bl	40000e68 <format_reg_putc>
40000734:	e300024c 	movw	r0, #588	; 0x24c
40000738:	e3440000 	movt	r0, #16384	; 0x4000
4000073c:	e8bd4008 	pop	{r3, lr}
40000740:	ea0001c4 	b	40000e58 <format_reg_puts>

40000744 <printH>:
40000744:	e92d000f 	push	{r0, r1, r2, r3}
40000748:	e52de004 	push	{lr}		; (str lr, [sp, #-4]!)
4000074c:	e24dd00c 	sub	sp, sp, #12
40000750:	e28d3014 	add	r3, sp, #20
40000754:	e59d0010 	ldr	r0, [sp, #16]
40000758:	e1a01003 	mov	r1, r3
4000075c:	e58d3004 	str	r3, [sp, #4]
40000760:	eb000172 	bl	40000d30 <format_print>
40000764:	e28dd00c 	add	sp, sp, #12
40000768:	e49de004 	pop	{lr}		; (ldr lr, [sp], #4)
4000076c:	e28dd010 	add	sp, sp, #16
40000770:	e12fff1e 	bx	lr

40000774 <sspeek>:
40000774:	e5903000 	ldr	r3, [r0]
40000778:	e5d30000 	ldrb	r0, [r3]
4000077c:	e12fff1e 	bx	lr

40000780 <sspop>:
40000780:	e5903000 	ldr	r3, [r0]
40000784:	e2833001 	add	r3, r3, #1
40000788:	e5803000 	str	r3, [r0]
4000078c:	e12fff1e 	bx	lr

40000790 <parse_hex.constprop.2>:
40000790:	e590c000 	ldr	ip, [r0]
40000794:	e1a03000 	mov	r3, r0
40000798:	e92d00f0 	push	{r4, r5, r6, r7}
4000079c:	e5dc2000 	ldrb	r2, [ip]
400007a0:	e2425030 	sub	r5, r2, #48	; 0x30
400007a4:	e6ef0075 	uxtb	r0, r5
400007a8:	e3500009 	cmp	r0, #9
400007ac:	9a000002 	bls	400007bc <parse_hex.constprop.2+0x2c>
400007b0:	e2420061 	sub	r0, r2, #97	; 0x61
400007b4:	e3500005 	cmp	r0, #5
400007b8:	8a00001e 	bhi	40000838 <parse_hex.constprop.2+0xa8>
400007bc:	e3520060 	cmp	r2, #96	; 0x60
400007c0:	e3a06000 	mov	r6, #0
400007c4:	e26c7001 	rsb	r7, ip, #1
400007c8:	9a000016 	bls	40000828 <parse_hex.constprop.2+0x98>
400007cc:	e2425057 	sub	r5, r2, #87	; 0x57
400007d0:	e6ef5075 	uxtb	r5, r5
400007d4:	e28c4001 	add	r4, ip, #1
400007d8:	e0856206 	add	r6, r5, r6, lsl #4
400007dc:	e087000c 	add	r0, r7, ip
400007e0:	e5834000 	str	r4, [r3]
400007e4:	e5dc2001 	ldrb	r2, [ip, #1]
400007e8:	e2425030 	sub	r5, r2, #48	; 0x30
400007ec:	e6efc075 	uxtb	ip, r5
400007f0:	e35c0009 	cmp	ip, #9
400007f4:	9a000008 	bls	4000081c <parse_hex.constprop.2+0x8c>
400007f8:	e242c061 	sub	ip, r2, #97	; 0x61
400007fc:	e35c0005 	cmp	ip, #5
40000800:	9a000005 	bls	4000081c <parse_hex.constprop.2+0x8c>
40000804:	e242c041 	sub	ip, r2, #65	; 0x41
40000808:	e35c0005 	cmp	ip, #5
4000080c:	9a000002 	bls	4000081c <parse_hex.constprop.2+0x8c>
40000810:	e5816000 	str	r6, [r1]
40000814:	e8bd00f0 	pop	{r4, r5, r6, r7}
40000818:	e12fff1e 	bx	lr
4000081c:	e3520060 	cmp	r2, #96	; 0x60
40000820:	e1a0c004 	mov	ip, r4
40000824:	8affffe8 	bhi	400007cc <parse_hex.constprop.2+0x3c>
40000828:	e3520040 	cmp	r2, #64	; 0x40
4000082c:	82425037 	subhi	r5, r2, #55	; 0x37
40000830:	e6ef5075 	uxtb	r5, r5
40000834:	eaffffe6 	b	400007d4 <parse_hex.constprop.2+0x44>
40000838:	e2420041 	sub	r0, r2, #65	; 0x41
4000083c:	e3500005 	cmp	r0, #5
40000840:	9affffdd 	bls	400007bc <parse_hex.constprop.2+0x2c>
40000844:	e3e00000 	mvn	r0, #0
40000848:	eafffff1 	b	40000814 <parse_hex.constprop.2+0x84>

4000084c <parse_dec.constprop.1>:
4000084c:	e5902000 	ldr	r2, [r0]
40000850:	e1a03000 	mov	r3, r0
40000854:	e92d00f0 	push	{r4, r5, r6, r7}
40000858:	e5d2c000 	ldrb	ip, [r2]
4000085c:	e35c002d 	cmp	ip, #45	; 0x2d
40000860:	0a000016 	beq	400008c0 <parse_dec.constprop.1+0x74>
40000864:	e3a07000 	mov	r7, #0
40000868:	e24c0030 	sub	r0, ip, #48	; 0x30
4000086c:	e3500009 	cmp	r0, #9
40000870:	8a000018 	bhi	400008d8 <parse_dec.constprop.1+0x8c>
40000874:	e2876001 	add	r6, r7, #1
40000878:	e3a04000 	mov	r4, #0
4000087c:	e0626006 	rsb	r6, r2, r6
40000880:	e2825001 	add	r5, r2, #1
40000884:	e0844104 	add	r4, r4, r4, lsl #2
40000888:	e0860002 	add	r0, r6, r2
4000088c:	e08c4084 	add	r4, ip, r4, lsl #1
40000890:	e5835000 	str	r5, [r3]
40000894:	e5d2c001 	ldrb	ip, [r2, #1]
40000898:	e1a02005 	mov	r2, r5
4000089c:	e2444030 	sub	r4, r4, #48	; 0x30
400008a0:	e24c5030 	sub	r5, ip, #48	; 0x30
400008a4:	e3550009 	cmp	r5, #9
400008a8:	9afffff4 	bls	40000880 <parse_dec.constprop.1+0x34>
400008ac:	e3570000 	cmp	r7, #0
400008b0:	12644000 	rsbne	r4, r4, #0
400008b4:	e5814000 	str	r4, [r1]
400008b8:	e8bd00f0 	pop	{r4, r5, r6, r7}
400008bc:	e12fff1e 	bx	lr
400008c0:	e2820001 	add	r0, r2, #1
400008c4:	e3a07001 	mov	r7, #1
400008c8:	e5830000 	str	r0, [r3]
400008cc:	e5d2c001 	ldrb	ip, [r2, #1]
400008d0:	e1a02000 	mov	r2, r0
400008d4:	eaffffe3 	b	40000868 <parse_dec.constprop.1+0x1c>
400008d8:	e3e00000 	mvn	r0, #0
400008dc:	eafffff5 	b	400008b8 <parse_dec.constprop.1+0x6c>

400008e0 <sscanf>:
400008e0:	e92d000e 	push	{r1, r2, r3}
400008e4:	e92d45f0 	push	{r4, r5, r6, r7, r8, sl, lr}
400008e8:	e24dd010 	sub	sp, sp, #16
400008ec:	e28d3030 	add	r3, sp, #48	; 0x30
400008f0:	e3a04000 	mov	r4, #0
400008f4:	e59d502c 	ldr	r5, [sp, #44]	; 0x2c
400008f8:	e58d0004 	str	r0, [sp, #4]
400008fc:	e1a08003 	mov	r8, r3
40000900:	e1a0a004 	mov	sl, r4
40000904:	e58d3000 	str	r3, [sp]
40000908:	ea000006 	b	40000928 <sscanf+0x48>
4000090c:	e3530009 	cmp	r3, #9
40000910:	0a000011 	beq	4000095c <sscanf+0x7c>
40000914:	e353000a 	cmp	r3, #10
40000918:	0a00000f 	beq	4000095c <sscanf+0x7c>
4000091c:	e15c0003 	cmp	ip, r3
40000920:	e0844000 	add	r4, r4, r0
40000924:	0a000051 	beq	40000a70 <sscanf+0x190>
40000928:	e5d5c000 	ldrb	ip, [r5]
4000092c:	e35c0000 	cmp	ip, #0
40000930:	0a00001b 	beq	400009a4 <sscanf+0xc4>
40000934:	e35c0025 	cmp	ip, #37	; 0x25
40000938:	0a00000b 	beq	4000096c <sscanf+0x8c>
4000093c:	e59d1004 	ldr	r1, [sp, #4]
40000940:	e2855001 	add	r5, r5, #1
40000944:	e5d13000 	ldrb	r3, [r1]
40000948:	e1a02001 	mov	r2, r1
4000094c:	e3530020 	cmp	r3, #32
40000950:	e1a06002 	mov	r6, r2
40000954:	e0610002 	rsb	r0, r1, r2
40000958:	1affffeb 	bne	4000090c <sscanf+0x2c>
4000095c:	e2822001 	add	r2, r2, #1
40000960:	e58d2004 	str	r2, [sp, #4]
40000964:	e5d63001 	ldrb	r3, [r6, #1]
40000968:	eafffff7 	b	4000094c <sscanf+0x6c>
4000096c:	e5d5c001 	ldrb	ip, [r5, #1]
40000970:	e35c002a 	cmp	ip, #42	; 0x2a
40000974:	0a000031 	beq	40000a40 <sscanf+0x160>
40000978:	e35c006e 	cmp	ip, #110	; 0x6e
4000097c:	e2855002 	add	r5, r5, #2
40000980:	e3a06000 	mov	r6, #0
40000984:	0a000032 	beq	40000a54 <sscanf+0x174>
40000988:	8a00000a 	bhi	400009b8 <sscanf+0xd8>
4000098c:	e35c0064 	cmp	ip, #100	; 0x64
40000990:	0a00007c 	beq	40000b88 <sscanf+0x2a8>
40000994:	e35c006c 	cmp	ip, #108	; 0x6c
40000998:	0a000038 	beq	40000a80 <sscanf+0x1a0>
4000099c:	e35c0000 	cmp	ip, #0
400009a0:	1a000008 	bne	400009c8 <sscanf+0xe8>
400009a4:	e1a0000a 	mov	r0, sl
400009a8:	e28dd010 	add	sp, sp, #16
400009ac:	e8bd45f0 	pop	{r4, r5, r6, r7, r8, sl, lr}
400009b0:	e28dd00c 	add	sp, sp, #12
400009b4:	e12fff1e 	bx	lr
400009b8:	e35c0073 	cmp	ip, #115	; 0x73
400009bc:	0a000047 	beq	40000ae0 <sscanf+0x200>
400009c0:	e35c0078 	cmp	ip, #120	; 0x78
400009c4:	0a000002 	beq	400009d4 <sscanf+0xf4>
400009c8:	e59d1004 	ldr	r1, [sp, #4]
400009cc:	e5d13000 	ldrb	r3, [r1]
400009d0:	eaffffdc 	b	40000948 <sscanf+0x68>
400009d4:	e59d1004 	ldr	r1, [sp, #4]
400009d8:	e28d0004 	add	r0, sp, #4
400009dc:	e1a03001 	mov	r3, r1
400009e0:	e0617003 	rsb	r7, r1, r3
400009e4:	e4d32001 	ldrb	r2, [r3], #1
400009e8:	e3520020 	cmp	r2, #32
400009ec:	0a000011 	beq	40000a38 <sscanf+0x158>
400009f0:	e3520009 	cmp	r2, #9
400009f4:	0a00000f 	beq	40000a38 <sscanf+0x158>
400009f8:	e352000a 	cmp	r2, #10
400009fc:	0a00000d 	beq	40000a38 <sscanf+0x158>
40000a00:	e28d100c 	add	r1, sp, #12
40000a04:	ebffff61 	bl	40000790 <parse_hex.constprop.2>
40000a08:	e3500000 	cmp	r0, #0
40000a0c:	baffffe4 	blt	400009a4 <sscanf+0xc4>
40000a10:	e3560000 	cmp	r6, #0
40000a14:	1a000004 	bne	40000a2c <sscanf+0x14c>
40000a18:	e5983000 	ldr	r3, [r8]
40000a1c:	e28aa001 	add	sl, sl, #1
40000a20:	e2888004 	add	r8, r8, #4
40000a24:	e59d200c 	ldr	r2, [sp, #12]
40000a28:	e5832000 	str	r2, [r3]
40000a2c:	e0844007 	add	r4, r4, r7
40000a30:	e0844000 	add	r4, r4, r0
40000a34:	eaffffbb 	b	40000928 <sscanf+0x48>
40000a38:	e58d3004 	str	r3, [sp, #4]
40000a3c:	eaffffe7 	b	400009e0 <sscanf+0x100>
40000a40:	e5d5c002 	ldrb	ip, [r5, #2]
40000a44:	e3a06001 	mov	r6, #1
40000a48:	e2855003 	add	r5, r5, #3
40000a4c:	e35c006e 	cmp	ip, #110	; 0x6e
40000a50:	1affffcc 	bne	40000988 <sscanf+0xa8>
40000a54:	e3560000 	cmp	r6, #0
40000a58:	1affffb2 	bne	40000928 <sscanf+0x48>
40000a5c:	e5983000 	ldr	r3, [r8]
40000a60:	e28aa001 	add	sl, sl, #1
40000a64:	e2888004 	add	r8, r8, #4
40000a68:	e5834000 	str	r4, [r3]
40000a6c:	eaffffad 	b	40000928 <sscanf+0x48>
40000a70:	e2822001 	add	r2, r2, #1
40000a74:	e2844001 	add	r4, r4, #1
40000a78:	e58d2004 	str	r2, [sp, #4]
40000a7c:	eaffffa9 	b	40000928 <sscanf+0x48>
40000a80:	e59dc004 	ldr	ip, [sp, #4]
40000a84:	e28d0004 	add	r0, sp, #4
40000a88:	e1a0200c 	mov	r2, ip
40000a8c:	e5d23000 	ldrb	r3, [r2]
40000a90:	e1a01002 	mov	r1, r2
40000a94:	e2822001 	add	r2, r2, #1
40000a98:	e06c7001 	rsb	r7, ip, r1
40000a9c:	e3530020 	cmp	r3, #32
40000aa0:	0a00000c 	beq	40000ad8 <sscanf+0x1f8>
40000aa4:	e3530009 	cmp	r3, #9
40000aa8:	0a00000a 	beq	40000ad8 <sscanf+0x1f8>
40000aac:	e353000a 	cmp	r3, #10
40000ab0:	0a000008 	beq	40000ad8 <sscanf+0x1f8>
40000ab4:	e4d5c001 	ldrb	ip, [r5], #1
40000ab8:	e0844007 	add	r4, r4, r7
40000abc:	e35c0064 	cmp	ip, #100	; 0x64
40000ac0:	0a00005a 	beq	40000c30 <sscanf+0x350>
40000ac4:	e35c0078 	cmp	ip, #120	; 0x78
40000ac8:	0a00004b 	beq	40000bfc <sscanf+0x31c>
40000acc:	e35c0000 	cmp	ip, #0
40000ad0:	0affffb3 	beq	400009a4 <sscanf+0xc4>
40000ad4:	eaffff9b 	b	40000948 <sscanf+0x68>
40000ad8:	e58d2004 	str	r2, [sp, #4]
40000adc:	eaffffea 	b	40000a8c <sscanf+0x1ac>
40000ae0:	e59dc004 	ldr	ip, [sp, #4]
40000ae4:	e28d0004 	add	r0, sp, #4
40000ae8:	e1a0200c 	mov	r2, ip
40000aec:	e06c1002 	rsb	r1, ip, r2
40000af0:	e4d23001 	ldrb	r3, [r2], #1
40000af4:	e3530020 	cmp	r3, #32
40000af8:	0a000009 	beq	40000b24 <sscanf+0x244>
40000afc:	e3530009 	cmp	r3, #9
40000b00:	0a000007 	beq	40000b24 <sscanf+0x244>
40000b04:	e353000a 	cmp	r3, #10
40000b08:	0a000005 	beq	40000b24 <sscanf+0x244>
40000b0c:	e3560000 	cmp	r6, #0
40000b10:	e0844001 	add	r4, r4, r1
40000b14:	1a000004 	bne	40000b2c <sscanf+0x24c>
40000b18:	e598c000 	ldr	ip, [r8]
40000b1c:	e2888004 	add	r8, r8, #4
40000b20:	ea000002 	b	40000b30 <sscanf+0x250>
40000b24:	e58d2004 	str	r2, [sp, #4]
40000b28:	eaffffef 	b	40000aec <sscanf+0x20c>
40000b2c:	e3a0c000 	mov	ip, #0
40000b30:	e3a02000 	mov	r2, #0
40000b34:	ea000003 	b	40000b48 <sscanf+0x268>
40000b38:	e3530009 	cmp	r3, #9
40000b3c:	0a00000b 	beq	40000b70 <sscanf+0x290>
40000b40:	e353000a 	cmp	r3, #10
40000b44:	0a000009 	beq	40000b70 <sscanf+0x290>
40000b48:	e3560000 	cmp	r6, #0
40000b4c:	1a000000 	bne	40000b54 <sscanf+0x274>
40000b50:	e4cc3001 	strb	r3, [ip], #1
40000b54:	e5903000 	ldr	r3, [r0]
40000b58:	e2822001 	add	r2, r2, #1
40000b5c:	e2831001 	add	r1, r3, #1
40000b60:	e58d1004 	str	r1, [sp, #4]
40000b64:	e5d33001 	ldrb	r3, [r3, #1]
40000b68:	e3530020 	cmp	r3, #32
40000b6c:	1afffff1 	bne	40000b38 <sscanf+0x258>
40000b70:	e3560000 	cmp	r6, #0
40000b74:	1a00001e 	bne	40000bf4 <sscanf+0x314>
40000b78:	e5cc6000 	strb	r6, [ip]
40000b7c:	e0844002 	add	r4, r4, r2
40000b80:	e28aa001 	add	sl, sl, #1
40000b84:	eaffff67 	b	40000928 <sscanf+0x48>
40000b88:	e59d1004 	ldr	r1, [sp, #4]
40000b8c:	e28d0004 	add	r0, sp, #4
40000b90:	e1a03001 	mov	r3, r1
40000b94:	e0617003 	rsb	r7, r1, r3
40000b98:	e4d32001 	ldrb	r2, [r3], #1
40000b9c:	e3520020 	cmp	r2, #32
40000ba0:	0a000011 	beq	40000bec <sscanf+0x30c>
40000ba4:	e3520009 	cmp	r2, #9
40000ba8:	0a00000f 	beq	40000bec <sscanf+0x30c>
40000bac:	e352000a 	cmp	r2, #10
40000bb0:	0a00000d 	beq	40000bec <sscanf+0x30c>
40000bb4:	e28d1008 	add	r1, sp, #8
40000bb8:	ebffff23 	bl	4000084c <parse_dec.constprop.1>
40000bbc:	e3500000 	cmp	r0, #0
40000bc0:	baffff77 	blt	400009a4 <sscanf+0xc4>
40000bc4:	e3560000 	cmp	r6, #0
40000bc8:	1affff97 	bne	40000a2c <sscanf+0x14c>
40000bcc:	e5983000 	ldr	r3, [r8]
40000bd0:	e0844007 	add	r4, r4, r7
40000bd4:	e28aa001 	add	sl, sl, #1
40000bd8:	e59d2008 	ldr	r2, [sp, #8]
40000bdc:	e2888004 	add	r8, r8, #4
40000be0:	e0844000 	add	r4, r4, r0
40000be4:	e5832000 	str	r2, [r3]
40000be8:	eaffff4e 	b	40000928 <sscanf+0x48>
40000bec:	e58d3004 	str	r3, [sp, #4]
40000bf0:	eaffffe7 	b	40000b94 <sscanf+0x2b4>
40000bf4:	e0844002 	add	r4, r4, r2
40000bf8:	eaffff4a 	b	40000928 <sscanf+0x48>
40000bfc:	e28d100c 	add	r1, sp, #12
40000c00:	ebfffee2 	bl	40000790 <parse_hex.constprop.2>
40000c04:	e3500000 	cmp	r0, #0
40000c08:	baffff65 	blt	400009a4 <sscanf+0xc4>
40000c0c:	e3560000 	cmp	r6, #0
40000c10:	1a000004 	bne	40000c28 <sscanf+0x348>
40000c14:	e5983000 	ldr	r3, [r8]
40000c18:	e28aa001 	add	sl, sl, #1
40000c1c:	e2888004 	add	r8, r8, #4
40000c20:	e59d200c 	ldr	r2, [sp, #12]
40000c24:	e5832000 	str	r2, [r3]
40000c28:	e0844000 	add	r4, r4, r0
40000c2c:	eaffff3d 	b	40000928 <sscanf+0x48>
40000c30:	e28d1008 	add	r1, sp, #8
40000c34:	ebffff04 	bl	4000084c <parse_dec.constprop.1>
40000c38:	e3500000 	cmp	r0, #0
40000c3c:	baffff58 	blt	400009a4 <sscanf+0xc4>
40000c40:	e3560000 	cmp	r6, #0
40000c44:	1afffff7 	bne	40000c28 <sscanf+0x348>
40000c48:	e5983000 	ldr	r3, [r8]
40000c4c:	e28aa001 	add	sl, sl, #1
40000c50:	e2888004 	add	r8, r8, #4
40000c54:	e59d2008 	ldr	r2, [sp, #8]
40000c58:	e5832000 	str	r2, [r3]
40000c5c:	eafffff1 	b	40000c28 <sscanf+0x348>

40000c60 <format_printi>:
40000c60:	e351000a 	cmp	r1, #10
40000c64:	e92d40f0 	push	{r4, r5, r6, r7, lr}
40000c68:	e1a04000 	mov	r4, r0
40000c6c:	e24dd014 	sub	sp, sp, #20
40000c70:	0a000003 	beq	40000c84 <format_printi+0x24>
40000c74:	e3510010 	cmp	r1, #16
40000c78:	0a000015 	beq	40000cd4 <format_printi+0x74>
40000c7c:	e28dd014 	add	sp, sp, #20
40000c80:	e8bd80f0 	pop	{r4, r5, r6, r7, pc}
40000c84:	e3a03000 	mov	r3, #0
40000c88:	e3500000 	cmp	r0, #0
40000c8c:	e5cd300f 	strb	r3, [sp, #15]
40000c90:	0a00001e 	beq	40000d10 <format_printi+0xb0>
40000c94:	e30ccccd 	movw	ip, #52429	; 0xcccd
40000c98:	e28d200e 	add	r2, sp, #14
40000c9c:	e34ccccc 	movt	ip, #52428	; 0xcccc
40000ca0:	e083149c 	umull	r1, r3, ip, r4
40000ca4:	e1a00002 	mov	r0, r2
40000ca8:	e1a031a3 	lsr	r3, r3, #3
40000cac:	e0831103 	add	r1, r3, r3, lsl #2
40000cb0:	e0441081 	sub	r1, r4, r1, lsl #1
40000cb4:	e2534000 	subs	r4, r3, #0
40000cb8:	e2813030 	add	r3, r1, #48	; 0x30
40000cbc:	e4423001 	strb	r3, [r2], #-1
40000cc0:	1afffff6 	bne	40000ca0 <format_printi+0x40>
40000cc4:	e59f3060 	ldr	r3, [pc, #96]	; 40000d2c <format_printi+0xcc>
40000cc8:	e5933000 	ldr	r3, [r3]
40000ccc:	e12fff33 	blx	r3
40000cd0:	eaffffe9 	b	40000c7c <format_printi+0x1c>
40000cd4:	e59f6050 	ldr	r6, [pc, #80]	; 40000d2c <format_printi+0xcc>
40000cd8:	e3a0501c 	mov	r5, #28
40000cdc:	e242700a 	sub	r7, r2, #10
40000ce0:	e1a03534 	lsr	r3, r4, r5
40000ce4:	e2455004 	sub	r5, r5, #4
40000ce8:	e203300f 	and	r3, r3, #15
40000cec:	e3530009 	cmp	r3, #9
40000cf0:	e2830030 	add	r0, r3, #48	; 0x30
40000cf4:	80870003 	addhi	r0, r7, r3
40000cf8:	e5963004 	ldr	r3, [r6, #4]
40000cfc:	e6ef0070 	uxtb	r0, r0
40000d00:	e12fff33 	blx	r3
40000d04:	e3750004 	cmn	r5, #4
40000d08:	1afffff4 	bne	40000ce0 <format_printi+0x80>
40000d0c:	eaffffda 	b	40000c7c <format_printi+0x1c>
40000d10:	e28d0010 	add	r0, sp, #16
40000d14:	e3a03030 	mov	r3, #48	; 0x30
40000d18:	e5603002 	strb	r3, [r0, #-2]!
40000d1c:	e59f3008 	ldr	r3, [pc, #8]	; 40000d2c <format_printi+0xcc>
40000d20:	e5933000 	ldr	r3, [r3]
40000d24:	e12fff33 	blx	r3
40000d28:	eaffffd3 	b	40000c7c <format_printi+0x1c>
40000d2c:	400039f8 	strdmi	r3, [r0], -r8

40000d30 <format_print>:
40000d30:	e92d40f8 	push	{r3, r4, r5, r6, r7, lr}
40000d34:	e1a05000 	mov	r5, r0
40000d38:	e5d00000 	ldrb	r0, [r0]
40000d3c:	e1a07001 	mov	r7, r1
40000d40:	e3500000 	cmp	r0, #0
40000d44:	0a000021 	beq	40000dd0 <format_print+0xa0>
40000d48:	e59f6104 	ldr	r6, [pc, #260]	; 40000e54 <format_print+0x124>
40000d4c:	ea000008 	b	40000d74 <format_print+0x44>
40000d50:	e350000a 	cmp	r0, #10
40000d54:	e5963004 	ldr	r3, [r6, #4]
40000d58:	e1a04005 	mov	r4, r5
40000d5c:	0a00001d 	beq	40000dd8 <format_print+0xa8>
40000d60:	e12fff33 	blx	r3
40000d64:	e5d40001 	ldrb	r0, [r4, #1]
40000d68:	e2845001 	add	r5, r4, #1
40000d6c:	e3500000 	cmp	r0, #0
40000d70:	0a000016 	beq	40000dd0 <format_print+0xa0>
40000d74:	e3500025 	cmp	r0, #37	; 0x25
40000d78:	1afffff4 	bne	40000d50 <format_print+0x20>
40000d7c:	e5d53001 	ldrb	r3, [r5, #1]
40000d80:	e2854001 	add	r4, r5, #1
40000d84:	e3530064 	cmp	r3, #100	; 0x64
40000d88:	0a00002a 	beq	40000e38 <format_print+0x108>
40000d8c:	e3530073 	cmp	r3, #115	; 0x73
40000d90:	0a000022 	beq	40000e20 <format_print+0xf0>
40000d94:	e3530063 	cmp	r3, #99	; 0x63
40000d98:	0a00001a 	beq	40000e08 <format_print+0xd8>
40000d9c:	e3530078 	cmp	r3, #120	; 0x78
40000da0:	0a000011 	beq	40000dec <format_print+0xbc>
40000da4:	e3530058 	cmp	r3, #88	; 0x58
40000da8:	1affffed 	bne	40000d64 <format_print+0x34>
40000dac:	e5970000 	ldr	r0, [r7]
40000db0:	e3a01010 	mov	r1, #16
40000db4:	e3a02041 	mov	r2, #65	; 0x41
40000db8:	ebffffa8 	bl	40000c60 <format_printi>
40000dbc:	e5d40001 	ldrb	r0, [r4, #1]
40000dc0:	e2877004 	add	r7, r7, #4
40000dc4:	e2845001 	add	r5, r4, #1
40000dc8:	e3500000 	cmp	r0, #0
40000dcc:	1affffe8 	bne	40000d74 <format_print+0x44>
40000dd0:	e3a00000 	mov	r0, #0
40000dd4:	e8bd80f8 	pop	{r3, r4, r5, r6, r7, pc}
40000dd8:	e12fff33 	blx	r3
40000ddc:	e5963004 	ldr	r3, [r6, #4]
40000de0:	e3a0000d 	mov	r0, #13
40000de4:	e12fff33 	blx	r3
40000de8:	eaffffdd 	b	40000d64 <format_print+0x34>
40000dec:	e5970000 	ldr	r0, [r7]
40000df0:	e3a01010 	mov	r1, #16
40000df4:	e3a02061 	mov	r2, #97	; 0x61
40000df8:	ebffff98 	bl	40000c60 <format_printi>
40000dfc:	e2877004 	add	r7, r7, #4
40000e00:	e5d53001 	ldrb	r3, [r5, #1]
40000e04:	eaffffe6 	b	40000da4 <format_print+0x74>
40000e08:	e5d70000 	ldrb	r0, [r7]
40000e0c:	e2877004 	add	r7, r7, #4
40000e10:	e5963004 	ldr	r3, [r6, #4]
40000e14:	e12fff33 	blx	r3
40000e18:	e5d53001 	ldrb	r3, [r5, #1]
40000e1c:	eaffffde 	b	40000d9c <format_print+0x6c>
40000e20:	e5970000 	ldr	r0, [r7]
40000e24:	e2877004 	add	r7, r7, #4
40000e28:	e5963000 	ldr	r3, [r6]
40000e2c:	e12fff33 	blx	r3
40000e30:	e5d53001 	ldrb	r3, [r5, #1]
40000e34:	eaffffd6 	b	40000d94 <format_print+0x64>
40000e38:	e5970000 	ldr	r0, [r7]
40000e3c:	e3a0100a 	mov	r1, #10
40000e40:	e3a02000 	mov	r2, #0
40000e44:	ebffff85 	bl	40000c60 <format_printi>
40000e48:	e2877004 	add	r7, r7, #4
40000e4c:	e5d53001 	ldrb	r3, [r5, #1]
40000e50:	eaffffcd 	b	40000d8c <format_print+0x5c>
40000e54:	400039f8 	strdmi	r3, [r0], -r8

40000e58 <format_reg_puts>:
40000e58:	e30339f8 	movw	r3, #14840	; 0x39f8
40000e5c:	e3443000 	movt	r3, #16384	; 0x4000
40000e60:	e5830000 	str	r0, [r3]
40000e64:	e12fff1e 	bx	lr

40000e68 <format_reg_putc>:
40000e68:	e30339f8 	movw	r3, #14840	; 0x39f8
40000e6c:	e3443000 	movt	r3, #16384	; 0x4000
40000e70:	e5830004 	str	r0, [r3, #4]
40000e74:	e12fff1e 	bx	lr

40000e78 <memcpy>:
40000e78:	e3520000 	cmp	r2, #0
40000e7c:	012fff1e 	bxeq	lr
40000e80:	e3a03000 	mov	r3, #0
40000e84:	e7d1c003 	ldrb	ip, [r1, r3]
40000e88:	e7c0c003 	strb	ip, [r0, r3]
40000e8c:	e2833001 	add	r3, r3, #1
40000e90:	e1520003 	cmp	r2, r3
40000e94:	1afffffa 	bne	40000e84 <memcpy+0xc>
40000e98:	e12fff1e 	bx	lr

40000e9c <memmove>:
40000e9c:	e1500001 	cmp	r0, r1
40000ea0:	e52d4004 	push	{r4}		; (str r4, [sp, #-4]!)
40000ea4:	8a000009 	bhi	40000ed0 <memmove+0x34>
40000ea8:	e3520000 	cmp	r2, #0
40000eac:	0a000005 	beq	40000ec8 <memmove+0x2c>
40000eb0:	e3a03000 	mov	r3, #0
40000eb4:	e7d1c003 	ldrb	ip, [r1, r3]
40000eb8:	e7c0c003 	strb	ip, [r0, r3]
40000ebc:	e2833001 	add	r3, r3, #1
40000ec0:	e1520003 	cmp	r2, r3
40000ec4:	1afffffa 	bne	40000eb4 <memmove+0x18>
40000ec8:	e8bd0010 	pop	{r4}
40000ecc:	e12fff1e 	bx	lr
40000ed0:	e3520000 	cmp	r2, #0
40000ed4:	0afffffb 	beq	40000ec8 <memmove+0x2c>
40000ed8:	e2424001 	sub	r4, r2, #1
40000edc:	e2623000 	rsb	r3, r2, #0
40000ee0:	e080c004 	add	ip, r0, r4
40000ee4:	e0811004 	add	r1, r1, r4
40000ee8:	e08cc003 	add	ip, ip, r3
40000eec:	e0811003 	add	r1, r1, r3
40000ef0:	e7d13002 	ldrb	r3, [r1, r2]
40000ef4:	e7cc3002 	strb	r3, [ip, r2]
40000ef8:	e2522001 	subs	r2, r2, #1
40000efc:	1afffffb 	bne	40000ef0 <memmove+0x54>
40000f00:	eafffff0 	b	40000ec8 <memmove+0x2c>

40000f04 <memset>:
40000f04:	e3520000 	cmp	r2, #0
40000f08:	012fff1e 	bxeq	lr
40000f0c:	e6ef1071 	uxtb	r1, r1
40000f10:	e1a03000 	mov	r3, r0
40000f14:	e2522001 	subs	r2, r2, #1
40000f18:	e4c31001 	strb	r1, [r3], #1
40000f1c:	1afffffc 	bne	40000f14 <memset+0x10>
40000f20:	e12fff1e 	bx	lr

40000f24 <strcpy>:
40000f24:	e1a02000 	mov	r2, r0
40000f28:	e5d10000 	ldrb	r0, [r1]
40000f2c:	e3500000 	cmp	r0, #0
40000f30:	0a000009 	beq	40000f5c <strcpy+0x38>
40000f34:	e3a03000 	mov	r3, #0
40000f38:	e7c20003 	strb	r0, [r2, r3]
40000f3c:	e5f10001 	ldrb	r0, [r1, #1]!
40000f40:	e2833001 	add	r3, r3, #1
40000f44:	e3500000 	cmp	r0, #0
40000f48:	1afffffa 	bne	40000f38 <strcpy+0x14>
40000f4c:	e3a01000 	mov	r1, #0
40000f50:	e1a00002 	mov	r0, r2
40000f54:	e7c21003 	strb	r1, [r2, r3]
40000f58:	e12fff1e 	bx	lr
40000f5c:	e1a03000 	mov	r3, r0
40000f60:	eafffff9 	b	40000f4c <strcpy+0x28>

40000f64 <strcat>:
40000f64:	e5d02000 	ldrb	r2, [r0]
40000f68:	e1a03000 	mov	r3, r0
40000f6c:	e3520000 	cmp	r2, #0
40000f70:	0a000005 	beq	40000f8c <strcat+0x28>
40000f74:	e1a02000 	mov	r2, r0
40000f78:	e2822001 	add	r2, r2, #1
40000f7c:	e5d20000 	ldrb	r0, [r2]
40000f80:	e1a03002 	mov	r3, r2
40000f84:	e3500000 	cmp	r0, #0
40000f88:	1afffffa 	bne	40000f78 <strcat+0x14>
40000f8c:	e5d12000 	ldrb	r2, [r1]
40000f90:	e3520000 	cmp	r2, #0
40000f94:	0a000005 	beq	40000fb0 <strcat+0x4c>
40000f98:	e1a00003 	mov	r0, r3
40000f9c:	e4c02001 	strb	r2, [r0], #1
40000fa0:	e5f12001 	ldrb	r2, [r1, #1]!
40000fa4:	e1a03000 	mov	r3, r0
40000fa8:	e3520000 	cmp	r2, #0
40000fac:	1afffffa 	bne	40000f9c <strcat+0x38>
40000fb0:	e3a02000 	mov	r2, #0
40000fb4:	e1a00003 	mov	r0, r3
40000fb8:	e5c32000 	strb	r2, [r3]
40000fbc:	e12fff1e 	bx	lr

40000fc0 <memchr>:
40000fc0:	e3520000 	cmp	r2, #0
40000fc4:	e52d4004 	push	{r4}		; (str r4, [sp, #-4]!)
40000fc8:	0a000011 	beq	40001014 <memchr+0x54>
40000fcc:	e5d03000 	ldrb	r3, [r0]
40000fd0:	e1530001 	cmp	r3, r1
40000fd4:	0a00000c 	beq	4000100c <memchr+0x4c>
40000fd8:	e1a03000 	mov	r3, r0
40000fdc:	e2400001 	sub	r0, r0, #1
40000fe0:	e0802002 	add	r2, r0, r2
40000fe4:	ea000003 	b	40000ff8 <memchr+0x38>
40000fe8:	e5d34001 	ldrb	r4, [r3, #1]
40000fec:	e1a0300c 	mov	r3, ip
40000ff0:	e1540001 	cmp	r4, r1
40000ff4:	0a000004 	beq	4000100c <memchr+0x4c>
40000ff8:	e1530002 	cmp	r3, r2
40000ffc:	e283c001 	add	ip, r3, #1
40001000:	e1a0000c 	mov	r0, ip
40001004:	1afffff7 	bne	40000fe8 <memchr+0x28>
40001008:	e3a00000 	mov	r0, #0
4000100c:	e8bd0010 	pop	{r4}
40001010:	e12fff1e 	bx	lr
40001014:	e1a00002 	mov	r0, r2
40001018:	eafffffb 	b	4000100c <memchr+0x4c>

4000101c <strlen>:
4000101c:	e5d03000 	ldrb	r3, [r0]
40001020:	e3530000 	cmp	r3, #0
40001024:	0a000005 	beq	40001040 <strlen+0x24>
40001028:	e1a03000 	mov	r3, r0
4000102c:	e5f32001 	ldrb	r2, [r3, #1]!
40001030:	e3520000 	cmp	r2, #0
40001034:	1afffffc 	bne	4000102c <strlen+0x10>
40001038:	e0600003 	rsb	r0, r0, r3
4000103c:	e12fff1e 	bx	lr
40001040:	e1a00003 	mov	r0, r3
40001044:	e12fff1e 	bx	lr

40001048 <memcmp>:
40001048:	e3520000 	cmp	r2, #0
4000104c:	e52d4004 	push	{r4}		; (str r4, [sp, #-4]!)
40001050:	0a000018 	beq	400010b8 <memcmp+0x70>
40001054:	e5d0c000 	ldrb	ip, [r0]
40001058:	e5d13000 	ldrb	r3, [r1]
4000105c:	e15c0003 	cmp	ip, r3
40001060:	3a000010 	bcc	400010a8 <memcmp+0x60>
40001064:	8a000011 	bhi	400010b0 <memcmp+0x68>
40001068:	e2422001 	sub	r2, r2, #1
4000106c:	e3a03000 	mov	r3, #0
40001070:	ea000004 	b	40001088 <memcmp+0x40>
40001074:	e5d44001 	ldrb	r4, [r4, #1]
40001078:	e5dcc001 	ldrb	ip, [ip, #1]
4000107c:	e154000c 	cmp	r4, ip
40001080:	3a000008 	bcc	400010a8 <memcmp+0x60>
40001084:	8a000009 	bhi	400010b0 <memcmp+0x68>
40001088:	e1530002 	cmp	r3, r2
4000108c:	e0804003 	add	r4, r0, r3
40001090:	e081c003 	add	ip, r1, r3
40001094:	e2833001 	add	r3, r3, #1
40001098:	1afffff5 	bne	40001074 <memcmp+0x2c>
4000109c:	e3a00000 	mov	r0, #0
400010a0:	e8bd0010 	pop	{r4}
400010a4:	e12fff1e 	bx	lr
400010a8:	e3e00000 	mvn	r0, #0
400010ac:	eafffffb 	b	400010a0 <memcmp+0x58>
400010b0:	e3a00001 	mov	r0, #1
400010b4:	eafffff9 	b	400010a0 <memcmp+0x58>
400010b8:	e1a00002 	mov	r0, r2
400010bc:	eafffff7 	b	400010a0 <memcmp+0x58>

400010c0 <strcmp>:
400010c0:	e5d03000 	ldrb	r3, [r0]
400010c4:	e3530000 	cmp	r3, #0
400010c8:	0a000013 	beq	4000111c <strcmp+0x5c>
400010cc:	e5d12000 	ldrb	r2, [r1]
400010d0:	e3520000 	cmp	r2, #0
400010d4:	0a000014 	beq	4000112c <strcmp+0x6c>
400010d8:	e1530002 	cmp	r3, r2
400010dc:	3a000014 	bcc	40001134 <strcmp+0x74>
400010e0:	8a000011 	bhi	4000112c <strcmp+0x6c>
400010e4:	e1a03001 	mov	r3, r1
400010e8:	ea000006 	b	40001108 <strcmp+0x48>
400010ec:	e5d3c001 	ldrb	ip, [r3, #1]
400010f0:	e2833001 	add	r3, r3, #1
400010f4:	e35c0000 	cmp	ip, #0
400010f8:	0a00000b 	beq	4000112c <strcmp+0x6c>
400010fc:	e152000c 	cmp	r2, ip
40001100:	3a00000b 	bcc	40001134 <strcmp+0x74>
40001104:	8a00000c 	bhi	4000113c <strcmp+0x7c>
40001108:	e5d02001 	ldrb	r2, [r0, #1]
4000110c:	e2811001 	add	r1, r1, #1
40001110:	e2800001 	add	r0, r0, #1
40001114:	e3520000 	cmp	r2, #0
40001118:	1afffff3 	bne	400010ec <strcmp+0x2c>
4000111c:	e5d10000 	ldrb	r0, [r1]
40001120:	e3500000 	cmp	r0, #0
40001124:	13e00000 	mvnne	r0, #0
40001128:	e12fff1e 	bx	lr
4000112c:	e3a00001 	mov	r0, #1
40001130:	e12fff1e 	bx	lr
40001134:	e3e00000 	mvn	r0, #0
40001138:	e12fff1e 	bx	lr
4000113c:	e3a00001 	mov	r0, #1
40001140:	e12fff1e 	bx	lr

40001144 <strncmp>:
40001144:	e92d00f0 	push	{r4, r5, r6, r7}
40001148:	e5d03000 	ldrb	r3, [r0]
4000114c:	e3530000 	cmp	r3, #0
40001150:	0a00002c 	beq	40001208 <strncmp+0xc4>
40001154:	e5d1c000 	ldrb	ip, [r1]
40001158:	e35c0000 	cmp	ip, #0
4000115c:	0a000029 	beq	40001208 <strncmp+0xc4>
40001160:	e3520000 	cmp	r2, #0
40001164:	e2425001 	sub	r5, r2, #1
40001168:	0a000028 	beq	40001210 <strncmp+0xcc>
4000116c:	e153000c 	cmp	r3, ip
40001170:	3a000022 	bcc	40001200 <strncmp+0xbc>
40001174:	8a00001f 	bhi	400011f8 <strncmp+0xb4>
40001178:	e1a02005 	mov	r2, r5
4000117c:	e3a0c000 	mov	ip, #0
40001180:	e2816001 	add	r6, r1, #1
40001184:	ea000009 	b	400011b0 <strncmp+0x6c>
40001188:	e5d44001 	ldrb	r4, [r4, #1]
4000118c:	e3540000 	cmp	r4, #0
40001190:	0a00000c 	beq	400011c8 <strncmp+0x84>
40001194:	e155000c 	cmp	r5, ip
40001198:	e2422001 	sub	r2, r2, #1
4000119c:	e28cc001 	add	ip, ip, #1
400011a0:	0a000008 	beq	400011c8 <strncmp+0x84>
400011a4:	e1530004 	cmp	r3, r4
400011a8:	3a000014 	bcc	40001200 <strncmp+0xbc>
400011ac:	8a000011 	bhi	400011f8 <strncmp+0xb4>
400011b0:	e080300c 	add	r3, r0, ip
400011b4:	e081400c 	add	r4, r1, ip
400011b8:	e5d33001 	ldrb	r3, [r3, #1]
400011bc:	e086700c 	add	r7, r6, ip
400011c0:	e3530000 	cmp	r3, #0
400011c4:	1affffef 	bne	40001188 <strncmp+0x44>
400011c8:	e3520000 	cmp	r2, #0
400011cc:	0a000006 	beq	400011ec <strncmp+0xa8>
400011d0:	e3530000 	cmp	r3, #0
400011d4:	1a000007 	bne	400011f8 <strncmp+0xb4>
400011d8:	e5d73000 	ldrb	r3, [r7]
400011dc:	e3530000 	cmp	r3, #0
400011e0:	13e00000 	mvnne	r0, #0
400011e4:	03a00000 	moveq	r0, #0
400011e8:	ea000000 	b	400011f0 <strncmp+0xac>
400011ec:	e1a00002 	mov	r0, r2
400011f0:	e8bd00f0 	pop	{r4, r5, r6, r7}
400011f4:	e12fff1e 	bx	lr
400011f8:	e3a00001 	mov	r0, #1
400011fc:	eafffffb 	b	400011f0 <strncmp+0xac>
40001200:	e3e00000 	mvn	r0, #0
40001204:	eafffff9 	b	400011f0 <strncmp+0xac>
40001208:	e1a07001 	mov	r7, r1
4000120c:	eaffffed 	b	400011c8 <strncmp+0x84>
40001210:	e1a07001 	mov	r7, r1
40001214:	e1a02005 	mov	r2, r5
40001218:	eaffffea 	b	400011c8 <strncmp+0x84>

4000121c <strchr>:
4000121c:	e5d03000 	ldrb	r3, [r0]
40001220:	e3530000 	cmp	r3, #0
40001224:	0a00000b 	beq	40001258 <strchr+0x3c>
40001228:	e1530001 	cmp	r3, r1
4000122c:	1a000002 	bne	4000123c <strchr+0x20>
40001230:	e12fff1e 	bx	lr
40001234:	e1530001 	cmp	r3, r1
40001238:	0a000005 	beq	40001254 <strchr+0x38>
4000123c:	e5d03001 	ldrb	r3, [r0, #1]
40001240:	e2800001 	add	r0, r0, #1
40001244:	e3530000 	cmp	r3, #0
40001248:	1afffff9 	bne	40001234 <strchr+0x18>
4000124c:	e1a00003 	mov	r0, r3
40001250:	e12fff1e 	bx	lr
40001254:	e12fff1e 	bx	lr
40001258:	e1a00003 	mov	r0, r3
4000125c:	e12fff1e 	bx	lr

40001260 <arm_hexstr2uint>:
40001260:	e52d4004 	push	{r4}		; (str r4, [sp, #-4]!)
40001264:	e5d03000 	ldrb	r3, [r0]
40001268:	e3530030 	cmp	r3, #48	; 0x30
4000126c:	0a00001e 	beq	400012ec <arm_hexstr2uint+0x8c>
40001270:	e3a03000 	mov	r3, #0
40001274:	e1a02003 	mov	r2, r3
40001278:	e7d03003 	ldrb	r3, [r0, r3]
4000127c:	e3530000 	cmp	r3, #0
40001280:	0a00001e 	beq	40001300 <arm_hexstr2uint+0xa0>
40001284:	e0802002 	add	r2, r0, r2
40001288:	e3a00000 	mov	r0, #0
4000128c:	ea000003 	b	400012a0 <arm_hexstr2uint+0x40>
40001290:	e2440030 	sub	r0, r4, #48	; 0x30
40001294:	e5f23001 	ldrb	r3, [r2, #1]!
40001298:	e3530000 	cmp	r3, #0
4000129c:	0a00000c 	beq	400012d4 <arm_hexstr2uint+0x74>
400012a0:	e2431030 	sub	r1, r3, #48	; 0x30
400012a4:	e0834200 	add	r4, r3, r0, lsl #4
400012a8:	e3510009 	cmp	r1, #9
400012ac:	e243c041 	sub	ip, r3, #65	; 0x41
400012b0:	9afffff6 	bls	40001290 <arm_hexstr2uint+0x30>
400012b4:	e35c0005 	cmp	ip, #5
400012b8:	e0834200 	add	r4, r3, r0, lsl #4
400012bc:	e2431061 	sub	r1, r3, #97	; 0x61
400012c0:	8a000005 	bhi	400012dc <arm_hexstr2uint+0x7c>
400012c4:	e5f23001 	ldrb	r3, [r2, #1]!
400012c8:	e2440037 	sub	r0, r4, #55	; 0x37
400012cc:	e3530000 	cmp	r3, #0
400012d0:	1afffff2 	bne	400012a0 <arm_hexstr2uint+0x40>
400012d4:	e8bd0010 	pop	{r4}
400012d8:	e12fff1e 	bx	lr
400012dc:	e0833200 	add	r3, r3, r0, lsl #4
400012e0:	e3510005 	cmp	r1, #5
400012e4:	92430057 	subls	r0, r3, #87	; 0x57
400012e8:	eaffffe9 	b	40001294 <arm_hexstr2uint+0x34>
400012ec:	e5d02001 	ldrb	r2, [r0, #1]
400012f0:	e3520078 	cmp	r2, #120	; 0x78
400012f4:	0a000003 	beq	40001308 <arm_hexstr2uint+0xa8>
400012f8:	e3a02000 	mov	r2, #0
400012fc:	eaffffe0 	b	40001284 <arm_hexstr2uint+0x24>
40001300:	e1a00003 	mov	r0, r3
40001304:	eafffff2 	b	400012d4 <arm_hexstr2uint+0x74>
40001308:	e3a03002 	mov	r3, #2
4000130c:	e1a02003 	mov	r2, r3
40001310:	eaffffd8 	b	40001278 <arm_hexstr2uint+0x18>

40001314 <arm_uint2hexstr>:
40001314:	e59f305c 	ldr	r3, [pc, #92]	; 40001378 <arm_uint2hexstr+0x64>
40001318:	e3a0201c 	mov	r2, #28
4000131c:	e3a0c000 	mov	ip, #0
40001320:	e92d0030 	push	{r4, r5}
40001324:	e1a05231 	lsr	r5, r1, r2
40001328:	e35c0000 	cmp	ip, #0
4000132c:	e205400f 	and	r4, r5, #15
40001330:	1a000001 	bne	4000133c <arm_uint2hexstr+0x28>
40001334:	e215400f 	ands	r4, r5, #15
40001338:	0a000002 	beq	40001348 <arm_uint2hexstr+0x34>
4000133c:	e7d34004 	ldrb	r4, [r3, r4]
40001340:	e7c0400c 	strb	r4, [r0, ip]
40001344:	e28cc001 	add	ip, ip, #1
40001348:	e2422004 	sub	r2, r2, #4
4000134c:	e3720004 	cmn	r2, #4
40001350:	1afffff3 	bne	40001324 <arm_uint2hexstr+0x10>
40001354:	e35c0000 	cmp	ip, #0
40001358:	1a000002 	bne	40001368 <arm_uint2hexstr+0x54>
4000135c:	e3a03030 	mov	r3, #48	; 0x30
40001360:	e3a0c001 	mov	ip, #1
40001364:	e5c03000 	strb	r3, [r0]
40001368:	e3a03000 	mov	r3, #0
4000136c:	e7c0300c 	strb	r3, [r0, ip]
40001370:	e8bd0030 	pop	{r4, r5}
40001374:	e12fff1e 	bx	lr
40001378:	40003238 	andmi	r3, r0, r8, lsr r2

4000137c <arm_str2int>:
4000137c:	e5d0c000 	ldrb	ip, [r0]
40001380:	e24c302d 	sub	r3, ip, #45	; 0x2d
40001384:	e273c000 	rsbs	ip, r3, #0
40001388:	e0acc003 	adc	ip, ip, r3
4000138c:	e7d0300c 	ldrb	r3, [r0, ip]
40001390:	e080200c 	add	r2, r0, ip
40001394:	e3530000 	cmp	r3, #0
40001398:	0a00000a 	beq	400013c8 <arm_str2int+0x4c>
4000139c:	e3a00000 	mov	r0, #0
400013a0:	e2431030 	sub	r1, r3, #48	; 0x30
400013a4:	e5f23001 	ldrb	r3, [r2, #1]!
400013a8:	e0800100 	add	r0, r0, r0, lsl #2
400013ac:	e0810080 	add	r0, r1, r0, lsl #1
400013b0:	e3530000 	cmp	r3, #0
400013b4:	1afffff9 	bne	400013a0 <arm_str2int+0x24>
400013b8:	e35c0000 	cmp	ip, #0
400013bc:	012fff1e 	bxeq	lr
400013c0:	e2600000 	rsb	r0, r0, #0
400013c4:	e12fff1e 	bx	lr
400013c8:	e1a00003 	mov	r0, r3
400013cc:	eafffff9 	b	400013b8 <arm_str2int+0x3c>

400013d0 <_except_unhandled>:
400013d0:	e12fff1e 	bx	lr

400013d4 <_except_svc>:
400013d4:	e12fff1e 	bx	lr

400013d8 <_except_irq>:
400013d8:	e1a01000 	mov	r1, r0
400013dc:	e3a00000 	mov	r0, #0
400013e0:	ea0000d3 	b	40001734 <gic_interrupt>

400013e4 <gic_enable_irq>:
400013e4:	e3033a00 	movw	r3, #14848	; 0x3a00
400013e8:	e1a022a0 	lsr	r2, r0, #5
400013ec:	e3443000 	movt	r3, #16384	; 0x4000
400013f0:	e5933004 	ldr	r3, [r3, #4]
400013f4:	e200001f 	and	r0, r0, #31
400013f8:	e3a01001 	mov	r1, #1
400013fc:	e1a01011 	lsl	r1, r1, r0
40001400:	e2822040 	add	r2, r2, #64	; 0x40
40001404:	e3a00000 	mov	r0, #0
40001408:	e7831102 	str	r1, [r3, r2, lsl #2]
4000140c:	e12fff1e 	bx	lr

40001410 <gic_disable_irq>:
40001410:	e3033a00 	movw	r3, #14848	; 0x3a00
40001414:	e1a022a0 	lsr	r2, r0, #5
40001418:	e3443000 	movt	r3, #16384	; 0x4000
4000141c:	e5933004 	ldr	r3, [r3, #4]
40001420:	e200001f 	and	r0, r0, #31
40001424:	e3a01001 	mov	r1, #1
40001428:	e1a01011 	lsl	r1, r1, r0
4000142c:	e2822060 	add	r2, r2, #96	; 0x60
40001430:	e3a00000 	mov	r0, #0
40001434:	e7831102 	str	r1, [r3, r2, lsl #2]
40001438:	e12fff1e 	bx	lr

4000143c <gic_set_irq_handler>:
4000143c:	e3500065 	cmp	r0, #101	; 0x65
40001440:	e1a03000 	mov	r3, r0
40001444:	ca000004 	bgt	4000145c <gic_set_irq_handler+0x20>
40001448:	e59f2014 	ldr	r2, [pc, #20]	; 40001464 <gic_set_irq_handler+0x28>
4000144c:	e3a00000 	mov	r0, #0
40001450:	e0823103 	add	r3, r2, r3, lsl #2
40001454:	e5831014 	str	r1, [r3, #20]
40001458:	e12fff1e 	bx	lr
4000145c:	e3e00002 	mvn	r0, #2
40001460:	e12fff1e 	bx	lr
40001464:	40003a00 	andmi	r3, r0, r0, lsl #20

40001468 <gic_init>:
40001468:	e59f3284 	ldr	r3, [pc, #644]	; 400016f4 <gic_init+0x28c>
4000146c:	e3a01000 	mov	r1, #0
40001470:	e92d4070 	push	{r4, r5, r6, lr}
40001474:	e2832f66 	add	r2, r3, #408	; 0x198
40001478:	e5a31004 	str	r1, [r3, #4]!
4000147c:	e1530002 	cmp	r3, r2
40001480:	1afffffc 	bne	40001478 <gic_init+0x10>
40001484:	ee104f10 	mrc	15, 0, r4, cr0, cr0, {0}
40001488:	e59f0268 	ldr	r0, [pc, #616]	; 400016f8 <gic_init+0x290>
4000148c:	e30f5ff0 	movw	r5, #65520	; 0xfff0
40001490:	ebfffb6d 	bl	4000024c <uart_print>
40001494:	e1a00004 	mov	r0, r4
40001498:	e0045005 	and	r5, r4, r5
4000149c:	ebfffb81 	bl	400002a8 <uart_print_hex32>
400014a0:	e59f0254 	ldr	r0, [pc, #596]	; 400016fc <gic_init+0x294>
400014a4:	ebfffb68 	bl	4000024c <uart_print>
400014a8:	e30c30f0 	movw	r3, #49392	; 0xc0f0
400014ac:	e1550003 	cmp	r5, r3
400014b0:	0a00001c 	beq	40001528 <gic_init+0xc0>
400014b4:	e59f0244 	ldr	r0, [pc, #580]	; 40001700 <gic_init+0x298>
400014b8:	e59f4244 	ldr	r4, [pc, #580]	; 40001704 <gic_init+0x29c>
400014bc:	ebfffb62 	bl	4000024c <uart_print>
400014c0:	e59f0240 	ldr	r0, [pc, #576]	; 40001708 <gic_init+0x2a0>
400014c4:	ebfffb60 	bl	4000024c <uart_print>
400014c8:	e1a00005 	mov	r0, r5
400014cc:	ebfffb75 	bl	400002a8 <uart_print_hex32>
400014d0:	e59f0224 	ldr	r0, [pc, #548]	; 400016fc <gic_init+0x294>
400014d4:	ebfffb5c 	bl	4000024c <uart_print>
400014d8:	e5943008 	ldr	r3, [r4, #8]
400014dc:	e5932000 	ldr	r2, [r3]
400014e0:	e3822e21 	orr	r2, r2, #528	; 0x210
400014e4:	e3822003 	orr	r2, r2, #3
400014e8:	e5832000 	str	r2, [r3]
400014ec:	e3a020ff 	mov	r2, #255	; 0xff
400014f0:	e5832004 	str	r2, [r3, #4]
400014f4:	e30e1ad7 	movw	r1, #60119	; 0xead7
400014f8:	e5943004 	ldr	r3, [r4, #4]
400014fc:	e3e02000 	mvn	r2, #0
40001500:	e3451108 	movt	r1, #20744	; 0x5108
40001504:	e3a00000 	mov	r0, #0
40001508:	e58411ac 	str	r1, [r4, #428]	; 0x1ac
4000150c:	e30013fe 	movw	r1, #1022	; 0x3fe
40001510:	e5832180 	str	r2, [r3, #384]	; 0x180
40001514:	e584100c 	str	r1, [r4, #12]
40001518:	e5832184 	str	r2, [r3, #388]	; 0x184
4000151c:	e5832188 	str	r2, [r3, #392]	; 0x188
40001520:	e583218c 	str	r2, [r3, #396]	; 0x18c
40001524:	e8bd8070 	pop	{r4, r5, r6, pc}
40001528:	e59f41d4 	ldr	r4, [pc, #468]	; 40001704 <gic_init+0x29c>
4000152c:	e3a02000 	mov	r2, #0
40001530:	e3a03a02 	mov	r3, #8192	; 0x2000
40001534:	e3412048 	movt	r2, #4168	; 0x1048
40001538:	e3413048 	movt	r3, #4168	; 0x1048
4000153c:	e3a01a01 	mov	r1, #4096	; 0x1000
40001540:	e3411048 	movt	r1, #4168	; 0x1048
40001544:	e5842000 	str	r2, [r4]
40001548:	e5932000 	ldr	r2, [r3]
4000154c:	e984000a 	stmib	r4, {r1, r3}
40001550:	e3822e21 	orr	r2, r2, #528	; 0x210
40001554:	e3822003 	orr	r2, r2, #3
40001558:	e5832000 	str	r2, [r3]
4000155c:	e3a020ff 	mov	r2, #255	; 0xff
40001560:	e5832004 	str	r2, [r3, #4]
40001564:	ee106f10 	mrc	15, 0, r6, cr0, cr0, {0}
40001568:	e59f0188 	ldr	r0, [pc, #392]	; 400016f8 <gic_init+0x290>
4000156c:	ebfffb36 	bl	4000024c <uart_print>
40001570:	e1a00006 	mov	r0, r6
40001574:	ebfffb4b 	bl	400002a8 <uart_print_hex32>
40001578:	e59f017c 	ldr	r0, [pc, #380]	; 400016fc <gic_init+0x294>
4000157c:	ebfffb32 	bl	4000024c <uart_print>
40001580:	e30f3ff0 	movw	r3, #65520	; 0xfff0
40001584:	e0063003 	and	r3, r6, r3
40001588:	e1530005 	cmp	r3, r5
4000158c:	1affffd8 	bne	400014f4 <gic_init+0x8c>
40001590:	e59f0174 	ldr	r0, [pc, #372]	; 4000170c <gic_init+0x2a4>
40001594:	e3a0500f 	mov	r5, #15
40001598:	ebfffb2b 	bl	4000024c <uart_print>
4000159c:	e5940000 	ldr	r0, [r4]
400015a0:	ebfffb40 	bl	400002a8 <uart_print_hex32>
400015a4:	e59f0150 	ldr	r0, [pc, #336]	; 400016fc <gic_init+0x294>
400015a8:	ebfffb27 	bl	4000024c <uart_print>
400015ac:	e59f015c 	ldr	r0, [pc, #348]	; 40001710 <gic_init+0x2a8>
400015b0:	ebfffb25 	bl	4000024c <uart_print>
400015b4:	e5940004 	ldr	r0, [r4, #4]
400015b8:	ebfffb3a 	bl	400002a8 <uart_print_hex32>
400015bc:	e59f0138 	ldr	r0, [pc, #312]	; 400016fc <gic_init+0x294>
400015c0:	ebfffb21 	bl	4000024c <uart_print>
400015c4:	e59f0148 	ldr	r0, [pc, #328]	; 40001714 <gic_init+0x2ac>
400015c8:	ebfffb1f 	bl	4000024c <uart_print>
400015cc:	e5943004 	ldr	r3, [r4, #4]
400015d0:	e5930004 	ldr	r0, [r3, #4]
400015d4:	ebfffb33 	bl	400002a8 <uart_print_hex32>
400015d8:	e59f011c 	ldr	r0, [pc, #284]	; 400016fc <gic_init+0x294>
400015dc:	ebfffb1a 	bl	4000024c <uart_print>
400015e0:	e59f0130 	ldr	r0, [pc, #304]	; 40001718 <gic_init+0x2b0>
400015e4:	ebfffb18 	bl	4000024c <uart_print>
400015e8:	e5940008 	ldr	r0, [r4, #8]
400015ec:	ebfffb2d 	bl	400002a8 <uart_print_hex32>
400015f0:	e59f0104 	ldr	r0, [pc, #260]	; 400016fc <gic_init+0x294>
400015f4:	ebfffb14 	bl	4000024c <uart_print>
400015f8:	e59f011c 	ldr	r0, [pc, #284]	; 4000171c <gic_init+0x2b4>
400015fc:	ebfffb12 	bl	4000024c <uart_print>
40001600:	e5943008 	ldr	r3, [r4, #8]
40001604:	e5930000 	ldr	r0, [r3]
40001608:	ebfffb26 	bl	400002a8 <uart_print_hex32>
4000160c:	e59f00e8 	ldr	r0, [pc, #232]	; 400016fc <gic_init+0x294>
40001610:	ebfffb0d 	bl	4000024c <uart_print>
40001614:	e59f0104 	ldr	r0, [pc, #260]	; 40001720 <gic_init+0x2b8>
40001618:	ebfffb0b 	bl	4000024c <uart_print>
4000161c:	e5943008 	ldr	r3, [r4, #8]
40001620:	e5930004 	ldr	r0, [r3, #4]
40001624:	ebfffb1f 	bl	400002a8 <uart_print_hex32>
40001628:	e59f00cc 	ldr	r0, [pc, #204]	; 400016fc <gic_init+0x294>
4000162c:	ebfffb06 	bl	4000024c <uart_print>
40001630:	e59f00ec 	ldr	r0, [pc, #236]	; 40001724 <gic_init+0x2bc>
40001634:	ebfffb04 	bl	4000024c <uart_print>
40001638:	e5943008 	ldr	r3, [r4, #8]
4000163c:	e5930008 	ldr	r0, [r3, #8]
40001640:	ebfffb18 	bl	400002a8 <uart_print_hex32>
40001644:	e59f00b0 	ldr	r0, [pc, #176]	; 400016fc <gic_init+0x294>
40001648:	ebfffaff 	bl	4000024c <uart_print>
4000164c:	e59f00d4 	ldr	r0, [pc, #212]	; 40001728 <gic_init+0x2c0>
40001650:	ebfffafd 	bl	4000024c <uart_print>
40001654:	e5943008 	ldr	r3, [r4, #8]
40001658:	e5930014 	ldr	r0, [r3, #20]
4000165c:	ebfffb11 	bl	400002a8 <uart_print_hex32>
40001660:	e59f0094 	ldr	r0, [pc, #148]	; 400016fc <gic_init+0x294>
40001664:	ebfffaf8 	bl	4000024c <uart_print>
40001668:	e59f00bc 	ldr	r0, [pc, #188]	; 4000172c <gic_init+0x2c4>
4000166c:	ebfffaf6 	bl	4000024c <uart_print>
40001670:	e5943008 	ldr	r3, [r4, #8]
40001674:	e5930018 	ldr	r0, [r3, #24]
40001678:	ebfffb0a 	bl	400002a8 <uart_print_hex32>
4000167c:	e59f0078 	ldr	r0, [pc, #120]	; 400016fc <gic_init+0x294>
40001680:	ebfffaf1 	bl	4000024c <uart_print>
40001684:	e59f00a4 	ldr	r0, [pc, #164]	; 40001730 <gic_init+0x2c8>
40001688:	ebfffaef 	bl	4000024c <uart_print>
4000168c:	e5943008 	ldr	r3, [r4, #8]
40001690:	e59300fc 	ldr	r0, [r3, #252]	; 0xfc
40001694:	ebfffb03 	bl	400002a8 <uart_print_hex32>
40001698:	e59f005c 	ldr	r0, [pc, #92]	; 400016fc <gic_init+0x294>
4000169c:	ebfffaea 	bl	4000024c <uart_print>
400016a0:	e5943004 	ldr	r3, [r4, #4]
400016a4:	e3a02002 	mov	r2, #2
400016a8:	e3a01102 	mov	r1, #-2147483648	; 0x80000000
400016ac:	e5832104 	str	r2, [r3, #260]	; 0x104
400016b0:	e5832184 	str	r2, [r3, #388]	; 0x184
400016b4:	e5832100 	str	r2, [r3, #256]	; 0x100
400016b8:	e5832180 	str	r2, [r3, #384]	; 0x180
400016bc:	e5831100 	str	r1, [r3, #256]	; 0x100
400016c0:	e5831180 	str	r1, [r3, #384]	; 0x180
400016c4:	e5c35102 	strb	r5, [r3, #258]	; 0x102
400016c8:	e5930100 	ldr	r0, [r3, #256]	; 0x100
400016cc:	ebfffaf5 	bl	400002a8 <uart_print_hex32>
400016d0:	e59f0024 	ldr	r0, [pc, #36]	; 400016fc <gic_init+0x294>
400016d4:	ebfffadc 	bl	4000024c <uart_print>
400016d8:	e5943004 	ldr	r3, [r4, #4]
400016dc:	e5c35182 	strb	r5, [r3, #386]	; 0x182
400016e0:	e5930100 	ldr	r0, [r3, #256]	; 0x100
400016e4:	ebfffaef 	bl	400002a8 <uart_print_hex32>
400016e8:	e59f000c 	ldr	r0, [pc, #12]	; 400016fc <gic_init+0x294>
400016ec:	ebfffad6 	bl	4000024c <uart_print>
400016f0:	eaffff7f 	b	400014f4 <gic_init+0x8c>
400016f4:	40003a10 	andmi	r3, r0, r0, lsl sl
400016f8:	4000324c 	andmi	r3, r0, ip, asr #4
400016fc:	40003254 	andmi	r3, r0, r4, asr r2
40001700:	40003258 	andmi	r3, r0, r8, asr r2
40001704:	40003a00 	andmi	r3, r0, r0, lsl #20
40001708:	4000326c 	andmi	r3, r0, ip, ror #4
4000170c:	40003278 	andmi	r3, r0, r8, ror r2
40001710:	40003288 	andmi	r3, r0, r8, lsl #5
40001714:	40003294 	mulmi	r0, r4, r2
40001718:	400032a0 	andmi	r3, r0, r0, lsr #5
4000171c:	400032ac 	andmi	r3, r0, ip, lsr #5
40001720:	400032b8 			; <UNDEFINED> instruction: 0x400032b8
40001724:	400032c4 	andmi	r3, r0, r4, asr #5
40001728:	400032d0 	ldrdmi	r3, [r0], -r0
4000172c:	400032dc 	ldrdmi	r3, [r0], -ip
40001730:	400032e8 	andmi	r3, r0, r8, ror #5

40001734 <gic_interrupt>:
40001734:	e92d4030 	push	{r4, r5, lr}
40001738:	e24dd00c 	sub	sp, sp, #12
4000173c:	ee103fb0 	mrc	15, 0, r3, cr0, cr0, {5}
40001740:	e59f50a0 	ldr	r5, [pc, #160]	; 400017e8 <gic_interrupt+0xb4>
40001744:	e5952008 	ldr	r2, [r5, #8]
40001748:	e595300c 	ldr	r3, [r5, #12]
4000174c:	e592400c 	ldr	r4, [r2, #12]
40001750:	e1a04b04 	lsl	r4, r4, #22
40001754:	e1a04b24 	lsr	r4, r4, #22
40001758:	e1540003 	cmp	r4, r3
4000175c:	2a00000c 	bcs	40001794 <gic_interrupt+0x60>
40001760:	e3540000 	cmp	r4, #0
40001764:	0a00000c 	beq	4000179c <gic_interrupt+0x68>
40001768:	e0853104 	add	r3, r5, r4, lsl #2
4000176c:	e5933014 	ldr	r3, [r3, #20]
40001770:	e3530000 	cmp	r3, #0
40001774:	0a000002 	beq	40001784 <gic_interrupt+0x50>
40001778:	e1a00004 	mov	r0, r4
4000177c:	e3a02000 	mov	r2, #0
40001780:	e12fff33 	blx	r3
40001784:	e5953008 	ldr	r3, [r5, #8]
40001788:	e3a02a01 	mov	r2, #4096	; 0x1000
4000178c:	e5834010 	str	r4, [r3, #16]
40001790:	e7834002 	str	r4, [r3, r2]
40001794:	e28dd00c 	add	sp, sp, #12
40001798:	e8bd8030 	pop	{r4, r5, pc}
4000179c:	e59f0048 	ldr	r0, [pc, #72]	; 400017ec <gic_interrupt+0xb8>
400017a0:	e58d1004 	str	r1, [sp, #4]
400017a4:	ebfffaa8 	bl	4000024c <uart_print>
400017a8:	e5950004 	ldr	r0, [r5, #4]
400017ac:	ebfffabd 	bl	400002a8 <uart_print_hex32>
400017b0:	e59f0038 	ldr	r0, [pc, #56]	; 400017f0 <gic_interrupt+0xbc>
400017b4:	ebfffaa4 	bl	4000024c <uart_print>
400017b8:	e59f0034 	ldr	r0, [pc, #52]	; 400017f4 <gic_interrupt+0xc0>
400017bc:	ebfffaa2 	bl	4000024c <uart_print>
400017c0:	e5950008 	ldr	r0, [r5, #8]
400017c4:	ebfffab7 	bl	400002a8 <uart_print_hex32>
400017c8:	e59f0020 	ldr	r0, [pc, #32]	; 400017f0 <gic_interrupt+0xbc>
400017cc:	ebfffa9e 	bl	4000024c <uart_print>
400017d0:	e0853104 	add	r3, r5, r4, lsl #2
400017d4:	e59d1004 	ldr	r1, [sp, #4]
400017d8:	e5933014 	ldr	r3, [r3, #20]
400017dc:	e3530000 	cmp	r3, #0
400017e0:	1affffe4 	bne	40001778 <gic_interrupt+0x44>
400017e4:	eaffffe6 	b	40001784 <gic_interrupt+0x50>
400017e8:	40003a00 	andmi	r3, r0, r0, lsl #20
400017ec:	40003288 	andmi	r3, r0, r8, lsl #5
400017f0:	40003254 	andmi	r3, r0, r4, asr r2
400017f4:	400032a0 	andmi	r3, r0, r0, lsr #5

400017f8 <vtimer_mask>:
400017f8:	e30339b8 	movw	r3, #14776	; 0x39b8
400017fc:	e3443000 	movt	r3, #16384	; 0x4000
40001800:	e5933000 	ldr	r3, [r3]
40001804:	e5830000 	str	r0, [r3]
40001808:	e12fff1e 	bx	lr

4000180c <linuxloader_setup_atags>:
4000180c:	e92d4038 	push	{r3, r4, r5, lr}
40001810:	e3a0e001 	mov	lr, #1
40001814:	e1a03000 	mov	r3, r0
40001818:	e59f40c8 	ldr	r4, [pc, #200]	; 400018e8 <linuxloader_setup_atags+0xdc>
4000181c:	e345e441 	movt	lr, #21569	; 0x5441
40001820:	e3a02002 	mov	r2, #2
40001824:	e3a0c007 	mov	ip, #7
40001828:	e59f00bc 	ldr	r0, [pc, #188]	; 400018ec <linuxloader_setup_atags+0xe0>
4000182c:	e3452441 	movt	r2, #21569	; 0x5441
40001830:	e583e004 	str	lr, [r3, #4]
40001834:	e3a0e005 	mov	lr, #5
40001838:	e345c441 	movt	ip, #21569	; 0x5441
4000183c:	e3a05a01 	mov	r5, #4096	; 0x1000
40001840:	e583302c 	str	r3, [r3, #44]	; 0x2c
40001844:	e5832024 	str	r2, [r3, #36]	; 0x24
40001848:	e3a02004 	mov	r2, #4
4000184c:	e30d1fdf 	movw	r1, #57311	; 0xdfdf
40001850:	e5843000 	str	r3, [r4]
40001854:	e34c1fdf 	movt	r1, #53215	; 0xcfdf
40001858:	e583e000 	str	lr, [r3]
4000185c:	e3a0e001 	mov	lr, #1
40001860:	e583500c 	str	r5, [r3, #12]
40001864:	e3a05000 	mov	r5, #0
40001868:	e583c018 	str	ip, [r3, #24]
4000186c:	e3a0c003 	mov	ip, #3
40001870:	e5832020 	str	r2, [r3, #32]
40001874:	e3a02202 	mov	r2, #536870912	; 0x20000000
40001878:	e583e008 	str	lr, [r3, #8]
4000187c:	e283e030 	add	lr, r3, #48	; 0x30
40001880:	e5835010 	str	r5, [r3, #16]
40001884:	e583c014 	str	ip, [r3, #20]
40001888:	e583101c 	str	r1, [r3, #28]
4000188c:	e5832028 	str	r2, [r3, #40]	; 0x28
40001890:	e584e004 	str	lr, [r4, #4]
40001894:	ebfffde0 	bl	4000101c <strlen>
40001898:	e3500000 	cmp	r0, #0
4000189c:	e5943004 	ldr	r3, [r4, #4]
400018a0:	0a00000c 	beq	400018d8 <linuxloader_setup_atags+0xcc>
400018a4:	e280000d 	add	r0, r0, #13
400018a8:	e3a02009 	mov	r2, #9
400018ac:	e59f1038 	ldr	r1, [pc, #56]	; 400018ec <linuxloader_setup_atags+0xe0>
400018b0:	e1a0c120 	lsr	ip, r0, #2
400018b4:	e3452441 	movt	r2, #21569	; 0x5441
400018b8:	e1a00003 	mov	r0, r3
400018bc:	e5832004 	str	r2, [r3, #4]
400018c0:	e480c008 	str	ip, [r0], #8
400018c4:	ebfffd96 	bl	40000f24 <strcpy>
400018c8:	e5943004 	ldr	r3, [r4, #4]
400018cc:	e5932000 	ldr	r2, [r3]
400018d0:	e0833102 	add	r3, r3, r2, lsl #2
400018d4:	e5843004 	str	r3, [r4, #4]
400018d8:	e3a02000 	mov	r2, #0
400018dc:	e5832004 	str	r2, [r3, #4]
400018e0:	e5832000 	str	r2, [r3]
400018e4:	e8bd8038 	pop	{r3, r4, r5, pc}
400018e8:	40003bb0 			; <UNDEFINED> instruction: 0x40003bb0
400018ec:	400032f4 	strdmi	r3, [r0], -r4

400018f0 <linuxloader_get_atags_addr>:
400018f0:	e92d4008 	push	{r3, lr}
400018f4:	e59f3018 	ldr	r3, [pc, #24]	; 40001914 <linuxloader_get_atags_addr+0x24>
400018f8:	e5930000 	ldr	r0, [r3]
400018fc:	e3500000 	cmp	r0, #0
40001900:	0a000000 	beq	40001908 <linuxloader_get_atags_addr+0x18>
40001904:	e8bd8008 	pop	{r3, pc}
40001908:	e59f0008 	ldr	r0, [pc, #8]	; 40001918 <linuxloader_get_atags_addr+0x28>
4000190c:	ebfffa4e 	bl	4000024c <uart_print>
40001910:	eafffffe 	b	40001910 <linuxloader_get_atags_addr+0x20>
40001914:	40003bb0 			; <UNDEFINED> instruction: 0x40003bb0
40001918:	40003344 	andmi	r3, r0, r4, asr #6

4000191c <copy_image_to>:
4000191c:	e1500001 	cmp	r0, r1
40001920:	212fff1e 	bxcs	lr
40001924:	e4903004 	ldr	r3, [r0], #4
40001928:	e1510000 	cmp	r1, r0
4000192c:	e4823004 	str	r3, [r2], #4
40001930:	8afffffb 	bhi	40001924 <copy_image_to+0x8>
40001934:	e12fff1e 	bx	lr

40001938 <loader_boot_guest>:
40001938:	e92d4010 	push	{r4, lr}
4000193c:	e1a04000 	mov	r4, r0
40001940:	e59f0094 	ldr	r0, [pc, #148]	; 400019dc <loader_boot_guest+0xa4>
40001944:	ebfffa40 	bl	4000024c <uart_print>
40001948:	e3540001 	cmp	r4, #1
4000194c:	0a00001b 	beq	400019c0 <loader_boot_guest+0x88>
40001950:	e59f2088 	ldr	r2, [pc, #136]	; 400019e0 <loader_boot_guest+0xa8>
40001954:	e59fc088 	ldr	ip, [pc, #136]	; 400019e4 <loader_boot_guest+0xac>
40001958:	e59f3088 	ldr	r3, [pc, #136]	; 400019e8 <loader_boot_guest+0xb0>
4000195c:	e152000c 	cmp	r2, ip
40001960:	2a000005 	bcs	4000197c <loader_boot_guest+0x44>
40001964:	e1a01002 	mov	r1, r2
40001968:	e1a00003 	mov	r0, r3
4000196c:	e491e004 	ldr	lr, [r1], #4
40001970:	e151000c 	cmp	r1, ip
40001974:	e480e004 	str	lr, [r0], #4
40001978:	3afffffb 	bcc	4000196c <loader_boot_guest+0x34>
4000197c:	e0622003 	rsb	r2, r2, r3
40001980:	e3c22003 	bic	r2, r2, #3
40001984:	e08f2002 	add	r2, pc, r2
40001988:	e1a0f002 	mov	pc, r2
4000198c:	e59f2058 	ldr	r2, [pc, #88]	; 400019ec <loader_boot_guest+0xb4>
40001990:	e1520003 	cmp	r2, r3
40001994:	2a000004 	bcs	400019ac <loader_boot_guest+0x74>
40001998:	e3a01101 	mov	r1, #1073741824	; 0x40000000
4000199c:	e4920004 	ldr	r0, [r2], #4
400019a0:	e1520003 	cmp	r2, r3
400019a4:	e4810004 	str	r0, [r1], #4
400019a8:	3afffffb 	bcc	4000199c <loader_boot_guest+0x64>
400019ac:	e3a03101 	mov	r3, #1073741824	; 0x40000000
400019b0:	e1a0f003 	mov	pc, r3
400019b4:	e59f0034 	ldr	r0, [pc, #52]	; 400019f0 <loader_boot_guest+0xb8>
400019b8:	ebfffa23 	bl	4000024c <uart_print>
400019bc:	eafffffe 	b	400019bc <loader_boot_guest+0x84>
400019c0:	e3a00101 	mov	r0, #1073741824	; 0x40000000
400019c4:	ebffff90 	bl	4000180c <linuxloader_setup_atags>
400019c8:	e30130b2 	movw	r3, #4274	; 0x10b2
400019cc:	e1a01003 	mov	r1, r3
400019d0:	ebffffc6 	bl	400018f0 <linuxloader_get_atags_addr>
400019d4:	e1a02000 	mov	r2, r0
400019d8:	eafffff3 	b	400019ac <loader_boot_guest+0x74>
400019dc:	40003378 	andmi	r3, r0, r8, ror r3
400019e0:	40000000 	andmi	r0, r0, r0
400019e4:	40500000 	subsmi	r0, r0, r0
400019e8:	40700000 	rsbsmi	r0, r0, r0
400019ec:	40500000 	subsmi	r0, r0, r0
400019f0:	40003390 	mulmi	r0, r0, r3

400019f4 <cli_exec_cmd>:
400019f4:	e92d40f8 	push	{r3, r4, r5, r6, r7, lr}
400019f8:	e1a04000 	mov	r4, r0
400019fc:	e5d03000 	ldrb	r3, [r0]
40001a00:	e3530000 	cmp	r3, #0
40001a04:	08bd80f8 	popeq	{r3, r4, r5, r6, r7, pc}
40001a08:	e353000d 	cmp	r3, #13
40001a0c:	08bd80f8 	popeq	{r3, r4, r5, r6, r7, pc}
40001a10:	e353000a 	cmp	r3, #10
40001a14:	08bd80f8 	popeq	{r3, r4, r5, r6, r7, pc}
40001a18:	e3530020 	cmp	r3, #32
40001a1c:	1a00000c 	bne	40001a54 <cli_exec_cmd+0x60>
40001a20:	e2802001 	add	r2, r0, #1
40001a24:	ea000005 	b	40001a40 <cli_exec_cmd+0x4c>
40001a28:	e353000d 	cmp	r3, #13
40001a2c:	08bd80f8 	popeq	{r3, r4, r5, r6, r7, pc}
40001a30:	e353000a 	cmp	r3, #10
40001a34:	08bd80f8 	popeq	{r3, r4, r5, r6, r7, pc}
40001a38:	e3530020 	cmp	r3, #32
40001a3c:	1a000004 	bne	40001a54 <cli_exec_cmd+0x60>
40001a40:	e1a04002 	mov	r4, r2
40001a44:	e4d23001 	ldrb	r3, [r2], #1
40001a48:	e3530000 	cmp	r3, #0
40001a4c:	1afffff5 	bne	40001a28 <cli_exec_cmd+0x34>
40001a50:	e8bd80f8 	pop	{r3, r4, r5, r6, r7, pc}
40001a54:	e59f605c 	ldr	r6, [pc, #92]	; 40001ab8 <cli_exec_cmd+0xc4>
40001a58:	e3a05000 	mov	r5, #0
40001a5c:	e7960185 	ldr	r0, [r6, r5, lsl #3]
40001a60:	e1a01004 	mov	r1, r4
40001a64:	e1a07185 	lsl	r7, r5, #3
40001a68:	e2855001 	add	r5, r5, #1
40001a6c:	ebfffd93 	bl	400010c0 <strcmp>
40001a70:	e3500000 	cmp	r0, #0
40001a74:	0a000004 	beq	40001a8c <cli_exec_cmd+0x98>
40001a78:	e3550004 	cmp	r5, #4
40001a7c:	1afffff6 	bne	40001a5c <cli_exec_cmd+0x68>
40001a80:	e59f0034 	ldr	r0, [pc, #52]	; 40001abc <cli_exec_cmd+0xc8>
40001a84:	e8bd40f8 	pop	{r3, r4, r5, r6, r7, lr}
40001a88:	eafff9ef 	b	4000024c <uart_print>
40001a8c:	e59f3024 	ldr	r3, [pc, #36]	; 40001ab8 <cli_exec_cmd+0xc4>
40001a90:	e0837007 	add	r7, r3, r7
40001a94:	e5973004 	ldr	r3, [r7, #4]
40001a98:	e3530001 	cmp	r3, #1
40001a9c:	0a000003 	beq	40001ab0 <cli_exec_cmd+0xbc>
40001aa0:	3afffff6 	bcc	40001a80 <cli_exec_cmd+0x8c>
40001aa4:	e3530002 	cmp	r3, #2
40001aa8:	18bd80f8 	popne	{r3, r4, r5, r6, r7, pc}
40001aac:	eafffff3 	b	40001a80 <cli_exec_cmd+0x8c>
40001ab0:	e8bd40f8 	pop	{r3, r4, r5, r6, r7, lr}
40001ab4:	eaffff9f 	b	40001938 <loader_boot_guest>
40001ab8:	4000300c 	andmi	r3, r0, ip
40001abc:	400033c0 	andmi	r3, r0, r0, asr #7

40001ac0 <check_vaild_va>:
40001ac0:	e3510002 	cmp	r1, #2
40001ac4:	e92d4070 	push	{r4, r5, r6, lr}
40001ac8:	e1a06002 	mov	r6, r2
40001acc:	1a000012 	bne	40001b1c <check_vaild_va+0x5c>
40001ad0:	e5900004 	ldr	r0, [r0, #4]
40001ad4:	e5d03000 	ldrb	r3, [r0]
40001ad8:	e3530030 	cmp	r3, #48	; 0x30
40001adc:	1a00000e 	bne	40001b1c <check_vaild_va+0x5c>
40001ae0:	e5d03001 	ldrb	r3, [r0, #1]
40001ae4:	e3530078 	cmp	r3, #120	; 0x78
40001ae8:	1a00000b 	bne	40001b1c <check_vaild_va+0x5c>
40001aec:	e1a03000 	mov	r3, r0
40001af0:	e3a04000 	mov	r4, #0
40001af4:	e5f35001 	ldrb	r5, [r3, #1]!
40001af8:	e2844001 	add	r4, r4, #1
40001afc:	e3550000 	cmp	r5, #0
40001b00:	1afffffb 	bne	40001af4 <check_vaild_va+0x34>
40001b04:	ebfffdd5 	bl	40001260 <arm_hexstr2uint>
40001b08:	e354000a 	cmp	r4, #10
40001b0c:	e5860000 	str	r0, [r6]
40001b10:	ca000001 	bgt	40001b1c <check_vaild_va+0x5c>
40001b14:	e1a00005 	mov	r0, r5
40001b18:	e8bd8070 	pop	{r4, r5, r6, pc}
40001b1c:	e59f0008 	ldr	r0, [pc, #8]	; 40001b2c <check_vaild_va+0x6c>
40001b20:	ebfff9c9 	bl	4000024c <uart_print>
40001b24:	e3e00000 	mvn	r0, #0
40001b28:	e8bd8070 	pop	{r4, r5, r6, pc}
40001b2c:	4000346c 	andmi	r3, r0, ip, ror #8

40001b30 <monitoring_allset>:
40001b30:	e30339bc 	movw	r3, #14780	; 0x39bc
40001b34:	e3443000 	movt	r3, #16384	; 0x4000
40001b38:	e5933000 	ldr	r3, [r3]
40001b3c:	e5830000 	str	r0, [r3]
40001b40:	e12fff1e 	bx	lr

40001b44 <monitoring_reboot>:
40001b44:	e30306b8 	movw	r0, #14008	; 0x36b8
40001b48:	e92d4008 	push	{r3, lr}
40001b4c:	e3440000 	movt	r0, #16384	; 0x4000
40001b50:	ebfffafb 	bl	40000744 <printH>
40001b54:	e30339bc 	movw	r3, #14780	; 0x39bc
40001b58:	e3443000 	movt	r3, #16384	; 0x4000
40001b5c:	e5933004 	ldr	r3, [r3, #4]
40001b60:	e5933000 	ldr	r3, [r3]
40001b64:	e8bd8008 	pop	{r3, pc}

40001b68 <monitoring_register>:
40001b68:	e30339bc 	movw	r3, #14780	; 0x39bc
40001b6c:	e3443000 	movt	r3, #16384	; 0x4000
40001b70:	e5933008 	ldr	r3, [r3, #8]
40001b74:	e5933000 	ldr	r3, [r3]
40001b78:	e12fff1e 	bx	lr

40001b7c <monitoring_cmd>:
40001b7c:	e59f3360 	ldr	r3, [pc, #864]	; 40001ee4 <monitoring_cmd+0x368>
40001b80:	e3a02001 	mov	r2, #1
40001b84:	e92d45f0 	push	{r4, r5, r6, r7, r8, sl, lr}
40001b88:	e24ddf63 	sub	sp, sp, #396	; 0x18c
40001b8c:	e59f4354 	ldr	r4, [pc, #852]	; 40001ee8 <monitoring_cmd+0x36c>
40001b90:	e59f5354 	ldr	r5, [pc, #852]	; 40001eec <monitoring_cmd+0x370>
40001b94:	e5c32058 	strb	r2, [r3, #88]	; 0x58
40001b98:	e3a02000 	mov	r2, #0
40001b9c:	e5c32059 	strb	r2, [r3, #89]	; 0x59
40001ba0:	e59f0348 	ldr	r0, [pc, #840]	; 40001ef0 <monitoring_cmd+0x374>
40001ba4:	ebfff9a8 	bl	4000024c <uart_print>
40001ba8:	e28d0004 	add	r0, sp, #4
40001bac:	e3a01c01 	mov	r1, #256	; 0x100
40001bb0:	ebfff9df 	bl	40000334 <uart_gets>
40001bb4:	e5dd3004 	ldrb	r3, [sp, #4]
40001bb8:	e3530000 	cmp	r3, #0
40001bbc:	0afffff7 	beq	40001ba0 <monitoring_cmd+0x24>
40001bc0:	e353000d 	cmp	r3, #13
40001bc4:	0a000024 	beq	40001c5c <monitoring_cmd+0xe0>
40001bc8:	e353000a 	cmp	r3, #10
40001bcc:	0a000022 	beq	40001c5c <monitoring_cmd+0xe0>
40001bd0:	e3a01000 	mov	r1, #0
40001bd4:	e28dc004 	add	ip, sp, #4
40001bd8:	e1a06001 	mov	r6, r1
40001bdc:	e1a00001 	mov	r0, r1
40001be0:	e1a02001 	mov	r2, r1
40001be4:	e1a0e001 	mov	lr, r1
40001be8:	ea000012 	b	40001c38 <monitoring_cmd+0xbc>
40001bec:	e3500000 	cmp	r0, #0
40001bf0:	e0873106 	add	r3, r7, r6, lsl #2
40001bf4:	e28d7004 	add	r7, sp, #4
40001bf8:	e2800001 	add	r0, r0, #1
40001bfc:	e0871001 	add	r1, r7, r1
40001c00:	1a000001 	bne	40001c0c <monitoring_cmd+0x90>
40001c04:	e2866001 	add	r6, r6, #1
40001c08:	e5031084 	str	r1, [r3, #-132]	; 0x84
40001c0c:	e5fc3001 	ldrb	r3, [ip, #1]!
40001c10:	e2822001 	add	r2, r2, #1
40001c14:	e1a01002 	mov	r1, r2
40001c18:	e3530000 	cmp	r3, #0
40001c1c:	0a000014 	beq	40001c74 <monitoring_cmd+0xf8>
40001c20:	e356001f 	cmp	r6, #31
40001c24:	ca000014 	bgt	40001c7c <monitoring_cmd+0x100>
40001c28:	e353000d 	cmp	r3, #13
40001c2c:	0a00000c 	beq	40001c64 <monitoring_cmd+0xe8>
40001c30:	e353000a 	cmp	r3, #10
40001c34:	0a00000a 	beq	40001c64 <monitoring_cmd+0xe8>
40001c38:	e3530020 	cmp	r3, #32
40001c3c:	e28d7f62 	add	r7, sp, #392	; 0x188
40001c40:	1affffe9 	bne	40001bec <monitoring_cmd+0x70>
40001c44:	e3500000 	cmp	r0, #0
40001c48:	e0871001 	add	r1, r7, r1
40001c4c:	0affffee 	beq	40001c0c <monitoring_cmd+0x90>
40001c50:	e541e184 	strb	lr, [r1, #-388]	; 0x184
40001c54:	e3a00000 	mov	r0, #0
40001c58:	eaffffeb 	b	40001c0c <monitoring_cmd+0x90>
40001c5c:	e3a01000 	mov	r1, #0
40001c60:	e1a06001 	mov	r6, r1
40001c64:	e28d3f62 	add	r3, sp, #392	; 0x188
40001c68:	e0831001 	add	r1, r3, r1
40001c6c:	e3a03000 	mov	r3, #0
40001c70:	e5413184 	strb	r3, [r1, #-388]	; 0x184
40001c74:	e3560000 	cmp	r6, #0
40001c78:	0affffc8 	beq	40001ba0 <monitoring_cmd+0x24>
40001c7c:	e59d8104 	ldr	r8, [sp, #260]	; 0x104
40001c80:	e3a07000 	mov	r7, #0
40001c84:	e7940187 	ldr	r0, [r4, r7, lsl #3]
40001c88:	e1a01008 	mov	r1, r8
40001c8c:	e1a0a187 	lsl	sl, r7, #3
40001c90:	e2877001 	add	r7, r7, #1
40001c94:	ebfffd09 	bl	400010c0 <strcmp>
40001c98:	e3500000 	cmp	r0, #0
40001c9c:	0a000004 	beq	40001cb4 <monitoring_cmd+0x138>
40001ca0:	e357000e 	cmp	r7, #14
40001ca4:	1afffff6 	bne	40001c84 <monitoring_cmd+0x108>
40001ca8:	e59f0244 	ldr	r0, [pc, #580]	; 40001ef4 <monitoring_cmd+0x378>
40001cac:	ebfff966 	bl	4000024c <uart_print>
40001cb0:	eaffffba 	b	40001ba0 <monitoring_cmd+0x24>
40001cb4:	e59f322c 	ldr	r3, [pc, #556]	; 40001ee8 <monitoring_cmd+0x36c>
40001cb8:	e083a00a 	add	sl, r3, sl
40001cbc:	e59a3004 	ldr	r3, [sl, #4]
40001cc0:	e353000d 	cmp	r3, #13
40001cc4:	979ff103 	ldrls	pc, [pc, r3, lsl #2]
40001cc8:	eaffffb4 	b	40001ba0 <monitoring_cmd+0x24>
40001ccc:	40001eb0 			; <UNDEFINED> instruction: 0x40001eb0
40001cd0:	40001e7c 	andmi	r1, r0, ip, ror lr
40001cd4:	40001e70 	andmi	r1, r0, r0, ror lr
40001cd8:	40001e3c 	andmi	r1, r0, ip, lsr lr
40001cdc:	40001e30 	andmi	r1, r0, r0, lsr lr
40001ce0:	40001ca8 	andmi	r1, r0, r8, lsr #25
40001ce4:	40001e14 	andmi	r1, r0, r4, lsl lr
40001ce8:	40001de0 	andmi	r1, r0, r0, ror #27
40001cec:	40001dcc 	andmi	r1, r0, ip, asr #27
40001cf0:	40001d40 	andmi	r1, r0, r0, asr #26
40001cf4:	40001d38 	andmi	r1, r0, r8, lsr sp
40001cf8:	40001d1c 	andmi	r1, r0, ip, lsl sp
40001cfc:	40001d10 	andmi	r1, r0, r0, lsl sp
40001d00:	40001d04 	andmi	r1, r0, r4, lsl #26
40001d04:	e595302c 	ldr	r3, [r5, #44]	; 0x2c
40001d08:	e5933000 	ldr	r3, [r3]
40001d0c:	eaffffa3 	b	40001ba0 <monitoring_cmd+0x24>
40001d10:	e5953008 	ldr	r3, [r5, #8]
40001d14:	e5933000 	ldr	r3, [r3]
40001d18:	eaffffa0 	b	40001ba0 <monitoring_cmd+0x24>
40001d1c:	e59f01d4 	ldr	r0, [pc, #468]	; 40001ef8 <monitoring_cmd+0x37c>
40001d20:	ebfffa87 	bl	40000744 <printH>
40001d24:	e3a00001 	mov	r0, #1
40001d28:	eb000447 	bl	40002e4c <set_recovery>
40001d2c:	e5953028 	ldr	r3, [r5, #40]	; 0x28
40001d30:	e5933000 	ldr	r3, [r3]
40001d34:	eaffff99 	b	40001ba0 <monitoring_cmd+0x24>
40001d38:	ebffff81 	bl	40001b44 <monitoring_reboot>
40001d3c:	eaffff97 	b	40001ba0 <monitoring_cmd+0x24>
40001d40:	e3560003 	cmp	r6, #3
40001d44:	1affffd7 	bne	40001ca8 <monitoring_cmd+0x12c>
40001d48:	e59d310c 	ldr	r3, [sp, #268]	; 0x10c
40001d4c:	e5d32000 	ldrb	r2, [r3]
40001d50:	e3520030 	cmp	r2, #48	; 0x30
40001d54:	1affffd3 	bne	40001ca8 <monitoring_cmd+0x12c>
40001d58:	e5d33001 	ldrb	r3, [r3, #1]
40001d5c:	e3530078 	cmp	r3, #120	; 0x78
40001d60:	1affffd0 	bne	40001ca8 <monitoring_cmd+0x12c>
40001d64:	e59d0108 	ldr	r0, [sp, #264]	; 0x108
40001d68:	ebfffd83 	bl	4000137c <arm_str2int>
40001d6c:	e1a06000 	mov	r6, r0
40001d70:	e59d010c 	ldr	r0, [sp, #268]	; 0x10c
40001d74:	ebfffd39 	bl	40001260 <arm_hexstr2uint>
40001d78:	e59d210c 	ldr	r2, [sp, #268]	; 0x10c
40001d7c:	e1a01000 	mov	r1, r0
40001d80:	e5d23000 	ldrb	r3, [r2]
40001d84:	e3530000 	cmp	r3, #0
40001d88:	0a000006 	beq	40001da8 <monitoring_cmd+0x22c>
40001d8c:	e3a03000 	mov	r3, #0
40001d90:	e5f20001 	ldrb	r0, [r2, #1]!
40001d94:	e2833001 	add	r3, r3, #1
40001d98:	e3500000 	cmp	r0, #0
40001d9c:	1afffffb 	bne	40001d90 <monitoring_cmd+0x214>
40001da0:	e353000a 	cmp	r3, #10
40001da4:	8affffbf 	bhi	40001ca8 <monitoring_cmd+0x12c>
40001da8:	e30f3fc0 	movw	r3, #65472	; 0xffc0
40001dac:	e340300f 	movt	r3, #15
40001db0:	e1560003 	cmp	r6, r3
40001db4:	8affffbb 	bhi	40001ca8 <monitoring_cmd+0x12c>
40001db8:	e1a00006 	mov	r0, r6
40001dbc:	eb00041d 	bl	40002e38 <send_monitoring_data>
40001dc0:	e5953024 	ldr	r3, [r5, #36]	; 0x24
40001dc4:	e5933000 	ldr	r3, [r3]
40001dc8:	eaffff74 	b	40001ba0 <monitoring_cmd+0x24>
40001dcc:	e59f0128 	ldr	r0, [pc, #296]	; 40001efc <monitoring_cmd+0x380>
40001dd0:	ebfffa5b 	bl	40000744 <printH>
40001dd4:	e5953020 	ldr	r3, [r5, #32]
40001dd8:	e5933000 	ldr	r3, [r3]
40001ddc:	eaffff6f 	b	40001ba0 <monitoring_cmd+0x24>
40001de0:	e28d0f41 	add	r0, sp, #260	; 0x104
40001de4:	e1a01006 	mov	r1, r6
40001de8:	e28d2f61 	add	r2, sp, #388	; 0x184
40001dec:	ebffff33 	bl	40001ac0 <check_vaild_va>
40001df0:	e3500000 	cmp	r0, #0
40001df4:	1affff69 	bne	40001ba0 <monitoring_cmd+0x24>
40001df8:	e59f0100 	ldr	r0, [pc, #256]	; 40001f00 <monitoring_cmd+0x384>
40001dfc:	e59d1184 	ldr	r1, [sp, #388]	; 0x184
40001e00:	ebfffa4f 	bl	40000744 <printH>
40001e04:	e595301c 	ldr	r3, [r5, #28]
40001e08:	e59d2184 	ldr	r2, [sp, #388]	; 0x184
40001e0c:	e5832000 	str	r2, [r3]
40001e10:	eaffff62 	b	40001ba0 <monitoring_cmd+0x24>
40001e14:	e59f00e0 	ldr	r0, [pc, #224]	; 40001efc <monitoring_cmd+0x380>
40001e18:	ebfffa49 	bl	40000744 <printH>
40001e1c:	e5953020 	ldr	r3, [r5, #32]
40001e20:	e3a00000 	mov	r0, #0
40001e24:	e5933000 	ldr	r3, [r3]
40001e28:	e28ddf63 	add	sp, sp, #396	; 0x18c
40001e2c:	e8bd85f0 	pop	{r4, r5, r6, r7, r8, sl, pc}
40001e30:	e5953018 	ldr	r3, [r5, #24]
40001e34:	e5933000 	ldr	r3, [r3]
40001e38:	eaffff58 	b	40001ba0 <monitoring_cmd+0x24>
40001e3c:	e28d0f41 	add	r0, sp, #260	; 0x104
40001e40:	e1a01006 	mov	r1, r6
40001e44:	e28d2f61 	add	r2, sp, #388	; 0x184
40001e48:	ebffff1c 	bl	40001ac0 <check_vaild_va>
40001e4c:	e3500000 	cmp	r0, #0
40001e50:	1affff52 	bne	40001ba0 <monitoring_cmd+0x24>
40001e54:	e59f00a8 	ldr	r0, [pc, #168]	; 40001f04 <monitoring_cmd+0x388>
40001e58:	e59d1184 	ldr	r1, [sp, #388]	; 0x184
40001e5c:	ebfffa38 	bl	40000744 <printH>
40001e60:	e5953014 	ldr	r3, [r5, #20]
40001e64:	e59d2184 	ldr	r2, [sp, #388]	; 0x184
40001e68:	e5832000 	str	r2, [r3]
40001e6c:	eaffff4b 	b	40001ba0 <monitoring_cmd+0x24>
40001e70:	e5953010 	ldr	r3, [r5, #16]
40001e74:	e5933000 	ldr	r3, [r3]
40001e78:	eaffff48 	b	40001ba0 <monitoring_cmd+0x24>
40001e7c:	e28d0f41 	add	r0, sp, #260	; 0x104
40001e80:	e1a01006 	mov	r1, r6
40001e84:	e28d2f61 	add	r2, sp, #388	; 0x184
40001e88:	ebffff0c 	bl	40001ac0 <check_vaild_va>
40001e8c:	e3500000 	cmp	r0, #0
40001e90:	1affff42 	bne	40001ba0 <monitoring_cmd+0x24>
40001e94:	e59f006c 	ldr	r0, [pc, #108]	; 40001f08 <monitoring_cmd+0x38c>
40001e98:	e59d1184 	ldr	r1, [sp, #388]	; 0x184
40001e9c:	ebfffa28 	bl	40000744 <printH>
40001ea0:	e595300c 	ldr	r3, [r5, #12]
40001ea4:	e59d2184 	ldr	r2, [sp, #388]	; 0x184
40001ea8:	e5832000 	str	r2, [r3]
40001eac:	eaffff3b 	b	40001ba0 <monitoring_cmd+0x24>
40001eb0:	e28d0f41 	add	r0, sp, #260	; 0x104
40001eb4:	e1a01006 	mov	r1, r6
40001eb8:	e28d2f61 	add	r2, sp, #388	; 0x184
40001ebc:	ebfffeff 	bl	40001ac0 <check_vaild_va>
40001ec0:	e3500000 	cmp	r0, #0
40001ec4:	1affff35 	bne	40001ba0 <monitoring_cmd+0x24>
40001ec8:	e59f003c 	ldr	r0, [pc, #60]	; 40001f0c <monitoring_cmd+0x390>
40001ecc:	e59d1184 	ldr	r1, [sp, #388]	; 0x184
40001ed0:	ebfffa1b 	bl	40000744 <printH>
40001ed4:	e5953000 	ldr	r3, [r5]
40001ed8:	e59d2184 	ldr	r2, [sp, #388]	; 0x184
40001edc:	e5832000 	str	r2, [r3]
40001ee0:	eaffff2e 	b	40001ba0 <monitoring_cmd+0x24>
40001ee4:	4ec00000 	cdpmi	0, 12, cr0, cr0, cr0, {0}
40001ee8:	4000302c 	andmi	r3, r0, ip, lsr #32
40001eec:	400039bc 			; <UNDEFINED> instruction: 0x400039bc
40001ef0:	400036d0 	ldrdmi	r3, [r0], -r0
40001ef4:	4000346c 	andmi	r3, r0, ip, ror #8
40001ef8:	40003780 	andmi	r3, r0, r0, lsl #15
40001efc:	40003760 	andmi	r3, r0, r0, ror #14
40001f00:	40003744 	andmi	r3, r0, r4, asr #14
40001f04:	40003718 	andmi	r3, r0, r8, lsl r7
40001f08:	400036fc 	strdmi	r3, [r0], -ip
40001f0c:	400036e0 	andmi	r3, r0, r0, ror #13

40001f10 <hex_word>:
40001f10:	e59f3038 	ldr	r3, [pc, #56]	; 40001f50 <hex_word+0x40>
40001f14:	e3a02000 	mov	r2, #0
40001f18:	e52d4004 	push	{r4}		; (str r4, [sp, #-4]!)
40001f1c:	e1a0c231 	lsr	ip, r1, r2
40001f20:	e2822008 	add	r2, r2, #8
40001f24:	e6efc07c 	uxtb	ip, ip
40001f28:	e3520020 	cmp	r2, #32
40001f2c:	e7d3424c 	ldrb	r4, [r3, ip, asr #4]
40001f30:	e20cc00f 	and	ip, ip, #15
40001f34:	e5c04000 	strb	r4, [r0]
40001f38:	e7d3c00c 	ldrb	ip, [r3, ip]
40001f3c:	e5c0c001 	strb	ip, [r0, #1]
40001f40:	e2800002 	add	r0, r0, #2
40001f44:	1afffff4 	bne	40001f1c <hex_word+0xc>
40001f48:	e8bd0010 	pop	{r4}
40001f4c:	e12fff1e 	bx	lr
40001f50:	400037dc 	ldrdmi	r3, [r0], -ip

40001f54 <hex>:
40001f54:	e2403061 	sub	r3, r0, #97	; 0x61
40001f58:	e3530005 	cmp	r3, #5
40001f5c:	9a00000a 	bls	40001f8c <hex+0x38>
40001f60:	e2403030 	sub	r3, r0, #48	; 0x30
40001f64:	e6ef2073 	uxtb	r2, r3
40001f68:	e3520009 	cmp	r2, #9
40001f6c:	9a000004 	bls	40001f84 <hex+0x30>
40001f70:	e2403041 	sub	r3, r0, #65	; 0x41
40001f74:	e3530005 	cmp	r3, #5
40001f78:	8a000005 	bhi	40001f94 <hex+0x40>
40001f7c:	e2400037 	sub	r0, r0, #55	; 0x37
40001f80:	e12fff1e 	bx	lr
40001f84:	e1a00003 	mov	r0, r3
40001f88:	e12fff1e 	bx	lr
40001f8c:	e2400057 	sub	r0, r0, #87	; 0x57
40001f90:	e12fff1e 	bx	lr
40001f94:	e3e00000 	mvn	r0, #0
40001f98:	e12fff1e 	bx	lr

40001f9c <serial_write>:
40001f9c:	e92d4070 	push	{r4, r5, r6, lr}
40001fa0:	e2516000 	subs	r6, r1, #0
40001fa4:	e1a05000 	mov	r5, r0
40001fa8:	d8bd8070 	pople	{r4, r5, r6, pc}
40001fac:	e3a04000 	mov	r4, #0
40001fb0:	e7d50004 	ldrb	r0, [r5, r4]
40001fb4:	e2844001 	add	r4, r4, #1
40001fb8:	ebfff874 	bl	40000190 <serial_putc>
40001fbc:	e1540006 	cmp	r4, r6
40001fc0:	1afffffa 	bne	40001fb0 <serial_write+0x14>
40001fc4:	e8bd8070 	pop	{r4, r5, r6, pc}

40001fc8 <put_packet>:
40001fc8:	e92d41f0 	push	{r4, r5, r6, r7, r8, lr}
40001fcc:	e1a04000 	mov	r4, r0
40001fd0:	e59f70ac 	ldr	r7, [pc, #172]	; 40002084 <put_packet+0xbc>
40001fd4:	e24dd008 	sub	sp, sp, #8
40001fd8:	e3a08023 	mov	r8, #35	; 0x23
40001fdc:	e3a00024 	mov	r0, #36	; 0x24
40001fe0:	ebfff88a 	bl	40000210 <uart_putc>
40001fe4:	e5d43000 	ldrb	r3, [r4]
40001fe8:	e3530000 	cmp	r3, #0
40001fec:	0a000020 	beq	40002074 <put_packet+0xac>
40001ff0:	e3a02000 	mov	r2, #0
40001ff4:	e1a00004 	mov	r0, r4
40001ff8:	e1a01002 	mov	r1, r2
40001ffc:	e0822003 	add	r2, r2, r3
40002000:	e5f03001 	ldrb	r3, [r0, #1]!
40002004:	e2811001 	add	r1, r1, #1
40002008:	e3530000 	cmp	r3, #0
4000200c:	1afffffa 	bne	40001ffc <put_packet+0x34>
40002010:	e6ef2072 	uxtb	r2, r2
40002014:	e202300f 	and	r3, r2, #15
40002018:	e7d76242 	ldrb	r6, [r7, r2, asr #4]
4000201c:	e7d75003 	ldrb	r5, [r7, r3]
40002020:	f57ff04f 	dsb	sy
40002024:	f57ff06f 	isb	sy
40002028:	e1a00004 	mov	r0, r4
4000202c:	ebffffda 	bl	40001f9c <serial_write>
40002030:	f57ff04f 	dsb	sy
40002034:	f57ff06f 	isb	sy
40002038:	e5cd8004 	strb	r8, [sp, #4]
4000203c:	e5cd6005 	strb	r6, [sp, #5]
40002040:	e5cd5006 	strb	r5, [sp, #6]
40002044:	f57ff04f 	dsb	sy
40002048:	f57ff06f 	isb	sy
4000204c:	e3a01003 	mov	r1, #3
40002050:	e28d0004 	add	r0, sp, #4
40002054:	ebffffd0 	bl	40001f9c <serial_write>
40002058:	f57ff04f 	dsb	sy
4000205c:	f57ff06f 	isb	sy
40002060:	ebfff8a7 	bl	40000304 <uart_getc>
40002064:	e350002b 	cmp	r0, #43	; 0x2b
40002068:	1affffdb 	bne	40001fdc <put_packet+0x14>
4000206c:	e28dd008 	add	sp, sp, #8
40002070:	e8bd81f0 	pop	{r4, r5, r6, r7, r8, pc}
40002074:	e3a05030 	mov	r5, #48	; 0x30
40002078:	e1a01003 	mov	r1, r3
4000207c:	e1a06005 	mov	r6, r5
40002080:	eaffffe6 	b	40002020 <put_packet+0x58>
40002084:	400037dc 	ldrdmi	r3, [r0], -ip

40002088 <cmd_get_memory>:
40002088:	e92d4070 	push	{r4, r5, r6, lr}
4000208c:	e24dd008 	sub	sp, sp, #8
40002090:	e1a04001 	mov	r4, r1
40002094:	e1a0200d 	mov	r2, sp
40002098:	e59f10e8 	ldr	r1, [pc, #232]	; 40002188 <cmd_get_memory+0x100>
4000209c:	e28d3004 	add	r3, sp, #4
400020a0:	ebfffa0e 	bl	400008e0 <sscanf>
400020a4:	e3500002 	cmp	r0, #2
400020a8:	0a000008 	beq	400020d0 <cmd_get_memory+0x48>
400020ac:	e3a03030 	mov	r3, #48	; 0x30
400020b0:	e3a02045 	mov	r2, #69	; 0x45
400020b4:	e5c43001 	strb	r3, [r4, #1]
400020b8:	e5c43002 	strb	r3, [r4, #2]
400020bc:	e3a03000 	mov	r3, #0
400020c0:	e5c42000 	strb	r2, [r4]
400020c4:	e5c43003 	strb	r3, [r4, #3]
400020c8:	e28dd008 	add	sp, sp, #8
400020cc:	e8bd8070 	pop	{r4, r5, r6, pc}
400020d0:	e59d0004 	ldr	r0, [sp, #4]
400020d4:	e3500f7e 	cmp	r0, #504	; 0x1f8
400020d8:	9a000008 	bls	40002100 <cmd_get_memory+0x78>
400020dc:	e3a03045 	mov	r3, #69	; 0x45
400020e0:	e5c43000 	strb	r3, [r4]
400020e4:	e3a03030 	mov	r3, #48	; 0x30
400020e8:	e5c43001 	strb	r3, [r4, #1]
400020ec:	e3a03031 	mov	r3, #49	; 0x31
400020f0:	e5c43002 	strb	r3, [r4, #2]
400020f4:	e3a03000 	mov	r3, #0
400020f8:	e5c43003 	strb	r3, [r4, #3]
400020fc:	eafffff1 	b	400020c8 <cmd_get_memory+0x40>
40002100:	e59d1000 	ldr	r1, [sp]
40002104:	eb00034b 	bl	40002e38 <send_monitoring_data>
40002108:	f57ff04f 	dsb	sy
4000210c:	f57ff06f 	isb	sy
40002110:	e30d3fff 	movw	r3, #57343	; 0xdfff
40002114:	e3433fff 	movt	r3, #16383	; 0x3fff
40002118:	e5133ff3 	ldr	r3, [r3, #-4083]	; 0xff3
4000211c:	f57ff04f 	dsb	sy
40002120:	f57ff06f 	isb	sy
40002124:	e59d6004 	ldr	r6, [sp, #4]
40002128:	e3a03c01 	mov	r3, #256	; 0x100
4000212c:	e3443ec0 	movt	r3, #20160	; 0x4ec0
40002130:	e58d3000 	str	r3, [sp]
40002134:	e3560000 	cmp	r6, #0
40002138:	0a00000f 	beq	4000217c <cmd_get_memory+0xf4>
4000213c:	e3a050ff 	mov	r5, #255	; 0xff
40002140:	e59f0044 	ldr	r0, [pc, #68]	; 4000218c <cmd_get_memory+0x104>
40002144:	e1a03004 	mov	r3, r4
40002148:	e1a02005 	mov	r2, r5
4000214c:	e3445ec0 	movt	r5, #20160	; 0x4ec0
40002150:	e0865005 	add	r5, r6, r5
40002154:	e3442ec0 	movt	r2, #20160	; 0x4ec0
40002158:	e5f21001 	ldrb	r1, [r2, #1]!
4000215c:	e7d0c241 	ldrb	ip, [r0, r1, asr #4]
40002160:	e201100f 	and	r1, r1, #15
40002164:	e1520005 	cmp	r2, r5
40002168:	e5c3c000 	strb	ip, [r3]
4000216c:	e7d01001 	ldrb	r1, [r0, r1]
40002170:	e5c31001 	strb	r1, [r3, #1]
40002174:	e2833002 	add	r3, r3, #2
40002178:	1afffff6 	bne	40002158 <cmd_get_memory+0xd0>
4000217c:	e3a03000 	mov	r3, #0
40002180:	e7c43086 	strb	r3, [r4, r6, lsl #1]
40002184:	eaffffcf 	b	400020c8 <cmd_get_memory+0x40>
40002188:	400037f0 	strdmi	r3, [r0], -r0
4000218c:	400037dc 	ldrdmi	r3, [r0], -ip

40002190 <reply_signal_from_break>:
40002190:	e3033053 	movw	r3, #12371	; 0x3053
40002194:	e92d4030 	push	{r4, r5, lr}
40002198:	e3403035 	movt	r3, #53	; 0x35
4000219c:	e24dd03c 	sub	sp, sp, #60	; 0x3c
400021a0:	e3a04000 	mov	r4, #0
400021a4:	e3a01001 	mov	r1, #1
400021a8:	e98d0018 	stmib	sp, {r3, r4}
400021ac:	e59f3084 	ldr	r3, [pc, #132]	; 40002238 <reply_signal_from_break+0xa8>
400021b0:	e58d400c 	str	r4, [sp, #12]
400021b4:	e58d4010 	str	r4, [sp, #16]
400021b8:	e58d4014 	str	r4, [sp, #20]
400021bc:	e5831000 	str	r1, [r3]
400021c0:	e58d4018 	str	r4, [sp, #24]
400021c4:	e58d401c 	str	r4, [sp, #28]
400021c8:	e58d4020 	str	r4, [sp, #32]
400021cc:	e58d4024 	str	r4, [sp, #36]	; 0x24
400021d0:	e58d4028 	str	r4, [sp, #40]	; 0x28
400021d4:	e58d402c 	str	r4, [sp, #44]	; 0x2c
400021d8:	e58d4030 	str	r4, [sp, #48]	; 0x30
400021dc:	e1cd43b4 	strh	r4, [sp, #52]	; 0x34
400021e0:	e5cd4007 	strb	r4, [sp, #7]
400021e4:	ebfff7b9 	bl	400000d0 <check_uart_mode>
400021e8:	e3500001 	cmp	r0, #1
400021ec:	e1a05000 	mov	r5, r0
400021f0:	0a000006 	beq	40002210 <reply_signal_from_break+0x80>
400021f4:	f57ff04f 	dsb	sy
400021f8:	f57ff06f 	isb	sy
400021fc:	e28d0004 	add	r0, sp, #4
40002200:	ebffff70 	bl	40001fc8 <put_packet>
40002204:	f57ff04f 	dsb	sy
40002208:	e28dd03c 	add	sp, sp, #60	; 0x3c
4000220c:	e8bd8030 	pop	{r4, r5, pc}
40002210:	e1a00004 	mov	r0, r4
40002214:	ebfff7b5 	bl	400000f0 <set_uart_mode>
40002218:	f57ff04f 	dsb	sy
4000221c:	f57ff06f 	isb	sy
40002220:	e28d0004 	add	r0, sp, #4
40002224:	ebffff67 	bl	40001fc8 <put_packet>
40002228:	f57ff04f 	dsb	sy
4000222c:	e1a00005 	mov	r0, r5
40002230:	ebfff7ae 	bl	400000f0 <set_uart_mode>
40002234:	eafffff3 	b	40002208 <reply_signal_from_break+0x78>
40002238:	40003bb8 			; <UNDEFINED> instruction: 0x40003bb8

4000223c <reply_signal>:
4000223c:	e3a03053 	mov	r3, #83	; 0x53
40002240:	e5c13000 	strb	r3, [r1]
40002244:	e3a03030 	mov	r3, #48	; 0x30
40002248:	e5c13001 	strb	r3, [r1, #1]
4000224c:	e3a03035 	mov	r3, #53	; 0x35
40002250:	e5c13002 	strb	r3, [r1, #2]
40002254:	e3a03000 	mov	r3, #0
40002258:	e5c13003 	strb	r3, [r1, #3]
4000225c:	e12fff1e 	bx	lr

40002260 <gdb>:
40002260:	e30d3fff 	movw	r3, #57343	; 0xdfff
40002264:	e92d4ff0 	push	{r4, r5, r6, r7, r8, r9, sl, fp, lr}
40002268:	e3433fff 	movt	r3, #16383	; 0x3fff
4000226c:	e59f451c 	ldr	r4, [pc, #1308]	; 40002790 <gdb+0x530>
40002270:	e24dd05c 	sub	sp, sp, #92	; 0x5c
40002274:	e59f5518 	ldr	r5, [pc, #1304]	; 40002794 <gdb+0x534>
40002278:	e5133fd3 	ldr	r3, [r3, #-4051]	; 0xfd3
4000227c:	e3a00001 	mov	r0, #1
40002280:	e3a09000 	mov	r9, #0
40002284:	e300a3fe 	movw	sl, #1022	; 0x3fe
40002288:	ebfff798 	bl	400000f0 <set_uart_mode>
4000228c:	ebfff81c 	bl	40000304 <uart_getc>
40002290:	e3500024 	cmp	r0, #36	; 0x24
40002294:	1afffffc 	bne	4000228c <gdb+0x2c>
40002298:	e3a06000 	mov	r6, #0
4000229c:	e1a08006 	mov	r8, r6
400022a0:	e1a07006 	mov	r7, r6
400022a4:	ebfff816 	bl	40000304 <uart_getc>
400022a8:	e3570000 	cmp	r7, #0
400022ac:	e2203020 	eor	r3, r0, #32
400022b0:	1a00000e 	bne	400022f0 <gdb+0x90>
400022b4:	e3500024 	cmp	r0, #36	; 0x24
400022b8:	0a000011 	beq	40002304 <gdb+0xa4>
400022bc:	e3500023 	cmp	r0, #35	; 0x23
400022c0:	0a000015 	beq	4000231c <gdb+0xbc>
400022c4:	e350007d 	cmp	r0, #125	; 0x7d
400022c8:	0a000010 	beq	40002310 <gdb+0xb0>
400022cc:	e7c40006 	strb	r0, [r4, r6]
400022d0:	e0888000 	add	r8, r8, r0
400022d4:	e2866001 	add	r6, r6, #1
400022d8:	e156000a 	cmp	r6, sl
400022dc:	dafffff0 	ble	400022a4 <gdb+0x44>
400022e0:	e3500023 	cmp	r0, #35	; 0x23
400022e4:	e7c49006 	strb	r9, [r4, r6]
400022e8:	1affffe7 	bne	4000228c <gdb+0x2c>
400022ec:	ea00000b 	b	40002320 <gdb+0xc0>
400022f0:	e7c43006 	strb	r3, [r4, r6]
400022f4:	e0888000 	add	r8, r8, r0
400022f8:	e2866001 	add	r6, r6, #1
400022fc:	e3a07000 	mov	r7, #0
40002300:	eafffff4 	b	400022d8 <gdb+0x78>
40002304:	e1a06007 	mov	r6, r7
40002308:	e1a08007 	mov	r8, r7
4000230c:	eaffffe4 	b	400022a4 <gdb+0x44>
40002310:	e288807d 	add	r8, r8, #125	; 0x7d
40002314:	e3a07001 	mov	r7, #1
40002318:	eaffffee 	b	400022d8 <gdb+0x78>
4000231c:	e7c47006 	strb	r7, [r4, r6]
40002320:	ebfff7f7 	bl	40000304 <uart_getc>
40002324:	ebffff0a 	bl	40001f54 <hex>
40002328:	e1a06200 	lsl	r6, r0, #4
4000232c:	e6ef8078 	uxtb	r8, r8
40002330:	ebfff7f3 	bl	40000304 <uart_getc>
40002334:	ebffff06 	bl	40001f54 <hex>
40002338:	e0860000 	add	r0, r6, r0
4000233c:	e1500008 	cmp	r0, r8
40002340:	e3a00000 	mov	r0, #0
40002344:	0a000006 	beq	40002364 <gdb+0x104>
40002348:	ebfff768 	bl	400000f0 <set_uart_mode>
4000234c:	e3a0002d 	mov	r0, #45	; 0x2d
40002350:	ebfff7ae 	bl	40000210 <uart_putc>
40002354:	f57ff04f 	dsb	sy
40002358:	e3a00001 	mov	r0, #1
4000235c:	ebfff763 	bl	400000f0 <set_uart_mode>
40002360:	eaffffc9 	b	4000228c <gdb+0x2c>
40002364:	ebfff761 	bl	400000f0 <set_uart_mode>
40002368:	e3a0002b 	mov	r0, #43	; 0x2b
4000236c:	ebfff7a7 	bl	40000210 <uart_putc>
40002370:	f57ff04f 	dsb	sy
40002374:	e3a00001 	mov	r0, #1
40002378:	ebfff75c 	bl	400000f0 <set_uart_mode>
4000237c:	f57ff04f 	dsb	sy
40002380:	e3a00000 	mov	r0, #0
40002384:	ebfff759 	bl	400000f0 <set_uart_mode>
40002388:	e5d43000 	ldrb	r3, [r4]
4000238c:	e243303f 	sub	r3, r3, #63	; 0x3f
40002390:	e3530034 	cmp	r3, #52	; 0x34
40002394:	979ff103 	ldrls	pc, [pc, r3, lsl #2]
40002398:	ea0000cf 	b	400026dc <gdb+0x47c>
4000239c:	40002690 	mulmi	r0, r0, r6
400023a0:	400026dc 	ldrdmi	r2, [r0], -ip
400023a4:	400026dc 	ldrdmi	r2, [r0], -ip
400023a8:	400026dc 	ldrdmi	r2, [r0], -ip
400023ac:	400026dc 	ldrdmi	r2, [r0], -ip
400023b0:	400026dc 	ldrdmi	r2, [r0], -ip
400023b4:	400026dc 	ldrdmi	r2, [r0], -ip
400023b8:	400026dc 	ldrdmi	r2, [r0], -ip
400023bc:	400024b0 			; <UNDEFINED> instruction: 0x400024b0
400023c0:	4000265c 	andmi	r2, r0, ip, asr r6
400023c4:	400026dc 	ldrdmi	r2, [r0], -ip
400023c8:	400026dc 	ldrdmi	r2, [r0], -ip
400023cc:	400026dc 	ldrdmi	r2, [r0], -ip
400023d0:	400026dc 	ldrdmi	r2, [r0], -ip
400023d4:	400024c8 	andmi	r2, r0, r8, asr #9
400023d8:	400026dc 	ldrdmi	r2, [r0], -ip
400023dc:	400026dc 	ldrdmi	r2, [r0], -ip
400023e0:	400024b0 			; <UNDEFINED> instruction: 0x400024b0
400023e4:	400026dc 	ldrdmi	r2, [r0], -ip
400023e8:	400026dc 	ldrdmi	r2, [r0], -ip
400023ec:	400026dc 	ldrdmi	r2, [r0], -ip
400023f0:	400026dc 	ldrdmi	r2, [r0], -ip
400023f4:	400026dc 	ldrdmi	r2, [r0], -ip
400023f8:	400026dc 	ldrdmi	r2, [r0], -ip
400023fc:	400026dc 	ldrdmi	r2, [r0], -ip
40002400:	400026dc 	ldrdmi	r2, [r0], -ip
40002404:	400026dc 	ldrdmi	r2, [r0], -ip
40002408:	400026dc 	ldrdmi	r2, [r0], -ip
4000240c:	400026dc 	ldrdmi	r2, [r0], -ip
40002410:	400026dc 	ldrdmi	r2, [r0], -ip
40002414:	400026dc 	ldrdmi	r2, [r0], -ip
40002418:	400026dc 	ldrdmi	r2, [r0], -ip
4000241c:	400026dc 	ldrdmi	r2, [r0], -ip
40002420:	400026dc 	ldrdmi	r2, [r0], -ip
40002424:	400026dc 	ldrdmi	r2, [r0], -ip
40002428:	400026dc 	ldrdmi	r2, [r0], -ip
4000242c:	4000264c 	andmi	r2, r0, ip, asr #12
40002430:	400026dc 	ldrdmi	r2, [r0], -ip
40002434:	400026dc 	ldrdmi	r2, [r0], -ip
40002438:	400026dc 	ldrdmi	r2, [r0], -ip
4000243c:	400025a8 	andmi	r2, r0, r8, lsr #11
40002440:	400026dc 	ldrdmi	r2, [r0], -ip
40002444:	400026dc 	ldrdmi	r2, [r0], -ip
40002448:	400026dc 	ldrdmi	r2, [r0], -ip
4000244c:	4000258c 	andmi	r2, r0, ip, lsl #11
40002450:	400026dc 	ldrdmi	r2, [r0], -ip
40002454:	4000257c 	andmi	r2, r0, ip, ror r5
40002458:	400026dc 	ldrdmi	r2, [r0], -ip
4000245c:	400026dc 	ldrdmi	r2, [r0], -ip
40002460:	40002470 	andmi	r2, r0, r0, ror r4
40002464:	4000266c 	andmi	r2, r0, ip, ror #12
40002468:	400026dc 	ldrdmi	r2, [r0], -ip
4000246c:	400024b0 			; <UNDEFINED> instruction: 0x400024b0
40002470:	e28d0008 	add	r0, sp, #8
40002474:	e28d104c 	add	r1, sp, #76	; 0x4c
40002478:	eb000277 	bl	40002e5c <get_general_reg>
4000247c:	e59f0314 	ldr	r0, [pc, #788]	; 40002798 <gdb+0x538>
40002480:	e28d2048 	add	r2, sp, #72	; 0x48
40002484:	e59f1310 	ldr	r1, [pc, #784]	; 4000279c <gdb+0x53c>
40002488:	ebfff914 	bl	400008e0 <sscanf>
4000248c:	e3500001 	cmp	r0, #1
40002490:	0a000094 	beq	400026e8 <gdb+0x488>
40002494:	e3a03030 	mov	r3, #48	; 0x30
40002498:	e3a02045 	mov	r2, #69	; 0x45
4000249c:	e5c53001 	strb	r3, [r5, #1]
400024a0:	e5c53002 	strb	r3, [r5, #2]
400024a4:	e3a03000 	mov	r3, #0
400024a8:	e5c52000 	strb	r2, [r5]
400024ac:	e5c53003 	strb	r3, [r5, #3]
400024b0:	f57ff04f 	dsb	sy
400024b4:	f57ff06f 	isb	sy
400024b8:	e59f02d4 	ldr	r0, [pc, #724]	; 40002794 <gdb+0x534>
400024bc:	ebfffec1 	bl	40001fc8 <put_packet>
400024c0:	f57ff04f 	dsb	sy
400024c4:	eaffff6c 	b	4000227c <gdb+0x1c>
400024c8:	e3e0c000 	mvn	ip, #0
400024cc:	e59f02c4 	ldr	r0, [pc, #708]	; 40002798 <gdb+0x538>
400024d0:	e28d2050 	add	r2, sp, #80	; 0x50
400024d4:	e59f12c4 	ldr	r1, [pc, #708]	; 400027a0 <gdb+0x540>
400024d8:	e28d3054 	add	r3, sp, #84	; 0x54
400024dc:	e58dc04c 	str	ip, [sp, #76]	; 0x4c
400024e0:	e28dc04c 	add	ip, sp, #76	; 0x4c
400024e4:	e58dc000 	str	ip, [sp]
400024e8:	ebfff8fc 	bl	400008e0 <sscanf>
400024ec:	e59da04c 	ldr	sl, [sp, #76]	; 0x4c
400024f0:	e37a0001 	cmn	sl, #1
400024f4:	0affffe6 	beq	40002494 <gdb+0x234>
400024f8:	e59d8054 	ldr	r8, [sp, #84]	; 0x54
400024fc:	e3580000 	cmp	r8, #0
40002500:	0a000011 	beq	4000254c <gdb+0x2ec>
40002504:	e3a070ff 	mov	r7, #255	; 0xff
40002508:	e084900a 	add	r9, r4, sl
4000250c:	e3447ec0 	movt	r7, #20160	; 0x4ec0
40002510:	e3a060ff 	mov	r6, #255	; 0xff
40002514:	e1a0a009 	mov	sl, r9
40002518:	e0887007 	add	r7, r8, r7
4000251c:	e2899002 	add	r9, r9, #2
40002520:	e3446ec0 	movt	r6, #20160	; 0x4ec0
40002524:	e5da0001 	ldrb	r0, [sl, #1]
40002528:	e28aa002 	add	sl, sl, #2
4000252c:	ebfffe88 	bl	40001f54 <hex>
40002530:	e1a0b000 	mov	fp, r0
40002534:	e4d90002 	ldrb	r0, [r9], #2
40002538:	ebfffe85 	bl	40001f54 <hex>
4000253c:	e080020b 	add	r0, r0, fp, lsl #4
40002540:	e5e60001 	strb	r0, [r6, #1]!
40002544:	e1560007 	cmp	r6, r7
40002548:	1afffff5 	bne	40002524 <gdb+0x2c4>
4000254c:	e1a00008 	mov	r0, r8
40002550:	e59d1050 	ldr	r1, [sp, #80]	; 0x50
40002554:	eb000237 	bl	40002e38 <send_monitoring_data>
40002558:	e30d3fff 	movw	r3, #57343	; 0xdfff
4000255c:	e3433fff 	movt	r3, #16383	; 0x3fff
40002560:	e5133fcf 	ldr	r3, [r3, #-4047]	; 0xfcf
40002564:	f57ff04f 	dsb	sy
40002568:	f57ff06f 	isb	sy
4000256c:	e59f1230 	ldr	r1, [pc, #560]	; 400027a4 <gdb+0x544>
40002570:	e59f021c 	ldr	r0, [pc, #540]	; 40002794 <gdb+0x534>
40002574:	ebfffa6a 	bl	40000f24 <strcpy>
40002578:	eaffffcc 	b	400024b0 <gdb+0x250>
4000257c:	e59f0214 	ldr	r0, [pc, #532]	; 40002798 <gdb+0x538>
40002580:	e59f120c 	ldr	r1, [pc, #524]	; 40002794 <gdb+0x534>
40002584:	ebfffebf 	bl	40002088 <cmd_get_memory>
40002588:	eaffffc8 	b	400024b0 <gdb+0x250>
4000258c:	e3a00000 	mov	r0, #0
40002590:	ebfff6d6 	bl	400000f0 <set_uart_mode>
40002594:	e30d3fff 	movw	r3, #57343	; 0xdfff
40002598:	e3433fff 	movt	r3, #16383	; 0x3fff
4000259c:	e5133ffb 	ldr	r3, [r3, #-4091]	; 0xffb
400025a0:	e28dd05c 	add	sp, sp, #92	; 0x5c
400025a4:	e8bd8ff0 	pop	{r4, r5, r6, r7, r8, r9, sl, fp, pc}
400025a8:	e28d0008 	add	r0, sp, #8
400025ac:	e28d104c 	add	r1, sp, #76	; 0x4c
400025b0:	e59f71dc 	ldr	r7, [pc, #476]	; 40002794 <gdb+0x534>
400025b4:	e3a06000 	mov	r6, #0
400025b8:	eb000227 	bl	40002e5c <get_general_reg>
400025bc:	e28d2058 	add	r2, sp, #88	; 0x58
400025c0:	e1a00007 	mov	r0, r7
400025c4:	e0823106 	add	r3, r2, r6, lsl #2
400025c8:	e2866001 	add	r6, r6, #1
400025cc:	e2877008 	add	r7, r7, #8
400025d0:	e5131044 	ldr	r1, [r3, #-68]	; 0x44
400025d4:	ebfffe4d 	bl	40001f10 <hex_word>
400025d8:	e356000d 	cmp	r6, #13
400025dc:	1afffff6 	bne	400025bc <gdb+0x35c>
400025e0:	e59f71c0 	ldr	r7, [pc, #448]	; 400027a8 <gdb+0x548>
400025e4:	e59d104c 	ldr	r1, [sp, #76]	; 0x4c
400025e8:	e2470098 	sub	r0, r7, #152	; 0x98
400025ec:	e2476080 	sub	r6, r7, #128	; 0x80
400025f0:	ebfffe46 	bl	40001f10 <hex_word>
400025f4:	e2470090 	sub	r0, r7, #144	; 0x90
400025f8:	e59d1010 	ldr	r1, [sp, #16]
400025fc:	ebfffe43 	bl	40001f10 <hex_word>
40002600:	e2470088 	sub	r0, r7, #136	; 0x88
40002604:	e59d100c 	ldr	r1, [sp, #12]
40002608:	ebfffe40 	bl	40001f10 <hex_word>
4000260c:	e3a02010 	mov	r2, #16
40002610:	e1a00006 	mov	r0, r6
40002614:	e3a01030 	mov	r1, #48	; 0x30
40002618:	e0866002 	add	r6, r6, r2
4000261c:	ebfffa38 	bl	40000f04 <memset>
40002620:	e1560007 	cmp	r6, r7
40002624:	1afffff8 	bne	4000260c <gdb+0x3ac>
40002628:	e59f0178 	ldr	r0, [pc, #376]	; 400027a8 <gdb+0x548>
4000262c:	e3a01000 	mov	r1, #0
40002630:	ebfffe36 	bl	40001f10 <hex_word>
40002634:	e59f0170 	ldr	r0, [pc, #368]	; 400027ac <gdb+0x54c>
40002638:	e59d1008 	ldr	r1, [sp, #8]
4000263c:	ebfffe33 	bl	40001f10 <hex_word>
40002640:	e3a03000 	mov	r3, #0
40002644:	e5c53110 	strb	r3, [r5, #272]	; 0x110
40002648:	eaffff98 	b	400024b0 <gdb+0x250>
4000264c:	e30d3fff 	movw	r3, #57343	; 0xdfff
40002650:	e3433fff 	movt	r3, #16383	; 0x3fff
40002654:	e5133ffb 	ldr	r3, [r3, #-4091]	; 0xffb
40002658:	eaffff07 	b	4000227c <gdb+0x1c>
4000265c:	e59f1140 	ldr	r1, [pc, #320]	; 400027a4 <gdb+0x544>
40002660:	e59f012c 	ldr	r0, [pc, #300]	; 40002794 <gdb+0x534>
40002664:	ebfffa2e 	bl	40000f24 <strcpy>
40002668:	eaffff90 	b	400024b0 <gdb+0x250>
4000266c:	e59f013c 	ldr	r0, [pc, #316]	; 400027b0 <gdb+0x550>
40002670:	e59f1118 	ldr	r1, [pc, #280]	; 40002790 <gdb+0x530>
40002674:	ebfffa91 	bl	400010c0 <strcmp>
40002678:	e3500000 	cmp	r0, #0
4000267c:	1a00000c 	bne	400026b4 <gdb+0x454>
40002680:	e59f112c 	ldr	r1, [pc, #300]	; 400027b4 <gdb+0x554>
40002684:	e59f0108 	ldr	r0, [pc, #264]	; 40002794 <gdb+0x534>
40002688:	ebfffa25 	bl	40000f24 <strcpy>
4000268c:	eaffff87 	b	400024b0 <gdb+0x250>
40002690:	e3a03053 	mov	r3, #83	; 0x53
40002694:	e5c53000 	strb	r3, [r5]
40002698:	e3a03030 	mov	r3, #48	; 0x30
4000269c:	e5c53001 	strb	r3, [r5, #1]
400026a0:	e3a03035 	mov	r3, #53	; 0x35
400026a4:	e5c53002 	strb	r3, [r5, #2]
400026a8:	e3a03000 	mov	r3, #0
400026ac:	e5c53003 	strb	r3, [r5, #3]
400026b0:	eaffff7e 	b	400024b0 <gdb+0x250>
400026b4:	e59f00fc 	ldr	r0, [pc, #252]	; 400027b8 <gdb+0x558>
400026b8:	e59f10d0 	ldr	r1, [pc, #208]	; 40002790 <gdb+0x530>
400026bc:	ebfffa7f 	bl	400010c0 <strcmp>
400026c0:	e3500000 	cmp	r0, #0
400026c4:	0affffe4 	beq	4000265c <gdb+0x3fc>
400026c8:	e59f00ec 	ldr	r0, [pc, #236]	; 400027bc <gdb+0x55c>
400026cc:	e59f10bc 	ldr	r1, [pc, #188]	; 40002790 <gdb+0x530>
400026d0:	ebfffa7a 	bl	400010c0 <strcmp>
400026d4:	e3500000 	cmp	r0, #0
400026d8:	0a000023 	beq	4000276c <gdb+0x50c>
400026dc:	e3a03000 	mov	r3, #0
400026e0:	e5c53000 	strb	r3, [r5]
400026e4:	eaffff71 	b	400024b0 <gdb+0x250>
400026e8:	e59d3048 	ldr	r3, [sp, #72]	; 0x48
400026ec:	e353000f 	cmp	r3, #15
400026f0:	8a000014 	bhi	40002748 <gdb+0x4e8>
400026f4:	e353000c 	cmp	r3, #12
400026f8:	da00000c 	ble	40002730 <gdb+0x4d0>
400026fc:	e353000e 	cmp	r3, #14
40002700:	e59f008c 	ldr	r0, [pc, #140]	; 40002794 <gdb+0x534>
40002704:	0a000015 	beq	40002760 <gdb+0x500>
40002708:	e353000f 	cmp	r3, #15
4000270c:	0a000004 	beq	40002724 <gdb+0x4c4>
40002710:	e59d104c 	ldr	r1, [sp, #76]	; 0x4c
40002714:	ebfffdfd 	bl	40001f10 <hex_word>
40002718:	e3a03000 	mov	r3, #0
4000271c:	e5c53008 	strb	r3, [r5, #8]
40002720:	eaffff62 	b	400024b0 <gdb+0x250>
40002724:	e59d100c 	ldr	r1, [sp, #12]
40002728:	ebfffdf8 	bl	40001f10 <hex_word>
4000272c:	eafffff9 	b	40002718 <gdb+0x4b8>
40002730:	e28d2058 	add	r2, sp, #88	; 0x58
40002734:	e59f0058 	ldr	r0, [pc, #88]	; 40002794 <gdb+0x534>
40002738:	e0823103 	add	r3, r2, r3, lsl #2
4000273c:	e5131044 	ldr	r1, [r3, #-68]	; 0x44
40002740:	ebfffdf2 	bl	40001f10 <hex_word>
40002744:	eafffff3 	b	40002718 <gdb+0x4b8>
40002748:	e3530019 	cmp	r3, #25
4000274c:	e59f0040 	ldr	r0, [pc, #64]	; 40002794 <gdb+0x534>
40002750:	0a000009 	beq	4000277c <gdb+0x51c>
40002754:	e3a01000 	mov	r1, #0
40002758:	ebfffdec 	bl	40001f10 <hex_word>
4000275c:	eaffffed 	b	40002718 <gdb+0x4b8>
40002760:	e59d1010 	ldr	r1, [sp, #16]
40002764:	ebfffde9 	bl	40001f10 <hex_word>
40002768:	eaffffea 	b	40002718 <gdb+0x4b8>
4000276c:	e59f104c 	ldr	r1, [pc, #76]	; 400027c0 <gdb+0x560>
40002770:	e59f001c 	ldr	r0, [pc, #28]	; 40002794 <gdb+0x534>
40002774:	ebfff9ea 	bl	40000f24 <strcpy>
40002778:	eaffff4c 	b	400024b0 <gdb+0x250>
4000277c:	e59d1008 	ldr	r1, [sp, #8]
40002780:	ebfffde2 	bl	40001f10 <hex_word>
40002784:	e3a03000 	mov	r3, #0
40002788:	e5c53008 	strb	r3, [r5, #8]
4000278c:	eaffff47 	b	400024b0 <gdb+0x250>
40002790:	40003bc4 	andmi	r3, r0, r4, asr #23
40002794:	40003fc4 	andmi	r3, r0, r4, asr #31
40002798:	40003bc5 	andmi	r3, r0, r5, asr #23
4000279c:	400037f8 	strdmi	r3, [r0], -r8
400027a0:	400037fc 	strdmi	r3, [r0], -ip
400027a4:	40003808 	andmi	r3, r0, r8, lsl #16
400027a8:	400040c4 	andmi	r4, r0, r4, asr #1
400027ac:	400040cc 	andmi	r4, r0, ip, asr #1
400027b0:	4000380c 	andmi	r3, r0, ip, lsl #16
400027b4:	40003824 	andmi	r3, r0, r4, lsr #16
400027b8:	40003834 	andmi	r3, r0, r4, lsr r8
400027bc:	40003840 	andmi	r3, r0, r0, asr #16
400027c0:	4000384c 	andmi	r3, r0, ip, asr #16

400027c4 <symbol_binary_search>:
400027c4:	e1520003 	cmp	r2, r3
400027c8:	e92d0030 	push	{r4, r5}
400027cc:	e1a0c000 	mov	ip, r0
400027d0:	da000005 	ble	400027ec <symbol_binary_search+0x28>
400027d4:	ea00000e 	b	40002814 <symbol_binary_search+0x50>
400027d8:	e1510004 	cmp	r1, r4
400027dc:	82802001 	addhi	r2, r0, #1
400027e0:	92403001 	subls	r3, r0, #1
400027e4:	e1530002 	cmp	r3, r2
400027e8:	ba00000b 	blt	4000281c <symbol_binary_search+0x58>
400027ec:	e0930002 	adds	r0, r3, r2
400027f0:	42800001 	addmi	r0, r0, #1
400027f4:	e1a000c0 	asr	r0, r0, #1
400027f8:	e1a05180 	lsl	r5, r0, #3
400027fc:	e0604005 	rsb	r4, r0, r5
40002800:	e79c4184 	ldr	r4, [ip, r4, lsl #3]
40002804:	e1540001 	cmp	r4, r1
40002808:	1afffff2 	bne	400027d8 <symbol_binary_search+0x14>
4000280c:	e8bd0030 	pop	{r4, r5}
40002810:	e12fff1e 	bx	lr
40002814:	e3a00000 	mov	r0, #0
40002818:	e1a05180 	lsl	r5, r0, #3
4000281c:	e0605005 	rsb	r5, r0, r5
40002820:	e79c3185 	ldr	r3, [ip, r5, lsl #3]
40002824:	e1510003 	cmp	r1, r3
40002828:	32400001 	subcc	r0, r0, #1
4000282c:	eafffff6 	b	4000280c <symbol_binary_search+0x48>

40002830 <number_symbol>:
40002830:	e92d40f0 	push	{r4, r5, r6, r7, lr}
40002834:	e3a06000 	mov	r6, #0
40002838:	e24dd06c 	sub	sp, sp, #108	; 0x6c
4000283c:	e59f50c8 	ldr	r5, [pc, #200]	; 4000290c <number_symbol+0xdc>
40002840:	e1a07006 	mov	r7, r6
40002844:	e28d4004 	add	r4, sp, #4
40002848:	ea000000 	b	40002850 <number_symbol+0x20>
4000284c:	e2855001 	add	r5, r5, #1
40002850:	e5d53000 	ldrb	r3, [r5]
40002854:	e3530020 	cmp	r3, #32
40002858:	1afffffb 	bne	4000284c <number_symbol+0x1c>
4000285c:	e5d53001 	ldrb	r3, [r5, #1]
40002860:	e3530074 	cmp	r3, #116	; 0x74
40002864:	0a000020 	beq	400028ec <number_symbol+0xbc>
40002868:	e3530054 	cmp	r3, #84	; 0x54
4000286c:	0a00001e 	beq	400028ec <number_symbol+0xbc>
40002870:	e5d52003 	ldrb	r2, [r5, #3]
40002874:	e2850003 	add	r0, r5, #3
40002878:	e352000d 	cmp	r2, #13
4000287c:	0a00001f 	beq	40002900 <number_symbol+0xd0>
40002880:	e352000a 	cmp	r2, #10
40002884:	0a00001d 	beq	40002900 <number_symbol+0xd0>
40002888:	e1a01000 	mov	r1, r0
4000288c:	e3a03000 	mov	r3, #0
40002890:	ea000001 	b	4000289c <number_symbol+0x6c>
40002894:	e352000a 	cmp	r2, #10
40002898:	0a000005 	beq	400028b4 <number_symbol+0x84>
4000289c:	e7c42003 	strb	r2, [r4, r3]
400028a0:	e5f12001 	ldrb	r2, [r1, #1]!
400028a4:	e2833001 	add	r3, r3, #1
400028a8:	e0805003 	add	r5, r0, r3
400028ac:	e352000d 	cmp	r2, #13
400028b0:	1afffff7 	bne	40002894 <number_symbol+0x64>
400028b4:	e28d2068 	add	r2, sp, #104	; 0x68
400028b8:	e1a00004 	mov	r0, r4
400028bc:	e59f104c 	ldr	r1, [pc, #76]	; 40002910 <number_symbol+0xe0>
400028c0:	e0823003 	add	r3, r2, r3
400028c4:	e5437064 	strb	r7, [r3, #-100]	; 0x64
400028c8:	ebfff9fc 	bl	400010c0 <strcmp>
400028cc:	e3500000 	cmp	r0, #0
400028d0:	1affffdd 	bne	4000284c <number_symbol+0x1c>
400028d4:	e59f0038 	ldr	r0, [pc, #56]	; 40002914 <number_symbol+0xe4>
400028d8:	e1a01006 	mov	r1, r6
400028dc:	ebfff798 	bl	40000744 <printH>
400028e0:	e1a00006 	mov	r0, r6
400028e4:	e28dd06c 	add	sp, sp, #108	; 0x6c
400028e8:	e8bd80f0 	pop	{r4, r5, r6, r7, pc}
400028ec:	e5d52003 	ldrb	r2, [r5, #3]
400028f0:	e2866001 	add	r6, r6, #1
400028f4:	e2850003 	add	r0, r5, #3
400028f8:	e352000d 	cmp	r2, #13
400028fc:	1affffdf 	bne	40002880 <number_symbol+0x50>
40002900:	e1a05000 	mov	r5, r0
40002904:	e3a03000 	mov	r3, #0
40002908:	eaffffe9 	b	400028b4 <number_symbol+0x84>
4000290c:	40d00000 	sbcsmi	r0, r0, r0
40002910:	40003860 	andmi	r3, r0, r0, ror #16
40002914:	40003868 	andmi	r3, r0, r8, ror #16

40002918 <symbol_parser_init>:
40002918:	e92d4ff0 	push	{r4, r5, r6, r7, r8, r9, sl, fp, lr}
4000291c:	e3a06000 	mov	r6, #0
40002920:	e59f7134 	ldr	r7, [pc, #308]	; 40002a5c <symbol_parser_init+0x144>
40002924:	e24dd074 	sub	sp, sp, #116	; 0x74
40002928:	e1a09006 	mov	r9, r6
4000292c:	e59f412c 	ldr	r4, [pc, #300]	; 40002a60 <symbol_parser_init+0x148>
40002930:	e28d5064 	add	r5, sp, #100	; 0x64
40002934:	e1a08006 	mov	r8, r6
40002938:	e1a0b007 	mov	fp, r7
4000293c:	e5d42000 	ldrb	r2, [r4]
40002940:	e3520020 	cmp	r2, #32
40002944:	0a00003d 	beq	40002a40 <symbol_parser_init+0x128>
40002948:	e1a01004 	mov	r1, r4
4000294c:	e3a03000 	mov	r3, #0
40002950:	e7c52003 	strb	r2, [r5, r3]
40002954:	e5f12001 	ldrb	r2, [r1, #1]!
40002958:	e2833001 	add	r3, r3, #1
4000295c:	e084a003 	add	sl, r4, r3
40002960:	e3520020 	cmp	r2, #32
40002964:	1afffff9 	bne	40002950 <symbol_parser_init+0x38>
40002968:	e28d1070 	add	r1, sp, #112	; 0x70
4000296c:	e1a00005 	mov	r0, r5
40002970:	e0813003 	add	r3, r1, r3
40002974:	e28a4003 	add	r4, sl, #3
40002978:	e543800c 	strb	r8, [r3, #-12]
4000297c:	ebfffa37 	bl	40001260 <arm_hexstr2uint>
40002980:	e5da2003 	ldrb	r2, [sl, #3]
40002984:	e0663009 	rsb	r3, r6, r9
40002988:	e5dac001 	ldrb	ip, [sl, #1]
4000298c:	e0871183 	add	r1, r7, r3, lsl #3
40002990:	e7870183 	str	r0, [r7, r3, lsl #3]
40002994:	e352000d 	cmp	r2, #13
40002998:	e5c1c004 	strb	ip, [r1, #4]
4000299c:	0a00002c 	beq	40002a54 <symbol_parser_init+0x13c>
400029a0:	e352000a 	cmp	r2, #10
400029a4:	0a00002a 	beq	40002a54 <symbol_parser_init+0x13c>
400029a8:	e1a00004 	mov	r0, r4
400029ac:	e3a03000 	mov	r3, #0
400029b0:	ea000001 	b	400029bc <symbol_parser_init+0xa4>
400029b4:	e352000a 	cmp	r2, #10
400029b8:	0a000007 	beq	400029dc <symbol_parser_init+0xc4>
400029bc:	e081c003 	add	ip, r1, r3
400029c0:	e7cd2003 	strb	r2, [sp, r3]
400029c4:	e2844001 	add	r4, r4, #1
400029c8:	e2833001 	add	r3, r3, #1
400029cc:	e5cc2005 	strb	r2, [ip, #5]
400029d0:	e5f02001 	ldrb	r2, [r0, #1]!
400029d4:	e352000d 	cmp	r2, #13
400029d8:	1afffff5 	bne	400029b4 <symbol_parser_init+0x9c>
400029dc:	e066a009 	rsb	sl, r6, r9
400029e0:	e28d1070 	add	r1, sp, #112	; 0x70
400029e4:	e1a0a18a 	lsl	sl, sl, #3
400029e8:	e0812003 	add	r2, r1, r3
400029ec:	e59f1070 	ldr	r1, [pc, #112]	; 40002a64 <symbol_parser_init+0x14c>
400029f0:	e1a0000d 	mov	r0, sp
400029f4:	e08a3003 	add	r3, sl, r3
400029f8:	e5428070 	strb	r8, [r2, #-112]	; 0x70
400029fc:	e2844001 	add	r4, r4, #1
40002a00:	e0873003 	add	r3, r7, r3
40002a04:	e5c38005 	strb	r8, [r3, #5]
40002a08:	ebfff9ac 	bl	400010c0 <strcmp>
40002a0c:	e3500000 	cmp	r0, #0
40002a10:	0a00000d 	beq	40002a4c <symbol_parser_init+0x134>
40002a14:	e08ba00a 	add	sl, fp, sl
40002a18:	e5da3004 	ldrb	r3, [sl, #4]
40002a1c:	e3530074 	cmp	r3, #116	; 0x74
40002a20:	0a000001 	beq	40002a2c <symbol_parser_init+0x114>
40002a24:	e3530054 	cmp	r3, #84	; 0x54
40002a28:	1affffc3 	bne	4000293c <symbol_parser_init+0x24>
40002a2c:	e5d42000 	ldrb	r2, [r4]
40002a30:	e2866001 	add	r6, r6, #1
40002a34:	e1a09186 	lsl	r9, r6, #3
40002a38:	e3520020 	cmp	r2, #32
40002a3c:	1affffc1 	bne	40002948 <symbol_parser_init+0x30>
40002a40:	e1a0a004 	mov	sl, r4
40002a44:	e3a03000 	mov	r3, #0
40002a48:	eaffffc6 	b	40002968 <symbol_parser_init+0x50>
40002a4c:	e28dd074 	add	sp, sp, #116	; 0x74
40002a50:	e8bd8ff0 	pop	{r4, r5, r6, r7, r8, r9, sl, fp, pc}
40002a54:	e3a03000 	mov	r3, #0
40002a58:	eaffffdf 	b	400029dc <symbol_parser_init+0xc4>
40002a5c:	400043c4 	andmi	r4, r0, r4, asr #7
40002a60:	40d00000 	sbcsmi	r0, r0, r0
40002a64:	40003860 	andmi	r3, r0, r0, ror #16

40002a68 <show_symbol>:
40002a68:	e59f3024 	ldr	r3, [pc, #36]	; 40002a94 <show_symbol+0x2c>
40002a6c:	e59f1024 	ldr	r1, [pc, #36]	; 40002a98 <show_symbol+0x30>
40002a70:	e59f0024 	ldr	r0, [pc, #36]	; 40002a9c <show_symbol+0x34>
40002a74:	e5932000 	ldr	r2, [r3]
40002a78:	e0622182 	rsb	r2, r2, r2, lsl #3
40002a7c:	e1a02182 	lsl	r2, r2, #3
40002a80:	e0813002 	add	r3, r1, r2
40002a84:	e7911002 	ldr	r1, [r1, r2]
40002a88:	e5d32004 	ldrb	r2, [r3, #4]
40002a8c:	e2833005 	add	r3, r3, #5
40002a90:	eafff72b 	b	40000744 <printH>
40002a94:	400fa588 	andmi	sl, pc, r8, lsl #11
40002a98:	400043c4 	andmi	r4, r0, r4, asr #7
40002a9c:	40003874 	andmi	r3, r0, r4, ror r8

40002aa0 <symbol_getter_from_va>:
40002aa0:	e59f30b0 	ldr	r3, [pc, #176]	; 40002b58 <symbol_getter_from_va+0xb8>
40002aa4:	e3a02000 	mov	r2, #0
40002aa8:	e92d40f0 	push	{r4, r5, r6, r7, lr}
40002aac:	e1a05000 	mov	r5, r0
40002ab0:	e59f40a4 	ldr	r4, [pc, #164]	; 40002b5c <symbol_getter_from_va+0xbc>
40002ab4:	e24dd01c 	sub	sp, sp, #28
40002ab8:	e1a06001 	mov	r6, r1
40002abc:	e1a01000 	mov	r1, r0
40002ac0:	e5933000 	ldr	r3, [r3]
40002ac4:	e1a00004 	mov	r0, r4
40002ac8:	e2433001 	sub	r3, r3, #1
40002acc:	ebffff3c 	bl	400027c4 <symbol_binary_search>
40002ad0:	e3700001 	cmn	r0, #1
40002ad4:	e1a07000 	mov	r7, r0
40002ad8:	0a00001a 	beq	40002b48 <symbol_getter_from_va+0xa8>
40002adc:	e0607180 	rsb	r7, r0, r0, lsl #3
40002ae0:	e1a00006 	mov	r0, r6
40002ae4:	e1a07187 	lsl	r7, r7, #3
40002ae8:	e0871004 	add	r1, r7, r4
40002aec:	e2811005 	add	r1, r1, #5
40002af0:	ebfff90b 	bl	40000f24 <strcpy>
40002af4:	e7973004 	ldr	r3, [r7, r4]
40002af8:	e1530005 	cmp	r3, r5
40002afc:	0a00000f 	beq	40002b40 <symbol_getter_from_va+0xa0>
40002b00:	e59f2058 	ldr	r2, [pc, #88]	; 40002b60 <symbol_getter_from_va+0xc0>
40002b04:	e8920003 	ldm	r2, {r0, r1}
40002b08:	e58d0010 	str	r0, [sp, #16]
40002b0c:	e28d0004 	add	r0, sp, #4
40002b10:	e1cd11b4 	strh	r1, [sp, #20]
40002b14:	e0631005 	rsb	r1, r3, r5
40002b18:	ebfff9fd 	bl	40001314 <arm_uint2hexstr>
40002b1c:	e28d1010 	add	r1, sp, #16
40002b20:	e1a00006 	mov	r0, r6
40002b24:	ebfff90e 	bl	40000f64 <strcat>
40002b28:	e1a00006 	mov	r0, r6
40002b2c:	e28d1004 	add	r1, sp, #4
40002b30:	ebfff90b 	bl	40000f64 <strcat>
40002b34:	e3a00000 	mov	r0, #0
40002b38:	e28dd01c 	add	sp, sp, #28
40002b3c:	e8bd80f0 	pop	{r4, r5, r6, r7, pc}
40002b40:	e3a00000 	mov	r0, #0
40002b44:	eafffffb 	b	40002b38 <symbol_getter_from_va+0x98>
40002b48:	e59f0014 	ldr	r0, [pc, #20]	; 40002b64 <symbol_getter_from_va+0xc4>
40002b4c:	ebfff6fc 	bl	40000744 <printH>
40002b50:	e1a00007 	mov	r0, r7
40002b54:	eafffff7 	b	40002b38 <symbol_getter_from_va+0x98>
40002b58:	400fa588 	andmi	sl, pc, r8, lsl #11
40002b5c:	400043c4 	andmi	r4, r0, r4, asr #7
40002b60:	40003890 	mulmi	r0, r0, r8
40002b64:	40003880 	andmi	r3, r0, r0, lsl #17

40002b68 <monitoring_handler>:
40002b68:	e92d45f0 	push	{r4, r5, r6, r7, r8, sl, lr}
40002b6c:	e24ddf45 	sub	sp, sp, #276	; 0x114
40002b70:	e59f4278 	ldr	r4, [pc, #632]	; 40002df0 <monitoring_handler+0x288>
40002b74:	e5d45000 	ldrb	r5, [r4]
40002b78:	e3550001 	cmp	r5, #1
40002b7c:	0a000055 	beq	40002cd8 <monitoring_handler+0x170>
40002b80:	e3550000 	cmp	r5, #0
40002b84:	1a000012 	bne	40002bd4 <monitoring_handler+0x6c>
40002b88:	e5d43018 	ldrb	r3, [r4, #24]
40002b8c:	e3530000 	cmp	r3, #0
40002b90:	0a00000d 	beq	40002bcc <monitoring_handler+0x64>
40002b94:	e28460fc 	add	r6, r4, #252	; 0xfc
40002b98:	e5b67004 	ldr	r7, [r6, #4]!
40002b9c:	e28d1008 	add	r1, sp, #8
40002ba0:	e2855001 	add	r5, r5, #1
40002ba4:	e1a00007 	mov	r0, r7
40002ba8:	ebffffbc 	bl	40002aa0 <symbol_getter_from_va>
40002bac:	e5963004 	ldr	r3, [r6, #4]
40002bb0:	e28d1008 	add	r1, sp, #8
40002bb4:	e1a02007 	mov	r2, r7
40002bb8:	e59f0234 	ldr	r0, [pc, #564]	; 40002df4 <monitoring_handler+0x28c>
40002bbc:	ebfff6e0 	bl	40000744 <printH>
40002bc0:	e5d43018 	ldrb	r3, [r4, #24]
40002bc4:	e1530005 	cmp	r3, r5
40002bc8:	cafffff2 	bgt	40002b98 <monitoring_handler+0x30>
40002bcc:	e28ddf45 	add	sp, sp, #276	; 0x114
40002bd0:	e8bd85f0 	pop	{r4, r5, r6, r7, r8, sl, pc}
40002bd4:	e3550002 	cmp	r5, #2
40002bd8:	0a000058 	beq	40002d40 <monitoring_handler+0x1d8>
40002bdc:	e3550003 	cmp	r5, #3
40002be0:	1afffff9 	bne	40002bcc <monitoring_handler+0x64>
40002be4:	e284601c 	add	r6, r4, #28
40002be8:	e28d50d0 	add	r5, sp, #208	; 0xd0
40002bec:	e594a020 	ldr	sl, [r4, #32]
40002bf0:	e8b6000f 	ldm	r6!, {r0, r1, r2, r3}
40002bf4:	e3a0c000 	mov	ip, #0
40002bf8:	e59f71f8 	ldr	r7, [pc, #504]	; 40002df8 <monitoring_handler+0x290>
40002bfc:	e8a5000f 	stmia	r5!, {r0, r1, r2, r3}
40002c00:	e1a08000 	mov	r8, r0
40002c04:	e8b6000f 	ldm	r6!, {r0, r1, r2, r3}
40002c08:	e8a5000f 	stmia	r5!, {r0, r1, r2, r3}
40002c0c:	e8b6000f 	ldm	r6!, {r0, r1, r2, r3}
40002c10:	e8a5000f 	stmia	r5!, {r0, r1, r2, r3}
40002c14:	e896000f 	ldm	r6, {r0, r1, r2, r3}
40002c18:	e885000f 	stm	r5, {r0, r1, r2, r3}
40002c1c:	e5878000 	str	r8, [r7]
40002c20:	e594307c 	ldr	r3, [r4, #124]	; 0x7c
40002c24:	e587a004 	str	sl, [r7, #4]
40002c28:	e5873008 	str	r3, [r7, #8]
40002c2c:	e28c2002 	add	r2, ip, #2
40002c30:	e28d0e11 	add	r0, sp, #272	; 0x110
40002c34:	e1a02102 	lsl	r2, r2, #2
40002c38:	e28cc001 	add	ip, ip, #1
40002c3c:	e35c000d 	cmp	ip, #13
40002c40:	e0801002 	add	r1, r0, r2
40002c44:	e0872002 	add	r2, r7, r2
40002c48:	e511103c 	ldr	r1, [r1, #-60]	; 0x3c
40002c4c:	e5821004 	str	r1, [r2, #4]
40002c50:	1afffff5 	bne	40002c2c <monitoring_handler+0xc4>
40002c54:	e59f21a0 	ldr	r2, [pc, #416]	; 40002dfc <monitoring_handler+0x294>
40002c58:	e594c078 	ldr	ip, [r4, #120]	; 0x78
40002c5c:	e59f119c 	ldr	r1, [pc, #412]	; 40002e00 <monitoring_handler+0x298>
40002c60:	e5922000 	ldr	r2, [r2]
40002c64:	e581c000 	str	ip, [r1]
40002c68:	e3520002 	cmp	r2, #2
40002c6c:	1affffd6 	bne	40002bcc <monitoring_handler+0x64>
40002c70:	e59f018c 	ldr	r0, [pc, #396]	; 40002e04 <monitoring_handler+0x29c>
40002c74:	e1a01008 	mov	r1, r8
40002c78:	e1a0200a 	mov	r2, sl
40002c7c:	e58dc000 	str	ip, [sp]
40002c80:	e3a04001 	mov	r4, #1
40002c84:	e3a05000 	mov	r5, #0
40002c88:	ebfff6ad 	bl	40000744 <printH>
40002c8c:	e59f0174 	ldr	r0, [pc, #372]	; 40002e08 <monitoring_handler+0x2a0>
40002c90:	ebfff6ab 	bl	40000744 <printH>
40002c94:	ea000003 	b	40002ca8 <monitoring_handler+0x140>
40002c98:	e3550000 	cmp	r5, #0
40002c9c:	1a00004d 	bne	40002dd8 <monitoring_handler+0x270>
40002ca0:	e2855001 	add	r5, r5, #1
40002ca4:	e2844001 	add	r4, r4, #1
40002ca8:	e0873105 	add	r3, r7, r5, lsl #2
40002cac:	e1a01005 	mov	r1, r5
40002cb0:	e59f0154 	ldr	r0, [pc, #340]	; 40002e0c <monitoring_handler+0x2a4>
40002cb4:	e593200c 	ldr	r2, [r3, #12]
40002cb8:	ebfff6a1 	bl	40000744 <printH>
40002cbc:	e3150003 	tst	r5, #3
40002cc0:	0afffff4 	beq	40002c98 <monitoring_handler+0x130>
40002cc4:	e354000d 	cmp	r4, #13
40002cc8:	1afffff4 	bne	40002ca0 <monitoring_handler+0x138>
40002ccc:	e59f013c 	ldr	r0, [pc, #316]	; 40002e10 <monitoring_handler+0x2a8>
40002cd0:	ebfff69b 	bl	40000744 <printH>
40002cd4:	eaffffbc 	b	40002bcc <monitoring_handler+0x64>
40002cd8:	e28d1008 	add	r1, sp, #8
40002cdc:	e5940004 	ldr	r0, [r4, #4]
40002ce0:	ebffff6e 	bl	40002aa0 <symbol_getter_from_va>
40002ce4:	e28d106c 	add	r1, sp, #108	; 0x6c
40002ce8:	e5940008 	ldr	r0, [r4, #8]
40002cec:	ebffff6b 	bl	40002aa0 <symbol_getter_from_va>
40002cf0:	e28d206c 	add	r2, sp, #108	; 0x6c
40002cf4:	e28d1008 	add	r1, sp, #8
40002cf8:	e59f0114 	ldr	r0, [pc, #276]	; 40002e14 <monitoring_handler+0x2ac>
40002cfc:	ebfff690 	bl	40000744 <printH>
40002d00:	e28d0008 	add	r0, sp, #8
40002d04:	e59f110c 	ldr	r1, [pc, #268]	; 40002e18 <monitoring_handler+0x2b0>
40002d08:	ebfff8ec 	bl	400010c0 <strcmp>
40002d0c:	e2502000 	subs	r2, r0, #0
40002d10:	1affffad 	bne	40002bcc <monitoring_handler+0x64>
40002d14:	e59f3100 	ldr	r3, [pc, #256]	; 40002e1c <monitoring_handler+0x2b4>
40002d18:	e5931000 	ldr	r1, [r3]
40002d1c:	e3510001 	cmp	r1, #1
40002d20:	1affffa9 	bne	40002bcc <monitoring_handler+0x64>
40002d24:	e5832000 	str	r2, [r3]
40002d28:	e59f00f0 	ldr	r0, [pc, #240]	; 40002e20 <monitoring_handler+0x2b8>
40002d2c:	ebfff684 	bl	40000744 <printH>
40002d30:	e59f00ec 	ldr	r0, [pc, #236]	; 40002e24 <monitoring_handler+0x2bc>
40002d34:	ebfff682 	bl	40000744 <printH>
40002d38:	ebfffb81 	bl	40001b44 <monitoring_reboot>
40002d3c:	eaffffa2 	b	40002bcc <monitoring_handler+0x64>
40002d40:	e59f30b4 	ldr	r3, [pc, #180]	; 40002dfc <monitoring_handler+0x294>
40002d44:	e5933000 	ldr	r3, [r3]
40002d48:	e3530002 	cmp	r3, #2
40002d4c:	1affff9e 	bne	40002bcc <monitoring_handler+0x64>
40002d50:	e5943010 	ldr	r3, [r4, #16]
40002d54:	e5948014 	ldr	r8, [r4, #20]
40002d58:	e1b03123 	lsrs	r3, r3, #2
40002d5c:	0affffda 	beq	40002ccc <monitoring_handler+0x164>
40002d60:	e59f70c0 	ldr	r7, [pc, #192]	; 40002e28 <monitoring_handler+0x2c0>
40002d64:	e2846c01 	add	r6, r4, #256	; 0x100
40002d68:	e1560007 	cmp	r6, r7
40002d6c:	8a00001c 	bhi	40002de4 <monitoring_handler+0x27c>
40002d70:	e3a03000 	mov	r3, #0
40002d74:	e1a05003 	mov	r5, r3
40002d78:	ea00000c 	b	40002db0 <monitoring_handler+0x248>
40002d7c:	e4961004 	ldr	r1, [r6], #4
40002d80:	e59f00a4 	ldr	r0, [pc, #164]	; 40002e2c <monitoring_handler+0x2c4>
40002d84:	ebfff66e 	bl	40000744 <printH>
40002d88:	e2053003 	and	r3, r5, #3
40002d8c:	e2855001 	add	r5, r5, #1
40002d90:	e3530003 	cmp	r3, #3
40002d94:	0a00000b 	beq	40002dc8 <monitoring_handler+0x260>
40002d98:	e5942010 	ldr	r2, [r4, #16]
40002d9c:	e1a03005 	mov	r3, r5
40002da0:	e1550122 	cmp	r5, r2, lsr #2
40002da4:	2affffc8 	bcs	40002ccc <monitoring_handler+0x164>
40002da8:	e1560007 	cmp	r6, r7
40002dac:	8a00000c 	bhi	40002de4 <monitoring_handler+0x27c>
40002db0:	e3130003 	tst	r3, #3
40002db4:	1afffff0 	bne	40002d7c <monitoring_handler+0x214>
40002db8:	e1a01008 	mov	r1, r8
40002dbc:	e59f006c 	ldr	r0, [pc, #108]	; 40002e30 <monitoring_handler+0x2c8>
40002dc0:	ebfff65f 	bl	40000744 <printH>
40002dc4:	eaffffec 	b	40002d7c <monitoring_handler+0x214>
40002dc8:	e59f0040 	ldr	r0, [pc, #64]	; 40002e10 <monitoring_handler+0x2a8>
40002dcc:	e2888010 	add	r8, r8, #16
40002dd0:	ebfff65b 	bl	40000744 <printH>
40002dd4:	eaffffef 	b	40002d98 <monitoring_handler+0x230>
40002dd8:	e59f0030 	ldr	r0, [pc, #48]	; 40002e10 <monitoring_handler+0x2a8>
40002ddc:	ebfff658 	bl	40000744 <printH>
40002de0:	eaffffb7 	b	40002cc4 <monitoring_handler+0x15c>
40002de4:	e59f0048 	ldr	r0, [pc, #72]	; 40002e34 <monitoring_handler+0x2cc>
40002de8:	ebfff655 	bl	40000744 <printH>
40002dec:	eaffff76 	b	40002bcc <monitoring_handler+0x64>
40002df0:	4ec00000 	cdpmi	0, 12, cr0, cr0, cr0, {0}
40002df4:	400038f0 	strdmi	r3, [r0], -r0
40002df8:	400fa548 	andmi	sl, pc, r8, asr #10
40002dfc:	40003bbc 			; <UNDEFINED> instruction: 0x40003bbc
40002e00:	400fa544 	andmi	sl, pc, r4, asr #10
40002e04:	40003950 	andmi	r3, r0, r0, asr r9
40002e08:	4000397c 	andmi	r3, r0, ip, ror r9
40002e0c:	40003990 	mulmi	r0, r0, r9
40002e10:	40003208 	andmi	r3, r0, r8, lsl #4
40002e14:	40003898 	mulmi	r0, r8, r8
40002e18:	400038a8 	andmi	r3, r0, r8, lsr #17
40002e1c:	400fa58c 	andmi	sl, pc, ip, lsl #11
40002e20:	400038b0 			; <UNDEFINED> instruction: 0x400038b0
40002e24:	400038d0 	ldrdmi	r3, [r0], -r0
40002e28:	4f000000 	svcmi	0x00000000
40002e2c:	40003948 	andmi	r3, r0, r8, asr #18
40002e30:	40003940 	andmi	r3, r0, r0, asr #18
40002e34:	40003928 	andmi	r3, r0, r8, lsr #18

40002e38 <send_monitoring_data>:
40002e38:	e3003000 	movw	r3, #0
40002e3c:	e3443ec0 	movt	r3, #20160	; 0x4ec0
40002e40:	e5830010 	str	r0, [r3, #16]
40002e44:	e5831014 	str	r1, [r3, #20]
40002e48:	e12fff1e 	bx	lr

40002e4c <set_recovery>:
40002e4c:	e30a358c 	movw	r3, #42380	; 0xa58c
40002e50:	e344300f 	movt	r3, #16399	; 0x400f
40002e54:	e5830000 	str	r0, [r3]
40002e58:	e12fff1e 	bx	lr

40002e5c <get_general_reg>:
40002e5c:	e92d4038 	push	{r3, r4, r5, lr}
40002e60:	e1a04000 	mov	r4, r0
40002e64:	e1a05001 	mov	r5, r1
40002e68:	ebfffb3e 	bl	40001b68 <monitoring_register>
40002e6c:	f57ff06f 	isb	sy
40002e70:	f57ff04f 	dsb	sy
40002e74:	e59fc04c 	ldr	ip, [pc, #76]	; 40002ec8 <get_general_reg+0x6c>
40002e78:	e3a03000 	mov	r3, #0
40002e7c:	e59c2000 	ldr	r2, [ip]
40002e80:	e5842000 	str	r2, [r4]
40002e84:	e59c2004 	ldr	r2, [ip, #4]
40002e88:	e5842004 	str	r2, [r4, #4]
40002e8c:	e59c2008 	ldr	r2, [ip, #8]
40002e90:	e5842008 	str	r2, [r4, #8]
40002e94:	e2832002 	add	r2, r3, #2
40002e98:	e2833001 	add	r3, r3, #1
40002e9c:	e1a02102 	lsl	r2, r2, #2
40002ea0:	e353000d 	cmp	r3, #13
40002ea4:	e08c0002 	add	r0, ip, r2
40002ea8:	e0842002 	add	r2, r4, r2
40002eac:	e5900004 	ldr	r0, [r0, #4]
40002eb0:	e5820004 	str	r0, [r2, #4]
40002eb4:	1afffff6 	bne	40002e94 <get_general_reg+0x38>
40002eb8:	e59f300c 	ldr	r3, [pc, #12]	; 40002ecc <get_general_reg+0x70>
40002ebc:	e5933000 	ldr	r3, [r3]
40002ec0:	e5853000 	str	r3, [r5]
40002ec4:	e8bd8038 	pop	{r3, r4, r5, pc}
40002ec8:	400fa548 	andmi	sl, pc, r8, asr #10
40002ecc:	400fa544 	andmi	sl, pc, r4, asr #10

40002ed0 <allset>:
40002ed0:	e92d40f8 	push	{r3, r4, r5, r6, r7, lr}
40002ed4:	e59f6034 	ldr	r6, [pc, #52]	; 40002f10 <allset+0x40>
40002ed8:	e5963000 	ldr	r3, [r6]
40002edc:	e3530000 	cmp	r3, #0
40002ee0:	08bd80f8 	popeq	{r3, r4, r5, r6, r7, pc}
40002ee4:	e59f7028 	ldr	r7, [pc, #40]	; 40002f14 <allset+0x44>
40002ee8:	e3a04000 	mov	r4, #0
40002eec:	e1a05004 	mov	r5, r4
40002ef0:	e7970004 	ldr	r0, [r7, r4]
40002ef4:	e2855001 	add	r5, r5, #1
40002ef8:	e2844038 	add	r4, r4, #56	; 0x38
40002efc:	ebfffb0b 	bl	40001b30 <monitoring_allset>
40002f00:	e5963000 	ldr	r3, [r6]
40002f04:	e1550003 	cmp	r5, r3
40002f08:	3afffff8 	bcc	40002ef0 <allset+0x20>
40002f0c:	e8bd80f8 	pop	{r3, r4, r5, r6, r7, pc}
40002f10:	400fa588 	andmi	sl, pc, r8, lsl #11
40002f14:	400043c4 	andmi	r4, r0, r4, asr #7

40002f18 <reboot>:
40002f18:	e3000000 	movw	r0, #0
40002f1c:	e30a1590 	movw	r1, #42384	; 0xa590
40002f20:	e3002000 	movw	r2, #0
40002f24:	e92d4008 	push	{r3, lr}
40002f28:	e347100f 	movt	r1, #28687	; 0x700f
40002f2c:	e3442000 	movt	r2, #16384	; 0x4000
40002f30:	e3470000 	movt	r0, #28672	; 0x7000
40002f34:	ebfffa78 	bl	4000191c <copy_image_to>
40002f38:	e303099c 	movw	r0, #14748	; 0x399c
40002f3c:	e3440000 	movt	r0, #16384	; 0x4000
40002f40:	ebfff4c1 	bl	4000024c <uart_print>
40002f44:	e3a00000 	mov	r0, #0
40002f48:	e8bd4008 	pop	{r3, lr}
40002f4c:	eafffa79 	b	40001938 <loader_boot_guest>

40002f50 <monitoring_init>:
40002f50:	e3021b68 	movw	r1, #11112	; 0x2b68
40002f54:	e92d4008 	push	{r3, lr}
40002f58:	e3a02000 	mov	r2, #0
40002f5c:	e3441000 	movt	r1, #16384	; 0x4000
40002f60:	e3a00014 	mov	r0, #20
40002f64:	ebfff934 	bl	4000143c <gic_set_irq_handler>
40002f68:	ebfffe30 	bl	40002830 <number_symbol>
40002f6c:	e30a3588 	movw	r3, #42376	; 0xa588
40002f70:	e344300f 	movt	r3, #16399	; 0x400f
40002f74:	e5830000 	str	r0, [r3]
40002f78:	e8bd4008 	pop	{r3, lr}
40002f7c:	eafffe65 	b	40002918 <symbol_parser_init>

40002f80 <get_guest_mode>:
40002f80:	e3033bbc 	movw	r3, #15292	; 0x3bbc
40002f84:	e3443000 	movt	r3, #16384	; 0x4000
40002f88:	e5930000 	ldr	r0, [r3]
40002f8c:	e12fff1e 	bx	lr

40002f90 <set_guest_mode>:
40002f90:	e3033bbc 	movw	r3, #15292	; 0x3bbc
40002f94:	e3443000 	movt	r3, #16384	; 0x4000
40002f98:	e5830000 	str	r0, [r3]
40002f9c:	e12fff1e 	bx	lr

Disassembly of section .text.startup:

40002fa0 <main>:
40002fa0:	e3500000 	cmp	r0, #0
40002fa4:	e52de004 	push	{lr}		; (str lr, [sp, #-4]!)
40002fa8:	e24ddf41 	sub	sp, sp, #260	; 0x104
40002fac:	1a000011 	bne	40002ff8 <main+0x58>
40002fb0:	ebfff4f9 	bl	4000039c <uart_init>
40002fb4:	ebfff92b 	bl	40001468 <gic_init>
40002fb8:	f1080080 	cpsie	i
40002fbc:	ebfff520 	bl	40000444 <timer_init>
40002fc0:	e59f3038 	ldr	r3, [pc, #56]	; 40003000 <main+0x60>
40002fc4:	e3a02000 	mov	r2, #0
40002fc8:	e59f0034 	ldr	r0, [pc, #52]	; 40003004 <main+0x64>
40002fcc:	e5832000 	str	r2, [r3]
40002fd0:	ebfff49d 	bl	4000024c <uart_print>
40002fd4:	ebfff516 	bl	40000434 <timer_disable>
40002fd8:	e59f0028 	ldr	r0, [pc, #40]	; 40003008 <main+0x68>
40002fdc:	ebfff49a 	bl	4000024c <uart_print>
40002fe0:	e1a0000d 	mov	r0, sp
40002fe4:	e3a01c01 	mov	r1, #256	; 0x100
40002fe8:	ebfff4d1 	bl	40000334 <uart_gets>
40002fec:	e1a0000d 	mov	r0, sp
40002ff0:	ebfffa7f 	bl	400019f4 <cli_exec_cmd>
40002ff4:	eafffff7 	b	40002fd8 <main+0x38>
40002ff8:	ebffffc6 	bl	40002f18 <reboot>
40002ffc:	eaffffeb 	b	40002fb0 <main+0x10>
40003000:	40003bc0 	andmi	r3, r0, r0, asr #23
40003004:	4000309c 	mulmi	r0, ip, r0
40003008:	4000320c 	andmi	r3, r0, ip, lsl #4

Disassembly of section .rodata:

4000300c <cmd_type_map_tbl>:
4000300c:	40003450 	andmi	r3, r0, r0, asr r4
40003010:	00000000 	andeq	r0, r0, r0
40003014:	40003458 	andmi	r3, r0, r8, asr r4
40003018:	00000001 	andeq	r0, r0, r1
4000301c:	40003460 	andmi	r3, r0, r0, ror #8
40003020:	00000002 	andeq	r0, r0, r2
40003024:	40003468 	andmi	r3, r0, r8, ror #8
40003028:	00000003 	andeq	r0, r0, r3

4000302c <monitoring_cmd_type_map_tbl>:
4000302c:	4000379c 	mulmi	r0, ip, r7
40003030:	00000000 	andeq	r0, r0, r0
40003034:	400037a0 	andmi	r3, r0, r0, lsr #15
40003038:	00000001 	andeq	r0, r0, r1
4000303c:	400037a4 	andmi	r3, r0, r4, lsr #15
40003040:	00000002 	andeq	r0, r0, r2
40003044:	400037a8 	andmi	r3, r0, r8, lsr #15
40003048:	00000003 	andeq	r0, r0, r3
4000304c:	400037ac 	andmi	r3, r0, ip, lsr #15
40003050:	00000004 	andeq	r0, r0, r4
40003054:	400037b0 			; <UNDEFINED> instruction: 0x400037b0
40003058:	00000005 	andeq	r0, r0, r5
4000305c:	400037b4 			; <UNDEFINED> instruction: 0x400037b4
40003060:	00000007 	andeq	r0, r0, r7
40003064:	400037b8 			; <UNDEFINED> instruction: 0x400037b8
40003068:	00000008 	andeq	r0, r0, r8
4000306c:	4000394c 	andmi	r3, r0, ip, asr #18
40003070:	00000009 	andeq	r0, r0, r9
40003074:	400037c0 	andmi	r3, r0, r0, asr #15
40003078:	0000000a 	andeq	r0, r0, sl
4000307c:	400037c4 	andmi	r3, r0, r4, asr #15
40003080:	0000000b 	andeq	r0, r0, fp
40003084:	400037c8 	andmi	r3, r0, r8, asr #15
40003088:	00000006 	andeq	r0, r0, r6
4000308c:	400037d0 	ldrdmi	r3, [r0], -r0
40003090:	0000000c 	andeq	r0, r0, ip
40003094:	400037d4 	ldrdmi	r3, [r0], -r4
40003098:	0000000d 	andeq	r0, r0, sp

Disassembly of section .rodata.str1.4:

4000309c <.rodata.str1.4>:
4000309c:	205f200a 	subscs	r2, pc, sl
400030a0:	205f5f20 	subscs	r5, pc, r0, lsr #30
400030a4:	20202020 	eorcs	r2, r0, r0, lsr #32
400030a8:	2020205f 	eorcs	r2, r0, pc, asr r0
400030ac:	205f5f5f 	subscs	r5, pc, pc, asr pc	; <UNPREDICTABLE>
400030b0:	5f5f2020 	svcpl	0x005f2020
400030b4:	5f5f5f5f 	svcpl	0x005f5f5f
400030b8:	5f5f2020 	svcpl	0x005f2020
400030bc:	205f5f5f 	subscs	r5, pc, pc, asr pc	; <UNPREDICTABLE>
400030c0:	5f5f5f5f 	svcpl	0x005f5f5f
400030c4:	20205f5f 	eorcs	r5, r0, pc, asr pc
400030c8:	5f202020 	svcpl	0x00202020
400030cc:	5f5f5f5f 	svcpl	0x005f5f5f
400030d0:	5f5f5f20 	svcpl	0x005f5f20
400030d4:	2020205f 	eorcs	r2, r0, pc, asr r0
400030d8:	205f5f5f 	subscs	r5, pc, pc, asr pc	; <UNPREDICTABLE>
400030dc:	5f5f5f20 	svcpl	0x005f5f20
400030e0:	0d20205f 	stceq	0, cr2, [r0, #-380]!	; 0xfffffe84
400030e4:	7c207c0a 	stcvc	12, cr7, [r0], #-40	; 0xffffffd8
400030e8:	202f202f 	eorcs	r2, pc, pc, lsr #32
400030ec:	7c202020 	stcvc	0, cr2, [r0], #-128	; 0xffffff80
400030f0:	7c207c20 	stcvc	12, cr7, [r0], #-128	; 0xffffff80
400030f4:	5c205c20 	stcpl	12, cr5, [r0], #-128	; 0xffffff80
400030f8:	2f202f20 	svccs	0x00202f20
400030fc:	205f2020 	subscs	r2, pc, r0, lsr #32
40003100:	5f207c5c 	svcpl	0x00207c5c
40003104:	7c5f5f5f 	mrrcvc	15, 5, r5, pc, cr15	; <UNPREDICTABLE>
40003108:	205f2020 	subscs	r2, pc, r0, lsr #32
4000310c:	205c205c 	subscs	r2, ip, ip, asr r0
40003110:	202f2020 	eorcs	r2, pc, r0, lsr #32
40003114:	5f205f2f 	svcpl	0x00205f2f
40003118:	5f5f202f 	svcpl	0x005f202f
4000311c:	2f207c5f 	svccs	0x00207c5f
40003120:	5c205f20 	stcpl	15, cr5, [r0], #-128	; 0xffffff80
40003124:	5f20207c 	svcpl	0x0020207c
40003128:	0d205c20 	stceq	12, cr5, [r0, #-128]!	; 0xffffff80
4000312c:	27207c0a 	strcs	r7, [r0, -sl, lsl #24]!
40003130:	5f5f2f20 	svcpl	0x005f2f20
40003134:	7c5f5f5f 	mrrcvc	15, 5, r5, pc, cr15	; <UNPREDICTABLE>
40003138:	7c5f7c20 	mrrcvc	12, 2, r7, pc, cr0	; <UNPREDICTABLE>
4000313c:	205c7c20 	subscs	r7, ip, r0, lsr #24
40003140:	7c2f2056 	stcvc	0, cr2, [pc], #-344	; 40002ff0 <main+0x50>
40003144:	295f7c20 	ldmdbcs	pc, {r5, sl, fp, ip, sp, lr}^	; <UNPREDICTABLE>
40003148:	20207c20 	eorcs	r7, r0, r0, lsr #24
4000314c:	7c207c5f 	stcvc	12, cr7, [r0], #-380	; 0xfffffe84
40003150:	295f7c20 	ldmdbcs	pc, {r5, sl, fp, ip, sp, lr}^	; <UNPREDICTABLE>
40003154:	5c205c20 	stcpl	12, cr5, [r0], #-128	; 0xffffff80
40003158:	2f202f20 	svccs	0x00202f20
4000315c:	7c207c20 	stcvc	12, cr7, [r0], #-128	; 0xffffff80
40003160:	5f5f5f5c 	svcpl	0x005f5f5c
40003164:	207c5c20 	rsbscs	r5, ip, r0, lsr #24
40003168:	207c207c 	rsbscs	r2, ip, ip, ror r0
4000316c:	5f7c207c 	svcpl	0x007c207c
40003170:	207c2029 	rsbscs	r2, ip, r9, lsr #32
40003174:	207c0a0d 	rsbscs	r0, ip, sp, lsl #20
40003178:	5f5c202e 	svcpl	0x005c202e
4000317c:	5f5f5f5f 	svcpl	0x005f5f5f
40003180:	5f20207c 	svcpl	0x0020207c
40003184:	207c2020 	rsbscs	r2, ip, r0, lsr #32
40003188:	207c207c 	rsbscs	r2, ip, ip, ror r0
4000318c:	5f20207c 	svcpl	0x0020207c
40003190:	207c2f5f 	rsbscs	r2, ip, pc, asr pc
40003194:	5f5f5f7c 	svcpl	0x005f5f7c
40003198:	5f20207c 	svcpl	0x0020207c
4000319c:	5c203c20 	stcpl	12, cr3, [r0], #-128	; 0xffffff80
400031a0:	2f205620 	svccs	0x00205620
400031a4:	207c2020 	rsbscs	r2, ip, r0, lsr #32
400031a8:	5f5f207c 	svcpl	0x005f207c
400031ac:	7c20295f 	stcvc	9, cr2, [r0], #-380	; 0xfffffe84
400031b0:	7c5f7c20 	mrrcvc	12, 2, r7, pc, cr0	; <UNPREDICTABLE>
400031b4:	20207c20 	eorcs	r7, r0, r0, lsr #24
400031b8:	203c205f 	eorscs	r2, ip, pc, asr r0
400031bc:	7c0a0d20 	stcvc	13, cr0, [sl], {32}
400031c0:	5f5c7c5f 	svcpl	0x005c7c5f
400031c4:	2020205c 	eorcs	r2, r0, ip, asr r0
400031c8:	7c5f7c20 	mrrcvc	12, 2, r7, pc, cr0	; <UNPREDICTABLE>
400031cc:	7c5f7c20 	mrrcvc	12, 2, r7, pc, cr0	; <UNPREDICTABLE>
400031d0:	7c5f7c20 	mrrcvc	12, 2, r7, pc, cr0	; <UNPREDICTABLE>
400031d4:	7c5f7c20 	mrrcvc	12, 2, r7, pc, cr0	; <UNPREDICTABLE>
400031d8:	7c202020 	stcvc	0, cr2, [r0], #-128	; 0xffffff80
400031dc:	5f5f5f5f 	svcpl	0x005f5f5f
400031e0:	7c5f7c5f 	mrrcvc	12, 5, r7, pc, cr15	; <UNPREDICTABLE>
400031e4:	5c5f5c20 	mrrcpl	12, 2, r5, pc, cr0	; <UNPREDICTABLE>
400031e8:	2f5f5c20 	svccs	0x005f5c20
400031ec:	5f7c2020 	svcpl	0x007c2020
400031f0:	5f7c5f5f 	svcpl	0x007c5f5f
400031f4:	2f5f5f5f 	svccs	0x005f5f5f
400031f8:	5f5f5c20 	svcpl	0x005f5c20
400031fc:	5f7c2f5f 	svcpl	0x007c2f5f
40003200:	5f5c207c 	svcpl	0x005c207c
40003204:	0a0d205c 	beq	4034b37c <end_bss+0x250dec>
40003208:	0000000a 	andeq	r0, r0, sl
4000320c:	6f6f626b 	svcvs	0x006f626b
40003210:	00202374 	eoreq	r2, r0, r4, ror r3
40003214:	00007830 	andeq	r7, r0, r0, lsr r8
40003218:	20746948 	rsbscs	r6, r4, r8, asr #18
4000321c:	20796e61 	rsbscs	r6, r9, r1, ror #28
40003220:	2079656b 	rsbscs	r6, r9, fp, ror #10
40003224:	73206f74 	teqvc	r0, #464	; 0x1d0
40003228:	20706f74 	rsbscs	r6, r0, r4, ror pc
4000322c:	6f747561 	svcvs	0x00747561
40003230:	746f6f62 	strbtvc	r6, [pc], #-3938	; 40003238 <monitoring_cmd_type_map_tbl+0x20c>
40003234:	00203a20 	eoreq	r3, r0, r0, lsr #20
40003238:	33323130 	teqcc	r2, #12
4000323c:	37363534 			; <UNDEFINED> instruction: 0x37363534
40003240:	42413938 	submi	r3, r1, #917504	; 0xe0000
40003244:	46454443 	strbmi	r4, [r5], -r3, asr #8
40003248:	00000000 	andeq	r0, r0, r0
4000324c:	7264696d 	rsbvc	r6, r4, #1785856	; 0x1b4000
40003250:	0000003a 	andeq	r0, r0, sl, lsr r0
40003254:	00000d0a 	andeq	r0, r0, sl, lsl #26
40003258:	76434947 	strbvc	r4, [r3], -r7, asr #18
4000325c:	6e552032 	mrcvs	0, 2, r2, cr5, cr2, {1}
40003260:	70707573 	rsbsvc	r7, r0, r3, ror r5
40003264:	6574726f 	ldrbvs	r7, [r4, #-623]!	; 0x26f
40003268:	000d0a64 	andeq	r0, sp, r4, ror #20
4000326c:	7264696d 	rsbvc	r6, r4, #1785856	; 0x1b4000
40003270:	6e70702e 	cdpvs	0, 7, cr7, cr0, cr14, {1}
40003274:	0000003a 	andeq	r0, r0, sl, lsr r0
40003278:	20636967 	rsbcs	r6, r3, r7, ror #18
4000327c:	65736162 	ldrbvs	r6, [r3, #-354]!	; 0x162
40003280:	72646461 	rsbvc	r6, r4, #1627389952	; 0x61000000
40003284:	0000003a 	andeq	r0, r0, sl, lsr r0
40003288:	675f6162 	ldrbvs	r6, [pc, -r2, ror #2]
4000328c:	3a646369 	bcc	4191c038 <system_map_end+0xc1c038>
40003290:	00000000 	andeq	r0, r0, r0
40003294:	44434947 	strbmi	r4, [r3], #-2375	; 0x947
40003298:	5059545f 	subspl	r5, r9, pc, asr r4
4000329c:	003a5245 	eorseq	r5, sl, r5, asr #4
400032a0:	675f6162 	ldrbvs	r6, [pc, -r2, ror #2]
400032a4:	3a636369 	bcc	418dc050 <system_map_end+0xbdc050>
400032a8:	00000000 	andeq	r0, r0, r0
400032ac:	43434947 	movtmi	r4, #14663	; 0x3947
400032b0:	4c54435f 	mrrcmi	3, 5, r4, r4, cr15	; <UNPREDICTABLE>
400032b4:	00003a52 	andeq	r3, r0, r2, asr sl
400032b8:	43494720 	movtmi	r4, #38688	; 0x9720
400032bc:	4d505f43 	ldclmi	15, cr5, [r0, #-268]	; 0xfffffef4
400032c0:	00003a52 	andeq	r3, r0, r2, asr sl
400032c4:	43494720 	movtmi	r4, #38688	; 0x9720
400032c8:	50425f43 	subpl	r5, r2, r3, asr #30
400032cc:	00003a52 	andeq	r3, r0, r2, asr sl
400032d0:	43494720 	movtmi	r4, #38688	; 0x9720
400032d4:	50525f43 	subspl	r5, r2, r3, asr #30
400032d8:	00003a52 	andeq	r3, r0, r2, asr sl
400032dc:	43434947 	movtmi	r4, #14663	; 0x3947
400032e0:	5050485f 	subspl	r4, r0, pc, asr r8
400032e4:	003a5249 	eorseq	r5, sl, r9, asr #4
400032e8:	43434947 	movtmi	r4, #14663	; 0x3947
400032ec:	4449495f 	strbmi	r4, [r9], #-2399	; 0x95f
400032f0:	00003a52 	andeq	r3, r0, r2, asr sl
400032f4:	746f6f72 	strbtvc	r6, [pc], #-3954	; 400032fc <monitoring_cmd_type_map_tbl+0x2d0>
400032f8:	65642f3d 	strbvs	r2, [r4, #-3901]!	; 0xf3d
400032fc:	6d6d2f76 	stclvs	15, cr2, [sp, #-472]!	; 0xfffffe28
40003300:	6b6c6263 	blvs	41b1bc94 <system_map_end+0xe1bc94>
40003304:	77722030 			; <UNDEFINED> instruction: 0x77722030
40003308:	3d706920 	ldclcc	9, cr6, [r0, #-128]!	; 0xffffff80
4000330c:	70636864 	rsbvc	r6, r3, r4, ror #16
40003310:	20777220 	rsbscs	r7, r7, r0, lsr #4
40003314:	643d7069 	ldrtvs	r7, [sp], #-105	; 0x69
40003318:	20706368 	rsbscs	r6, r0, r8, ror #6
4000331c:	6c726165 	ldfvse	f6, [r2], #-404	; 0xfffffe6c
40003320:	69727079 	ldmdbvs	r2!, {r0, r3, r4, r5, r6, ip, sp, lr}^
40003324:	206b746e 	rsbcs	r7, fp, lr, ror #8
40003328:	736e6f63 	cmnvc	lr, #396	; 0x18c
4000332c:	3d656c6f 	stclcc	12, cr6, [r5, #-444]!	; 0xfffffe44
40003330:	41797474 	cmnmi	r9, r4, ror r4
40003334:	2030414d 	eorscs	r4, r0, sp, asr #2
40003338:	3d6d656d 	cfstr64cc	mvdx6, [sp, #-436]!	; 0xfffffe4c
4000333c:	4d363532 	cfldr32mi	mvfx3, [r6, #-200]!	; 0xffffff38
40003340:	00000000 	andeq	r0, r0, r0
40003344:	616f6c5b 	cmnvs	pc, fp, asr ip	; <UNPREDICTABLE>
40003348:	6e696c64 	cdpvs	12, 6, cr6, cr9, cr4, {3}
4000334c:	205d7875 	subscs	r7, sp, r5, ror r8
40003350:	4f525245 	svcmi	0x00525245
40003354:	53203a52 	teqpl	r0, #335872	; 0x52000
40003358:	41205445 	teqmi	r0, r5, asr #8
4000335c:	53474154 	movtpl	r4, #29012	; 0x7154
40003360:	46454220 	strbmi	r4, [r5], -r0, lsr #4
40003364:	2045524f 	subcs	r5, r5, pc, asr #4
40003368:	504d554a 	subpl	r5, sp, sl, asr #10
4000336c:	204f5420 	subcs	r5, pc, r0, lsr #8
40003370:	414d495a 	cmpmi	sp, sl, asr r9
40003374:	000a4547 	andeq	r4, sl, r7, asr #10
40003378:	746f6f42 	strbtvc	r6, [pc], #-3906	; 40003380 <monitoring_cmd_type_map_tbl+0x354>
4000337c:	20676e69 	rsbcs	r6, r7, r9, ror #28
40003380:	73657567 	cmnvc	r5, #432013312	; 0x19c00000
40003384:	736f2074 	cmnvc	pc, #116	; 0x74
40003388:	0a2e2e2e 	beq	40b8ec48 <guest_end+0x48ec48>
4000338c:	00000000 	andeq	r0, r0, r0
40003390:	616f6c5b 	cmnvs	pc, fp, asr ip	; <UNPREDICTABLE>
40003394:	676d6264 	strbvs	r6, [sp, -r4, ror #4]!
40003398:	74736575 	ldrbtvc	r6, [r3], #-1397	; 0x575
4000339c:	5245205d 	subpl	r2, r5, #93	; 0x5d
400033a0:	3a524f52 	bcc	414970f0 <system_map_end+0x7970f0>
400033a4:	444f4320 	strbmi	r4, [pc], #-800	; 400033ac <monitoring_cmd_type_map_tbl+0x380>
400033a8:	554d2045 	strbpl	r2, [sp, #-69]	; 0x45
400033ac:	4e205453 	mcrmi	4, 1, r5, cr0, cr3, {2}
400033b0:	5220544f 	eorpl	r5, r0, #1325400064	; 0x4f000000
400033b4:	48434145 	stmdami	r3, {r0, r2, r6, r8, lr}^
400033b8:	52454820 	subpl	r4, r5, #2097152	; 0x200000
400033bc:	000d0a45 	andeq	r0, sp, r5, asr #20
400033c0:	706c6568 	rsbvc	r6, ip, r8, ror #10
400033c4:	20202020 	eorcs	r2, r0, r0, lsr #32
400033c8:	20202020 	eorcs	r2, r0, r0, lsr #32
400033cc:	4c202d20 	stcmi	13, cr2, [r0], #-128	; 0xffffff80
400033d0:	20747369 	rsbscs	r7, r4, r9, ror #6
400033d4:	6d6d6f63 	stclvs	15, cr6, [sp, #-396]!	; 0xfffffe74
400033d8:	73646e61 	cmnvc	r4, #1552	; 0x610
400033dc:	646e6120 	strbtvs	r6, [lr], #-288	; 0x120
400033e0:	65687420 	strbvs	r7, [r8, #-1056]!	; 0x420
400033e4:	75207269 	strvc	r7, [r0, #-617]!	; 0x269
400033e8:	65676173 	strbvs	r6, [r7, #-371]!	; 0x173
400033ec:	6f6f620a 	svcvs	0x006f620a
400033f0:	20202074 	eorcs	r2, r0, r4, ror r0
400033f4:	20202020 	eorcs	r2, r0, r0, lsr #32
400033f8:	202d2020 	eorcs	r2, sp, r0, lsr #32
400033fc:	746f6f42 	strbtvc	r6, [pc], #-3906	; 40003404 <monitoring_cmd_type_map_tbl+0x3d8>
40003400:	65756720 	ldrbvs	r6, [r5, #-1824]!	; 0x720
40003404:	736f7473 	cmnvc	pc, #1929379840	; 0x73000000
40003408:	6e6f6d0a 	cdpvs	13, 6, cr6, cr15, cr10, {0}
4000340c:	726f7469 	rsbvc	r7, pc, #1761607680	; 0x69000000
40003410:	20202020 	eorcs	r2, r0, r0, lsr #32
40003414:	202d2020 	eorcs	r2, sp, r0, lsr #32
40003418:	20746553 	rsbscs	r6, r4, r3, asr r5
4000341c:	696e6f4d 	stmdbvs	lr!, {r0, r2, r3, r6, r8, r9, sl, fp, sp, lr}^
40003420:	69726f74 	ldmdbvs	r2!, {r2, r4, r5, r6, r8, r9, sl, fp, sp, lr}^
40003424:	6d20676e 	stcvs	7, cr6, [r0, #-440]!	; 0xfffffe48
40003428:	0a65646f 	beq	4195c5ec <system_map_end+0xc5c5ec>
4000342c:	20626467 	rsbcs	r6, r2, r7, ror #8
40003430:	20202020 	eorcs	r2, r0, r0, lsr #32
40003434:	20202020 	eorcs	r2, r0, r0, lsr #32
40003438:	53202d20 	teqpl	r0, #2048	; 0x800
4000343c:	67207465 	strvs	r7, [r0, -r5, ror #8]!
40003440:	73206264 	teqvc	r0, #1073741830	; 0x40000006
40003444:	20627574 	rsbcs	r7, r2, r4, ror r5
40003448:	65646f6d 	strbvs	r6, [r4, #-3949]!	; 0xf6d
4000344c:	0000000a 	andeq	r0, r0, sl
40003450:	706c6568 	rsbvc	r6, ip, r8, ror #10
40003454:	00000000 	andeq	r0, r0, r0
40003458:	746f6f62 	strbtvc	r6, [pc], #-3938	; 40003460 <monitoring_cmd_type_map_tbl+0x434>
4000345c:	00000000 	andeq	r0, r0, r0
40003460:	696e6f6d 	stmdbvs	lr!, {r0, r2, r3, r5, r6, r8, r9, sl, fp, sp, lr}^
40003464:	00726f74 	rsbseq	r6, r2, r4, ror pc
40003468:	00626467 	rsbeq	r6, r2, r7, ror #8
4000346c:	20202068 	eorcs	r2, r0, r8, rrx
40003470:	20202020 	eorcs	r2, r0, r0, lsr #32
40003474:	20202020 	eorcs	r2, r0, r0, lsr #32
40003478:	20202020 	eorcs	r2, r0, r0, lsr #32
4000347c:	20202020 	eorcs	r2, r0, r0, lsr #32
40003480:	6944202d 	stmdbvs	r4, {r0, r2, r3, r5, sp}^
40003484:	616c7073 	smcvs	50947	; 0xc703
40003488:	696c2079 	stmdbvs	ip!, {r0, r3, r4, r5, r6, sp}^
4000348c:	6f207473 	svcvs	0x00207473
40003490:	6f632066 	svcvs	0x00632066
40003494:	6e616d6d 	cdpvs	13, 6, cr6, cr1, cr13, {3}
40003498:	6d0a7364 	stcvs	3, cr7, [sl, #-400]	; 0xfffffe70
4000349c:	613c2070 	teqvs	ip, r0, ror r0
400034a0:	65726464 	ldrbvs	r6, [r2, #-1124]!	; 0x464
400034a4:	203e7373 	eorscs	r7, lr, r3, ror r3
400034a8:	20202020 	eorcs	r2, r0, r0, lsr #32
400034ac:	2d202020 	stccs	0, cr2, [r0, #-128]!	; 0xffffff80
400034b0:	74655320 	strbtvc	r5, [r5], #-800	; 0x320
400034b4:	6e6f6d20 	cdpvs	13, 6, cr6, cr15, cr0, {1}
400034b8:	726f7469 	rsbvc	r7, pc, #1761607680	; 0x69000000
400034bc:	20676e69 	rsbcs	r6, r7, r9, ror #28
400034c0:	6e696f70 	mcrvs	15, 3, r6, cr9, cr0, {3}
400034c4:	70620a74 	rsbvc	r0, r2, r4, ror sl
400034c8:	64613c20 	strbtvs	r3, [r1], #-3104	; 0xc20
400034cc:	73657264 	cmnvc	r5, #1073741830	; 0x40000006
400034d0:	20203e73 	eorcs	r3, r0, r3, ror lr
400034d4:	20202020 	eorcs	r2, r0, r0, lsr #32
400034d8:	202d2020 	eorcs	r2, sp, r0, lsr #32
400034dc:	20746553 	rsbscs	r6, r4, r3, asr r5
400034e0:	61657262 	cmnvs	r5, r2, ror #4
400034e4:	6f70206b 	svcvs	0x0070206b
400034e8:	0a746e69 	beq	41d1ee94 <system_map_end+0x101ee94>
400034ec:	2020736c 	eorcs	r7, r0, ip, ror #6
400034f0:	20202020 	eorcs	r2, r0, r0, lsr #32
400034f4:	20202020 	eorcs	r2, r0, r0, lsr #32
400034f8:	20202020 	eorcs	r2, r0, r0, lsr #32
400034fc:	20202020 	eorcs	r2, r0, r0, lsr #32
40003500:	6944202d 	stmdbvs	r4, {r0, r2, r3, r5, sp}^
40003504:	616c7073 	smcvs	50947	; 0xc703
40003508:	65732079 	ldrbvs	r2, [r3, #-121]!	; 0x79
4000350c:	64657474 	strbtvs	r7, [r5], #-1140	; 0x474
40003510:	696f7020 	stmdbvs	pc!, {r5, ip, sp, lr}^	; <UNPREDICTABLE>
40003514:	6572746e 	ldrbvs	r7, [r2, #-1134]!	; 0x46e
40003518:	6f670a73 	svcvs	0x00670a73
4000351c:	20202020 	eorcs	r2, r0, r0, lsr #32
40003520:	20202020 	eorcs	r2, r0, r0, lsr #32
40003524:	20202020 	eorcs	r2, r0, r0, lsr #32
40003528:	20202020 	eorcs	r2, r0, r0, lsr #32
4000352c:	202d2020 	eorcs	r2, sp, r0, lsr #32
40003530:	6f6c6e75 	svcvs	0x006c6e75
40003534:	62206b63 	eorvs	r6, r0, #101376	; 0x18c00
40003538:	6b616572 	blvs	4185cb08 <system_map_end+0xb5cb08>
4000353c:	20636d0a 	rsbcs	r6, r3, sl, lsl #26
40003540:	6464613c 	strbtvs	r6, [r4], #-316	; 0x13c
40003544:	73736572 	cmnvc	r3, #478150656	; 0x1c800000
40003548:	2020203e 	eorcs	r2, r0, lr, lsr r0
4000354c:	20202020 	eorcs	r2, r0, r0, lsr #32
40003550:	43202d20 	teqmi	r0, #2048	; 0x800
40003554:	6e61656c 	cdpvs	5, 6, cr6, cr1, cr12, {3}
40003558:	6e6f6d20 	cdpvs	13, 6, cr6, cr15, cr0, {1}
4000355c:	726f7469 	rsbvc	r7, pc, #1761607680	; 0x69000000
40003560:	20676e69 	rsbcs	r6, r7, r9, ror #28
40003564:	6e696f70 	mcrvs	15, 3, r6, cr9, cr0, {3}
40003568:	63620a74 	cmnvs	r2, #475136	; 0x74000
4000356c:	64613c20 	strbtvs	r3, [r1], #-3104	; 0xc20
40003570:	73657264 	cmnvc	r5, #1073741830	; 0x40000006
40003574:	20203e73 	eorcs	r3, r0, r3, ror lr
40003578:	20202020 	eorcs	r2, r0, r0, lsr #32
4000357c:	202d2020 	eorcs	r2, sp, r0, lsr #32
40003580:	61656c43 	cmnvs	r5, r3, asr #24
40003584:	7262206e 	rsbvc	r2, r2, #110	; 0x6e
40003588:	696b6165 	stmdbvs	fp!, {r0, r2, r5, r6, r8, sp, lr}^
4000358c:	7020676e 	eorvc	r6, r0, lr, ror #14
40003590:	746e696f 	strbtvc	r6, [lr], #-2415	; 0x96f
40003594:	656c630a 	strbvs	r6, [ip, #-778]!	; 0x30a
40003598:	20207261 	eorcs	r7, r0, r1, ror #4
4000359c:	20202020 	eorcs	r2, r0, r0, lsr #32
400035a0:	20202020 	eorcs	r2, r0, r0, lsr #32
400035a4:	20202020 	eorcs	r2, r0, r0, lsr #32
400035a8:	43202d20 	teqmi	r0, #2048	; 0x800
400035ac:	6e61656c 	cdpvs	5, 6, cr6, cr1, cr12, {3}
400035b0:	6c6c6120 	stfvse	f6, [ip], #-128	; 0xffffff80
400035b4:	6e6f6d20 	cdpvs	13, 6, cr6, cr15, cr0, {1}
400035b8:	726f7469 	rsbvc	r7, pc, #1761607680	; 0x69000000
400035bc:	20676e69 	rsbcs	r6, r7, r9, ror #28
400035c0:	6e696f70 	mcrvs	15, 3, r6, cr9, cr0, {3}
400035c4:	20780a74 	rsbscs	r0, r8, r4, ror sl
400035c8:	6e61723c 	mcrvs	2, 3, r7, cr1, cr12, {1}
400035cc:	203e6567 	eorscs	r6, lr, r7, ror #10
400035d0:	6464613c 	strbtvs	r6, [r4], #-316	; 0x13c
400035d4:	73736572 	cmnvc	r3, #478150656	; 0x1c800000
400035d8:	202d203e 	eorcs	r2, sp, lr, lsr r0
400035dc:	706d7544 	rsbvc	r7, sp, r4, asr #10
400035e0:	6d656d20 	stclvs	13, cr6, [r5, #-128]!	; 0xffffff80
400035e4:	2e79726f 	cdpcs	2, 7, cr7, cr9, cr15, {3}
400035e8:	20785b20 	rsbscs	r5, r8, r0, lsr #22
400035ec:	30203032 	eorcc	r3, r0, r2, lsr r0
400035f0:	30303378 	eorscc	r3, r0, r8, ror r3
400035f4:	30303030 	eorscc	r3, r0, r0, lsr r0
400035f8:	720a5d30 	andvc	r5, sl, #3072	; 0xc00
400035fc:	20202062 	eorcs	r2, r0, r2, rrx
40003600:	20202020 	eorcs	r2, r0, r0, lsr #32
40003604:	20202020 	eorcs	r2, r0, r0, lsr #32
40003608:	20202020 	eorcs	r2, r0, r0, lsr #32
4000360c:	2d202020 	stccs	0, cr2, [r0, #-128]!	; 0xffffff80
40003610:	72615420 	rsbvc	r5, r1, #536870912	; 0x20000000
40003614:	20746567 	rsbscs	r6, r4, r7, ror #10
40003618:	74737953 	ldrbtvc	r7, [r3], #-2387	; 0x953
4000361c:	72206d65 	eorvc	r6, r0, #6464	; 0x1940
40003620:	6f6f6265 	svcvs	0x006f6265
40003624:	63720a74 	cmnvs	r2, #475136	; 0x74000
40003628:	20202020 	eorcs	r2, r0, r0, lsr #32
4000362c:	20202020 	eorcs	r2, r0, r0, lsr #32
40003630:	20202020 	eorcs	r2, r0, r0, lsr #32
40003634:	20202020 	eorcs	r2, r0, r0, lsr #32
40003638:	202d2020 	eorcs	r2, sp, r0, lsr #32
4000363c:	20746553 	rsbscs	r6, r4, r3, asr r5
40003640:	6c756146 	ldfvse	f6, [r5], #-280	; 0xfffffee8
40003644:	6f742074 	svcvs	0x00742074
40003648:	6172656c 	cmnvs	r2, ip, ror #10
4000364c:	2065636e 	rsbcs	r6, r5, lr, ror #6
40003650:	74737973 	ldrbtvc	r7, [r3], #-2419	; 0x973
40003654:	720a6d65 	andvc	r6, sl, #6464	; 0x1940
40003658:	20206765 	eorcs	r6, r0, r5, ror #14
4000365c:	20202020 	eorcs	r2, r0, r0, lsr #32
40003660:	20202020 	eorcs	r2, r0, r0, lsr #32
40003664:	20202020 	eorcs	r2, r0, r0, lsr #32
40003668:	2d202020 	stccs	0, cr2, [r0, #-128]!	; 0xffffff80
4000366c:	6d754420 	cfldrdvs	mvd4, [r5, #-128]!	; 0xffffff80
40003670:	61742070 	cmnvs	r4, r0, ror r0
40003674:	74656772 	strbtvc	r6, [r5], #-1906	; 0x772
40003678:	276d7620 	strbcs	r7, [sp, -r0, lsr #12]!
4000367c:	65722073 	ldrbvs	r2, [r2, #-115]!	; 0x73
40003680:	74736967 	ldrbtvc	r6, [r3], #-2407	; 0x967
40003684:	69207265 	stmdbvs	r0!, {r0, r2, r5, r6, r9, ip, sp, lr}
40003688:	0a6f666e 	beq	41bdd048 <system_map_end+0xedd048>
4000368c:	74697865 	strbtvc	r7, [r9], #-2149	; 0x865
40003690:	20202020 	eorcs	r2, r0, r0, lsr #32
40003694:	20202020 	eorcs	r2, r0, r0, lsr #32
40003698:	20202020 	eorcs	r2, r0, r0, lsr #32
4000369c:	20202020 	eorcs	r2, r0, r0, lsr #32
400036a0:	7865202d 	stmdavc	r5!, {r0, r2, r3, r5, sp}^
400036a4:	6d207469 	cfstrsvs	mvf7, [r0, #-420]!	; 0xfffffe5c
400036a8:	74696e6f 	strbtvc	r6, [r9], #-3695	; 0xe6f
400036ac:	6e69726f 	cdpvs	2, 6, cr7, cr9, cr15, {3}
400036b0:	6f6d2067 	svcvs	0x006d2067
400036b4:	000a6564 	andeq	r6, sl, r4, ror #10
400036b8:	65676154 	strbvs	r6, [r7, #-340]!	; 0x154
400036bc:	79532074 	ldmdbvc	r3, {r2, r4, r5, r6, sp}^
400036c0:	6d657473 	cfstrdvs	mvd7, [r5, #-460]!	; 0xfffffe34
400036c4:	62657220 	rsbvs	r7, r5, #2
400036c8:	2e746f6f 	cdpcs	15, 7, cr6, cr4, cr15, {3}
400036cc:	00000a2e 	andeq	r0, r0, lr, lsr #20
400036d0:	696e6f6d 	stmdbvs	lr!, {r0, r2, r3, r5, r6, r8, r9, sl, fp, sp, lr}^
400036d4:	69726f74 	ldmdbvs	r2!, {r2, r4, r5, r6, r8, r9, sl, fp, sp, lr}^
400036d8:	2023676e 	eorcs	r6, r3, lr, ror #14
400036dc:	00000000 	andeq	r0, r0, r0
400036e0:	20746573 	rsbscs	r6, r4, r3, ror r5
400036e4:	696e6f6d 	stmdbvs	lr!, {r0, r2, r3, r5, r6, r8, r9, sl, fp, sp, lr}^
400036e8:	69726f74 	ldmdbvs	r2!, {r2, r4, r5, r6, r8, r9, sl, fp, sp, lr}^
400036ec:	7020676e 	eorvc	r6, r0, lr, ror #14
400036f0:	746e696f 	strbtvc	r6, [lr], #-2415	; 0x96f
400036f4:	0a782520 	beq	41e0cb7c <system_map_end+0x110cb7c>
400036f8:	00000000 	andeq	r0, r0, r0
400036fc:	61656c63 	cmnvs	r5, r3, ror #24
40003700:	6f6d206e 	svcvs	0x006d206e
40003704:	6f74696e 	svcvs	0x0074696e
40003708:	676e6972 			; <UNDEFINED> instruction: 0x676e6972
4000370c:	696f7020 	stmdbvs	pc!, {r5, ip, sp, lr}^	; <UNPREDICTABLE>
40003710:	2520746e 	strcs	r7, [r0, #-1134]!	; 0x46e
40003714:	00000a78 	andeq	r0, r0, r8, ror sl
40003718:	20746573 	rsbscs	r6, r4, r3, ror r5
4000371c:	696e6f6d 	stmdbvs	lr!, {r0, r2, r3, r5, r6, r8, r9, sl, fp, sp, lr}^
40003720:	69726f74 	ldmdbvs	r2!, {r2, r4, r5, r6, r8, r9, sl, fp, sp, lr}^
40003724:	7020676e 	eorvc	r6, r0, lr, ror #14
40003728:	6e69726f 	cdpvs	2, 6, cr7, cr9, cr15, {3}
4000372c:	6e612074 	mcrvs	0, 3, r2, cr1, cr4, {3}
40003730:	72622064 	rsbvc	r2, r2, #100	; 0x64
40003734:	206b6165 	rsbcs	r6, fp, r5, ror #2
40003738:	65646f6d 	strbvs	r6, [r4, #-3949]!	; 0xf6d
4000373c:	0a782520 	beq	41e0cbc4 <system_map_end+0x110cbc4>
40003740:	00000000 	andeq	r0, r0, r0
40003744:	61656c63 	cmnvs	r5, r3, ror #24
40003748:	7262206e 	rsbvc	r2, r2, #110	; 0x6e
4000374c:	696b6165 	stmdbvs	fp!, {r0, r2, r5, r6, r8, sp, lr}^
40003750:	7020676e 	eorvc	r6, r0, lr, ror #14
40003754:	746e696f 	strbtvc	r6, [lr], #-2415	; 0x96f
40003758:	0a782520 	beq	41e0cbe0 <system_map_end+0x110cbe0>
4000375c:	00000000 	andeq	r0, r0, r0
40003760:	61656c43 	cmnvs	r5, r3, asr #24
40003764:	6c61206e 	stclvs	0, cr2, [r1], #-440	; 0xfffffe48
40003768:	6f6d206c 	svcvs	0x006d206c
4000376c:	6f74696e 	svcvs	0x0074696e
40003770:	676e6972 			; <UNDEFINED> instruction: 0x676e6972
40003774:	696f7020 	stmdbvs	pc!, {r5, ip, sp, lr}^	; <UNPREDICTABLE>
40003778:	0a21746e 	beq	40860938 <guest_end+0x160938>
4000377c:	00000000 	andeq	r0, r0, r0
40003780:	20746553 	rsbscs	r6, r4, r3, asr r5
40003784:	6c756146 	ldfvse	f6, [r5], #-280	; 0xfffffee8
40003788:	6f742074 	svcvs	0x00742074
4000378c:	6172656c 	cmnvs	r2, ip, ror #10
40003790:	2065636e 	rsbcs	r6, r5, lr, ror #6
40003794:	74737973 	ldrbtvc	r7, [r3], #-2419	; 0x973
40003798:	000a6d65 	andeq	r6, sl, r5, ror #26
4000379c:	0000706d 	andeq	r7, r0, sp, rrx
400037a0:	0000636d 	andeq	r6, r0, sp, ror #6
400037a4:	0000736c 	andeq	r7, r0, ip, ror #6
400037a8:	00007062 	andeq	r7, r0, r2, rrx
400037ac:	00006f67 	andeq	r6, r0, r7, ror #30
400037b0:	00000068 	andeq	r0, r0, r8, rrx
400037b4:	00006362 	andeq	r6, r0, r2, ror #6
400037b8:	61656c63 	cmnvs	r5, r3, ror #24
400037bc:	00000072 	andeq	r0, r0, r2, ror r0
400037c0:	00006272 	andeq	r6, r0, r2, ror r2
400037c4:	00006372 	andeq	r6, r0, r2, ror r3
400037c8:	74697865 	strbtvc	r7, [r9], #-2149	; 0x865
400037cc:	00000000 	andeq	r0, r0, r0
400037d0:	00676572 	rsbeq	r6, r7, r2, ror r5
400037d4:	706f7473 	rsbvc	r7, pc, r3, ror r4	; <UNPREDICTABLE>
400037d8:	00000000 	andeq	r0, r0, r0
400037dc:	33323130 	teqcc	r2, #12
400037e0:	37363534 			; <UNDEFINED> instruction: 0x37363534
400037e4:	62613938 	rsbvs	r3, r1, #917504	; 0xe0000
400037e8:	66656463 	strbtvs	r6, [r5], -r3, ror #8
400037ec:	00000000 	andeq	r0, r0, r0
400037f0:	2c786c25 	ldclcs	12, cr6, [r8], #-148	; 0xffffff6c
400037f4:	00786c25 	rsbseq	r6, r8, r5, lsr #24
400037f8:	00007825 	andeq	r7, r0, r5, lsr #16
400037fc:	2c786c25 	ldclcs	12, cr6, [r8], #-148	; 0xffffff6c
40003800:	2c786c25 	ldclcs	12, cr6, [r8], #-148	; 0xffffff6c
40003804:	006e253a 	rsbeq	r2, lr, sl, lsr r5
40003808:	00004b4f 	andeq	r4, r0, pc, asr #22
4000380c:	70755371 	rsbsvc	r5, r5, r1, ror r3
40003810:	74726f70 	ldrbtvc	r6, [r2], #-3952	; 0xf70
40003814:	713b6465 	teqvc	fp, r5, ror #8
40003818:	6f6c6552 	svcvs	0x006c6552
4000381c:	736e4963 	cmnvc	lr, #1622016	; 0x18c000
40003820:	00002b6e 	andeq	r2, r0, lr, ror #22
40003824:	6b636150 	blvs	418dbd6c <system_map_end+0xbdbd6c>
40003828:	69537465 	ldmdbvs	r3, {r0, r2, r5, r6, sl, ip, sp, lr}^
4000382c:	333d657a 	teqcc	sp, #511705088	; 0x1e800000
40003830:	00666666 	rsbeq	r6, r6, r6, ror #12
40003834:	6d795371 	ldclvs	3, cr5, [r9, #-452]!	; 0xfffffe3c
40003838:	3a6c6f62 	bcc	41b1f5c8 <system_map_end+0xe1f5c8>
4000383c:	0000003a 	andeq	r0, r0, sl, lsr r0
40003840:	66664f71 	uqsub16vs	r4, r6, r1
40003844:	73746573 	cmnvc	r4, #482344960	; 0x1cc00000
40003848:	00000000 	andeq	r0, r0, r0
4000384c:	74786554 	ldrbtvc	r6, [r8], #-1364	; 0x554
40003850:	443b303d 	ldrtmi	r3, [fp], #-61	; 0x3d
40003854:	3d617461 	cfstrdcc	mvd7, [r1, #-388]!	; 0xfffffe7c
40003858:	73423b30 	movtvc	r3, #11056	; 0x2b30
4000385c:	00303d73 	eorseq	r3, r0, r3, ror sp
40003860:	646e655f 	strbtvs	r6, [lr], #-1375	; 0x55f
40003864:	00000000 	andeq	r0, r0, r0
40003868:	20657270 	rsbcs	r7, r5, r0, ror r2
4000386c:	20746e63 	rsbscs	r6, r4, r3, ror #28
40003870:	000a6425 	andeq	r6, sl, r5, lsr #8
40003874:	25207825 	strcs	r7, [r0, #-2085]!	; 0x825
40003878:	73252063 	teqvc	r5, #99	; 0x63
4000387c:	0000000a 	andeq	r0, r0, sl
40003880:	2059454b 	subscs	r4, r9, fp, asr #10
40003884:	20544f4e 	subscs	r4, r4, lr, asr #30
40003888:	4e554f46 	cdpmi	15, 5, cr4, cr5, cr6, {2}
4000388c:	00000a44 	andeq	r0, r0, r4, asr #20
40003890:	30202b20 	eorcc	r2, r0, r0, lsr #22
40003894:	00000078 	andeq	r0, r0, r8, ror r0
40003898:	20555043 	subscs	r5, r5, r3, asr #32
4000389c:	73252030 	teqvc	r5, #48	; 0x30
400038a0:	202d3c20 	eorcs	r3, sp, r0, lsr #24
400038a4:	000a7325 	andeq	r7, sl, r5, lsr #6
400038a8:	696e6170 	stmdbvs	lr!, {r4, r5, r6, r8, sp, lr}^
400038ac:	00000063 	andeq	r0, r0, r3, rrx
400038b0:	67726154 			; <UNDEFINED> instruction: 0x67726154
400038b4:	67207465 	strvs	r7, [r0, -r5, ror #8]!
400038b8:	74736575 	ldrbtvc	r6, [r3], #-1397	; 0x575
400038bc:	70207327 	eorvc	r7, r0, r7, lsr #6
400038c0:	63696e61 	cmnvs	r9, #1552	; 0x610
400038c4:	63636f20 	cmnvs	r3, #128	; 0x80
400038c8:	64657275 	strbtvs	r7, [r5], #-629	; 0x275
400038cc:	00000a21 	andeq	r0, r0, r1, lsr #20
400038d0:	6f747541 	svcvs	0x00747541
400038d4:	73797320 	cmnvc	r9, #-2147483648	; 0x80000000
400038d8:	206d6574 	rsbcs	r6, sp, r4, ror r5
400038dc:	6f636572 	svcvs	0x00636572
400038e0:	79726576 	ldmdbvc	r2!, {r1, r2, r4, r5, r6, r8, sl, sp, lr}^
400038e4:	61747320 	cmnvs	r4, r0, lsr #6
400038e8:	2e2e7472 	mcrcs	4, 1, r7, cr14, cr2, {3}
400038ec:	00000a2e 	andeq	r0, r0, lr, lsr #20
400038f0:	696e6f4d 	stmdbvs	lr!, {r0, r2, r3, r6, r8, r9, sl, fp, sp, lr}^
400038f4:	69726f74 	ldmdbvs	r2!, {r2, r4, r5, r6, r8, r9, sl, fp, sp, lr}^
400038f8:	7320676e 	teqvc	r0, #28835840	; 0x1b80000
400038fc:	6f626d79 	svcvs	0x00626d79
40003900:	7369206c 	cmnvc	r9, #108	; 0x6c
40003904:	2c732520 	cfldr64cs	mvdx2, [r3], #-128	; 0xffffff80
40003908:	20617620 	rsbcs	r7, r1, r0, lsr #12
4000390c:	25207369 	strcs	r7, [r0, #-873]!	; 0x369
40003910:	69202c78 	stmdbvs	r0!, {r3, r4, r5, r6, sl, fp, sp}
40003914:	7274736e 	rsbsvc	r7, r4, #-1207959551	; 0xb8000001
40003918:	69746375 	ldmdbvs	r4!, {r0, r2, r4, r5, r6, r8, r9, sp, lr}^
4000391c:	69206e6f 	stmdbvs	r0!, {r0, r1, r2, r3, r5, r6, r9, sl, fp, sp, lr}
40003920:	78252073 	stmdavc	r5!, {r0, r1, r4, r5, r6, sp}
40003924:	0000000a 	andeq	r0, r0, sl
40003928:	20656854 	rsbcs	r6, r5, r4, asr r8
4000392c:	6f6d656d 	svcvs	0x006d656d
40003930:	72207972 	eorvc	r7, r0, #1867776	; 0x1c8000
40003934:	65676e61 	strbvs	r6, [r7, #-3681]!	; 0xe61
40003938:	74756f20 	ldrbtvc	r6, [r5], #-3872	; 0xf20
4000393c:	000a2121 	andeq	r2, sl, r1, lsr #2
40003940:	78257830 	stmdavc	r5!, {r4, r5, fp, ip, sp, lr}
40003944:	00003a20 	andeq	r3, r0, r0, lsr #20
40003948:	25783020 	ldrbcs	r3, [r8, #-32]!
4000394c:	00000078 	andeq	r0, r0, r8, ror r0
40003950:	72737043 	rsbsvc	r7, r3, #67	; 0x43
40003954:	20736920 	rsbscs	r6, r3, r0, lsr #18
40003958:	70207825 	eorvc	r7, r0, r5, lsr #16
4000395c:	73692063 	cmnvc	r9, #99	; 0x63
40003960:	20782520 	rsbscs	r2, r8, r0, lsr #10
40003964:	6920726c 	stmdbvs	r0!, {r2, r3, r5, r6, r9, ip, sp, lr}
40003968:	78252073 	stmdavc	r5!, {r0, r1, r4, r5, r6, sp}
4000396c:	2d707320 	ldclcs	3, cr7, [r0, #-128]!	; 0xffffff80
40003970:	20637673 	rsbcs	r7, r3, r3, ror r6
40003974:	25207369 	strcs	r7, [r0, #-873]!	; 0x369
40003978:	00000a78 	andeq	r0, r0, r8, ror sl
4000397c:	68636145 	stmdavs	r3!, {r0, r2, r6, r8, sp, lr}^
40003980:	67657220 	strbvs	r7, [r5, -r0, lsr #4]!
40003984:	65747369 	ldrbvs	r7, [r4, #-873]!	; 0x369
40003988:	73692072 	cmnvc	r9, #114	; 0x72
4000398c:	00000a20 	andeq	r0, r0, r0, lsr #20
40003990:	20642572 	rsbcs	r2, r4, r2, ror r5
40003994:	7825203a 	stmdavc	r5!, {r1, r3, r4, r5, sp}
40003998:	00000020 	andeq	r0, r0, r0, lsr #32
4000399c:	6575470a 	ldrbvs	r4, [r5, #-1802]!	; 0x70a
400039a0:	4c207473 	cfstrsmi	mvf7, [r0], #-460	; 0xfffffe34
400039a4:	78756e69 	ldmdavc	r5!, {r0, r3, r5, r6, r9, sl, fp, sp, lr}^
400039a8:	62657220 	rsbvs	r7, r5, #2
400039ac:	21746f6f 	cmncs	r4, pc, ror #30
400039b0:	00000a21 	andeq	r0, r0, r1, lsr #20

Disassembly of section .data:

400039b4 <bootcount>:
400039b4:	000003e8 	andeq	r0, r0, r8, ror #7

400039b8 <base>:
400039b8:	3fffe000 	svccc	0x00ffe000

400039bc <base_set>:
400039bc:	3fffd010 	svccc	0x00ffd010

400039c0 <base_reboot>:
400039c0:	3fffd020 	svccc	0x00ffd020

400039c4 <base_register>:
400039c4:	3fffd028 	svccc	0x00ffd028

400039c8 <base_clean>:
400039c8:	3fffd014 	svccc	0x00ffd014

400039cc <base_list>:
400039cc:	3fffd000 	svccc	0x00ffd000

400039d0 <base_break>:
400039d0:	3fffd018 	svccc	0x00ffd018

400039d4 <base_go>:
400039d4:	3fffd004 	svccc	0x00ffd004

400039d8 <base_break_clean>:
400039d8:	3fffd01c 	svccc	0x00ffd01c

400039dc <base_all_clean>:
400039dc:	3fffd008 	svccc	0x00ffd008

400039e0 <base_memory_dump>:
400039e0:	3fffd00c 	svccc	0x00ffd00c

400039e4 <base_recovery>:
400039e4:	3fffd024 	svccc	0x00ffd024

400039e8 <base_stop>:
400039e8:	3fffd02c 	svccc	0x00ffd02c

400039ec <vmids>:
400039ec:	00000001 	andeq	r0, r0, r1

Disassembly of section .bss:

400039f0 <uart_base_out>:
400039f0:	00000000 	andeq	r0, r0, r0

400039f4 <uart_base_in>:
400039f4:	00000000 	andeq	r0, r0, r0

400039f8 <format_puts>:
400039f8:	00000000 	andeq	r0, r0, r0

400039fc <format_putc>:
400039fc:	00000000 	andeq	r0, r0, r0

40003a00 <_gic>:
	...

40003bb0 <atag_base_addr>:
40003bb0:	00000000 	andeq	r0, r0, r0

40003bb4 <_params>:
40003bb4:	00000000 	andeq	r0, r0, r0

40003bb8 <break_signal>:
40003bb8:	00000000 	andeq	r0, r0, r0

40003bbc <guest_mode>:
40003bbc:	00000000 	andeq	r0, r0, r0

40003bc0 <autoboot>:
40003bc0:	00000000 	andeq	r0, r0, r0

40003bc4 <packet_buf>:
	...

40003fc4 <reply_buf>:
	...

400043c4 <system_maps_code>:
	...

400fa544 <target_sp>:
400fa544:	00000000 	andeq	r0, r0, r0

400fa548 <target_regs>:
	...

400fa588 <num_symbols_code>:
400fa588:	00000000 	andeq	r0, r0, r0

400fa58c <recovery_cnt>:
400fa58c:	00000000 	andeq	r0, r0, r0

Disassembly of section .ARM.attributes:

00000000 <.ARM.attributes>:
   0:	00003d41 	andeq	r3, r0, r1, asr #26
   4:	61656100 	cmnvs	r5, r0, lsl #2
   8:	01006962 	tsteq	r0, r2, ror #18
   c:	00000033 	andeq	r0, r0, r3, lsr r0
  10:	726f4305 	rsbvc	r4, pc, #335544320	; 0x14000000
  14:	2d786574 	cfldr64cs	mvdx6, [r8, #-464]!	; 0xfffffe30
  18:	00353141 	eorseq	r3, r5, r1, asr #2
  1c:	41070a06 	tstmi	r7, r6, lsl #20
  20:	02090108 	andeq	r0, r9, #2
  24:	0412040a 	ldreq	r0, [r2], #-1034	; 0x40a
  28:	01150114 	tsteq	r5, r4, lsl r1
  2c:	01180317 	tsteq	r8, r7, lsl r3
  30:	031b021a 	tsteq	fp, #-1610612735	; 0xa0000001
  34:	0122011c 	teqeq	r2, ip, lsl r1
  38:	022c012a 	eoreq	r0, ip, #-2147483638	; 0x8000000a
  3c:	Address 0x000000000000003c is out of bounds.


Disassembly of section .comment:

00000000 <.comment>:
   0:	3a434347 	bcc	10d0d24 <LOADER_PHYS_START-0x3ef2f2dc>
   4:	62552820 	subsvs	r2, r5, #2097152	; 0x200000
   8:	75746e75 	ldrbvc	r6, [r4, #-3701]!	; 0xe75
   c:	6e694c2f 	cdpvs	12, 6, cr4, cr9, cr15, {1}
  10:	206f7261 	rsbcs	r7, pc, r1, ror #4
  14:	2e362e34 	mrccs	14, 1, r2, cr6, cr4, {1}
  18:	75312d33 	ldrvc	r2, [r1, #-3379]!	; 0xd33
  1c:	746e7562 	strbtvc	r7, [lr], #-1378	; 0x562
  20:	20293575 	eorcs	r3, r9, r5, ror r5
  24:	2e362e34 	mrccs	14, 1, r2, cr6, cr4, {1}
  28:	Address 0x0000000000000028 is out of bounds.


Disassembly of section .debug_line:

00000000 <.debug_line>:
       0:	0000005e 	andeq	r0, r0, lr, asr r0
       4:	001d0002 	andseq	r0, sp, r2
       8:	01020000 	mrseq	r0, (UNDEF: 2)
       c:	000d0efb 	strdeq	r0, [sp], -fp
      10:	01010101 	tsteq	r1, r1, lsl #2
      14:	01000000 	mrseq	r0, (UNDEF: 0)
      18:	00010000 	andeq	r0, r1, r0
      1c:	746f6f62 	strbtvc	r6, [pc], #-3938	; 24 <LOADER_PHYS_START-0x3fffffdc>
      20:	0000532e 	andeq	r5, r0, lr, lsr #6
      24:	00000000 	andeq	r0, r0, r0
      28:	00000205 	andeq	r0, r0, r5, lsl #4
      2c:	09034000 	stmdbeq	r3, {lr}
      30:	2f312f01 	svccs	0x00312f01
      34:	2f312f31 	svccs	0x00312f31
      38:	2f2f2f2f 	svccs	0x002f2f2f
      3c:	2f2f2f31 	svccs	0x002f2f31
      40:	1e032f2f 	cdpne	15, 0, cr2, cr3, cr15, {1}
      44:	0c03302e 	stceq	0, cr3, [r3], {46}	; 0x2e
      48:	2f4f5808 	svccs	0x004f5808
      4c:	312f302f 	teqcc	pc, pc, lsr #32
      50:	03312f2f 	teqeq	r1, #188	; 0xbc
      54:	322e7faa 	eorcc	r7, lr, #680	; 0x2a8
      58:	352f3231 	strcc	r3, [pc, #-561]!	; fffffe2f <restore_guest_end+0x8f8ffe2f>
      5c:	0002022f 	andeq	r0, r2, pc, lsr #4
      60:	005d0101 	subseq	r0, sp, r1, lsl #2
      64:	00020000 	andeq	r0, r2, r0
      68:	0000001d 	andeq	r0, r0, sp, lsl r0
      6c:	0efb0102 	cdpeq	1, 15, cr0, cr11, cr2, {0}
      70:	0101000d 	tsteq	r1, sp
      74:	00000101 	andeq	r0, r0, r1, lsl #2
      78:	00000100 	andeq	r0, r0, r0, lsl #2
      7c:	616d0001 	cmnvs	sp, r1
      80:	632e6e69 	teqvs	lr, #1680	; 0x690
      84:	00000000 	andeq	r0, r0, r0
      88:	02050000 	andeq	r0, r5, #0
      8c:	400000c0 	andmi	r0, r0, r0, asr #1
      90:	13012503 	movwne	r2, #5379	; 0x1503
      94:	00020267 	andeq	r0, r2, r7, ror #4
      98:	05000101 	streq	r0, [r0, #-257]	; 0x101
      9c:	002fa002 	eoreq	sl, pc, r2
      a0:	013d0340 	teqeq	sp, r0, asr #6
      a4:	034c2c14 	movteq	r2, #52244	; 0xcc14
      a8:	33302e57 	teqcc	r0, #1392	; 0x570
      ac:	23033030 	movwcs	r3, #12336	; 0x3030
      b0:	2e5d034a 	cdpcs	3, 5, cr0, cr13, cr10, {2}
      b4:	032e2303 	teqeq	lr, #201326592	; 0xc000000
      b8:	4b312e6f 	blmi	c4ba7c <LOADER_PHYS_START-0x3f3b4584>
      bc:	0a026e67 	beq	9ba60 <LOADER_PHYS_START-0x3ff645a0>
      c0:	c0010100 	andgt	r0, r1, r0, lsl #2
      c4:	02000000 	andeq	r0, r0, #0
      c8:	00006600 	andeq	r6, r0, r0, lsl #12
      cc:	fb010200 	blx	408d6 <LOADER_PHYS_START-0x3ffbf72a>
      d0:	01000d0e 	tsteq	r0, lr, lsl #26
      d4:	00010101 	andeq	r0, r1, r1, lsl #2
      d8:	00010000 	andeq	r0, r1, r0
      dc:	72640100 	rsbvc	r0, r4, #0
      e0:	72657669 	rsbvc	r7, r5, #110100480	; 0x6900000
      e4:	2e2e0073 	mcrcs	0, 1, r0, cr14, cr3, {3}
      e8:	2f2e2e2f 	svccs	0x002e2e2f
      ec:	2e2f2e2e 	cdpcs	14, 2, cr2, cr15, cr14, {1}
      f0:	6f632f2e 	svcvs	0x00632f2e
      f4:	6e6f6d6d 	cdpvs	13, 6, cr6, cr15, cr13, {3}
      f8:	636e692f 	cmnvs	lr, #770048	; 0xbc000
      fc:	6564756c 	strbvs	r7, [r4, #-1388]!	; 0x56c
     100:	65730000 	ldrbvs	r0, [r3, #-0]!
     104:	6c616972 	stclvs	9, cr6, [r1], #-456	; 0xfffffe38
     108:	7035735f 	eorsvc	r7, r5, pc, asr r3
     10c:	0100632e 	tsteq	r0, lr, lsr #6
     110:	72610000 	rsbvc	r0, r1, #0
     114:	745f6863 	ldrbvc	r6, [pc], #-2147	; 11c <LOADER_PHYS_START-0x3ffffee4>
     118:	73657079 	cmnvc	r5, #121	; 0x79
     11c:	0200682e 	andeq	r6, r0, #3014656	; 0x2e0000
     120:	65730000 	ldrbvs	r0, [r3, #-0]!
     124:	6c616972 	stclvs	9, cr6, [r1], #-456	; 0xfffffe38
     128:	7035735f 	eorsvc	r7, r5, pc, asr r3
     12c:	0100682e 	tsteq	r0, lr, lsr #16
     130:	00000000 	andeq	r0, r0, r0
     134:	00d00205 	sbcseq	r0, r0, r5, lsl #4
     138:	0b034000 	bleq	d0140 <LOADER_PHYS_START-0x3ff2fec0>
     13c:	69a11401 	stmibvs	r1!, {r0, sl, ip}
     140:	4b4b4d13 	blmi	12d3594 <LOADER_PHYS_START-0x3ed2ca6c>
     144:	2f2d2f2d 	svccs	0x002d2f2d
     148:	2e7a0330 	mrccs	3, 3, r0, cr10, cr0, {1}
     14c:	66180383 	ldrvs	r0, [r8], -r3, lsl #7
     150:	69346913 	ldmdbvs	r4!, {r0, r1, r4, r8, fp, sp, lr}
     154:	6b034d13 	blvs	d35a8 <LOADER_PHYS_START-0x3ff2ca58>
     158:	2e17032e 	cdpcs	3, 1, cr0, cr7, cr14, {1}
     15c:	01040200 	mrseq	r0, R12_usr
     160:	4d2fa348 	stcmi	3, cr10, [pc, #-288]!	; 48 <LOADER_PHYS_START-0x3fffffb8>
     164:	60034b13 	andvs	r4, r3, r3, lsl fp
     168:	2e21032e 	cdpcs	3, 2, cr0, cr1, cr14, {1}
     16c:	01040200 	mrseq	r0, R12_usr
     170:	1a6b6a49 	bne	1adaa9c <LOADER_PHYS_START-0x3e525564>
     174:	15304d4c 	ldrne	r4, [r0, #-3404]!	; 0xd4c
     178:	4a7a036c 	bmi	1e80f30 <LOADER_PHYS_START-0x3e17f0d0>
     17c:	4b4c4c2f 	blmi	1313240 <LOADER_PHYS_START-0x3ececdc0>
     180:	02022f2f 	andeq	r2, r2, #188	; 0xbc
     184:	b7010100 	strlt	r0, [r1, -r0, lsl #2]
     188:	02000000 	andeq	r0, r0, #0
     18c:	00005000 	andeq	r5, r0, r0
     190:	fb010200 	blx	4099a <LOADER_PHYS_START-0x3ffbf666>
     194:	01000d0e 	tsteq	r0, lr, lsl #26
     198:	00010101 	andeq	r0, r1, r1, lsl #2
     19c:	00010000 	andeq	r0, r1, r0
     1a0:	72640100 	rsbvc	r0, r4, #0
     1a4:	72657669 	rsbvc	r7, r5, #110100480	; 0x6900000
     1a8:	2e2e0073 	mcrcs	0, 1, r0, cr14, cr3, {3}
     1ac:	2f2e2e2f 	svccs	0x002e2e2f
     1b0:	2e2f2e2e 	cdpcs	14, 2, cr2, cr15, cr14, {1}
     1b4:	6f632f2e 	svcvs	0x00632f2e
     1b8:	6e6f6d6d 	cdpvs	13, 6, cr6, cr15, cr13, {3}
     1bc:	636e692f 	cmnvs	lr, #770048	; 0xbc000
     1c0:	6564756c 	strbvs	r7, [r4, #-1388]!	; 0x56c
     1c4:	61750000 	cmnvs	r5, r0
     1c8:	632e7472 	teqvs	lr, #1912602624	; 0x72000000
     1cc:	00000100 	andeq	r0, r0, r0, lsl #2
     1d0:	68637261 	stmdavs	r3!, {r0, r5, r6, r9, ip, sp, lr}^
     1d4:	7079745f 	rsbsvc	r7, r9, pc, asr r4
     1d8:	682e7365 	stmdavs	lr!, {r0, r2, r5, r6, r8, r9, ip, sp, lr}
     1dc:	00000200 	andeq	r0, r0, r0, lsl #4
     1e0:	02050000 	andeq	r0, r5, #0
     1e4:	40000210 	andmi	r0, r0, r0, lsl r2
     1e8:	2e2d1317 	mcrcs	3, 1, r1, cr13, cr7, {0}
     1ec:	2d2f302f 	stccs	0, cr3, [pc, #-188]!	; 138 <LOADER_PHYS_START-0x3ffffec8>
     1f0:	322f6b2d 	eorcc	r6, pc, #46080	; 0xb400
     1f4:	30633069 	rsbcc	r3, r3, r9, rrx
     1f8:	034a0903 	movteq	r0, #43267	; 0xa903
     1fc:	67674a78 			; <UNDEFINED> instruction: 0x67674a78
     200:	2f2d4c2f 	svccs	0x002d4c2f
     204:	2e660903 	cdpcs	9, 6, cr0, cr6, cr3, {0}
     208:	29336832 	ldmdbcs	r3!, {r1, r4, r5, fp, sp, lr}
     20c:	2f302f2f 	svccs	0x00302f2f
     210:	522e7a03 	eorpl	r7, lr, #12288	; 0x3000
     214:	4b2f2e4d 	blmi	bcbb50 <LOADER_PHYS_START-0x3f4344b0>
     218:	2f332d2f 	svccs	0x00332d2f
     21c:	4b4c2c4e 	blmi	130b35c <LOADER_PHYS_START-0x3ecf4ca4>
     220:	4e2e4d4c 	cdpmi	13, 2, cr4, cr14, cr12, {2}
     224:	312b862f 	teqcc	fp, pc, lsr #12
     228:	02040200 	andeq	r0, r4, #0
     22c:	2f2b4e62 	svccs	0x002b4e62
     230:	7a033030 	bvc	cc2f8 <LOADER_PHYS_START-0x3ff33d08>
     234:	362a322e 	strtcc	r3, [sl], -lr, lsr #4
     238:	302f304b 	eorcc	r3, pc, fp, asr #32
     23c:	0002022d 	andeq	r0, r2, sp, lsr #4
     240:	00580101 	subseq	r0, r8, r1, lsl #2
     244:	00020000 	andeq	r0, r2, r0
     248:	00000026 	andeq	r0, r0, r6, lsr #32
     24c:	0efb0102 	cdpeq	1, 15, cr0, cr11, cr2, {0}
     250:	0101000d 	tsteq	r1, sp
     254:	00000101 	andeq	r0, r0, r1, lsl #2
     258:	00000100 	andeq	r0, r0, r0, lsl #2
     25c:	69726401 	ldmdbvs	r2!, {r0, sl, sp, lr}^
     260:	73726576 	cmnvc	r2, #494927872	; 0x1d800000
     264:	69740000 	ldmdbvs	r4!, {}^	; <UNPREDICTABLE>
     268:	2e72656d 	cdpcs	5, 7, cr6, cr2, cr13, {3}
     26c:	00010063 	andeq	r0, r1, r3, rrx
     270:	05000000 	streq	r0, [r0, #-0]
     274:	0003ac02 	andeq	sl, r3, r2, lsl #24
     278:	01100340 	tsteq	r0, r0, asr #6
     27c:	4b5d082f 	blmi	1742340 <LOADER_PHYS_START-0x3e8bdcc0>
     280:	79034b67 	stmdbvc	r3, {r0, r1, r2, r5, r6, r8, r9, fp, lr}
     284:	039f4b2e 	orrseq	r4, pc, #47104	; 0xb800
     288:	2f14d610 	svccs	0x0014d610
     28c:	2f143211 	svccs	0x00143211
     290:	2e700311 	mrccs	3, 3, r0, cr0, cr1, {0}
     294:	85302c14 	ldrhi	r2, [r0, #-3092]!	; 0xc14
     298:	0002022d 	andeq	r0, r2, sp, lsr #4
     29c:	022f0101 	eoreq	r0, pc, #1073741824	; 0x40000000
     2a0:	00020000 	andeq	r0, r2, r0
     2a4:	0000005a 	andeq	r0, r0, sl, asr r0
     2a8:	0efb0102 	cdpeq	1, 15, cr0, cr11, cr2, {0}
     2ac:	0101000d 	tsteq	r1, sp
     2b0:	00000101 	andeq	r0, r0, r1, lsl #2
     2b4:	00000100 	andeq	r0, r0, r0, lsl #2
     2b8:	69726401 	ldmdbvs	r2!, {r0, sl, sp, lr}^
     2bc:	73726576 	cmnvc	r2, #494927872	; 0x1d800000
     2c0:	2f2e2e00 	svccs	0x002e2e00
     2c4:	2e2f2e2e 	cdpcs	14, 2, cr2, cr15, cr14, {1}
     2c8:	2e2e2f2e 	cdpcs	15, 2, cr2, cr14, cr14, {1}
     2cc:	6d6f632f 	stclvs	3, cr6, [pc, #-188]!	; 218 <LOADER_PHYS_START-0x3ffffde8>
     2d0:	2f6e6f6d 	svccs	0x006e6f6d
     2d4:	6c636e69 	stclvs	14, cr6, [r3], #-420	; 0xfffffe5c
     2d8:	00656475 	rsbeq	r6, r5, r5, ror r4
     2dc:	69706700 	ldmdbvs	r0!, {r8, r9, sl, sp, lr}^
     2e0:	00632e6f 	rsbeq	r2, r3, pc, ror #28
     2e4:	67000001 	strvs	r0, [r0, -r1]
     2e8:	2e6f6970 	mcrcs	9, 3, r6, cr15, cr0, {3}
     2ec:	00010068 	andeq	r0, r1, r8, rrx
     2f0:	63726100 	cmnvs	r2, #0
     2f4:	79745f68 	ldmdbvc	r4!, {r3, r5, r6, r8, r9, sl, fp, ip, lr}^
     2f8:	2e736570 	mrccs	5, 3, r6, cr3, cr0, {3}
     2fc:	00020068 	andeq	r0, r2, r8, rrx
     300:	05000000 	streq	r0, [r0, #-0]
     304:	00046402 	andeq	r6, r4, r2, lsl #8
     308:	01130340 	tsteq	r3, r0, asr #6
     30c:	2f672f15 	svccs	0x00672f15
     310:	7a03312f 	bvc	cc7d4 <LOADER_PHYS_START-0x3ff3382c>
     314:	0e032d2e 	cdpeq	13, 0, cr2, cr3, cr14, {1}
     318:	2e73032e 	cdpcs	3, 7, cr0, cr3, cr14, {1}
     31c:	2e0b032f 	cdpcs	3, 0, cr0, cr11, cr15, {1}
     320:	2f2e7403 	svccs	0x002e7403
     324:	2e09032f 	cdpcs	3, 0, cr0, cr9, cr15, {1}
     328:	2f2f302f 	svccs	0x002f302f
     32c:	016c034d 	cmneq	ip, sp, asr #6
     330:	1303682f 	movwne	r6, #14383	; 0x382f
     334:	2f15312e 	svccs	0x0015312e
     338:	2f4c2d2f 	svccs	0x004c2d2f
     33c:	2f15312f 	svccs	0x0015312f
     340:	2f15694b 	svccs	0x0015694b
     344:	034c2c30 	movteq	r2, #52272	; 0xcc30
     348:	032f6609 	teqeq	pc, #9437184	; 0x900000
     34c:	2f342e79 	svccs	0x00342e79
     350:	312b1831 	teqcc	fp, r1, lsr r8
     354:	4e346d2c 	cdpmi	13, 3, cr6, cr4, cr12, {1}
     358:	2c312b18 	ldccs	11, cr2, [r1], #-96	; 0xffffffa0
     35c:	044e3487 	strbeq	r3, [lr], #-1159	; 0x487
     360:	00fd0302 	rscseq	r0, sp, r2, lsl #6
     364:	03010401 	movweq	r0, #5121	; 0x1401
     368:	044a7f87 	strbeq	r7, [sl], #-3975	; 0xf87
     36c:	00ee0302 	rsceq	r0, lr, r2, lsl #6
     370:	0301042e 	movweq	r0, #5166	; 0x142e
     374:	302e7f93 	mlacc	lr, r3, pc, r7	; <UNPREDICTABLE>
     378:	03020445 	movweq	r0, #9285	; 0x2445
     37c:	042e00f4 	strteq	r0, [lr], #-244	; 0xf4
     380:	7f8e0301 	svcvc	0x008e0301
     384:	0302042e 	movweq	r0, #9262	; 0x242e
     388:	042e00f2 	strteq	r0, [lr], #-242	; 0xf2
     38c:	7f8f0301 	svcvc	0x008f0301
     390:	144d302e 	strbne	r3, [sp], #-46	; 0x2e
     394:	144d144f 	strbne	r1, [sp], #-1103	; 0x44f
     398:	0302044d 	movweq	r0, #9293	; 0x244d
     39c:	040100e2 	streq	r0, [r1], #-226	; 0xe2
     3a0:	7f9e0301 	svcvc	0x009e0301
     3a4:	0302042e 	movweq	r0, #9262	; 0x242e
     3a8:	042e00e2 	strteq	r0, [lr], #-226	; 0xe2
     3ac:	7f870301 	svcvc	0x00870301
     3b0:	0302042e 	movweq	r0, #9262	; 0x242e
     3b4:	042e00ee 	strteq	r0, [lr], #-238	; 0xee
     3b8:	7f930301 	svcvc	0x00930301
     3bc:	7f94032e 	svcvc	0x0094032e
     3c0:	00f2032e 	rscseq	r0, r2, lr, lsr #6
     3c4:	7f8f032e 	svcvc	0x008f032e
     3c8:	0185032e 	orreq	r0, r5, lr, lsr #6
     3cc:	7efb034a 	cdpvc	3, 15, cr0, cr11, cr10, {2}
     3d0:	8303302e 	movwhi	r3, #12334	; 0x302e
     3d4:	63032e01 	movwvs	r2, #15873	; 0x3e01
     3d8:	0302044a 	movweq	r0, #9290	; 0x244a
     3dc:	042e00f4 	strteq	r0, [lr], #-244	; 0xf4
     3e0:	7f8e0301 	svcvc	0x008e0301
     3e4:	0302042e 	movweq	r0, #9262	; 0x242e
     3e8:	042e00f2 	strteq	r0, [lr], #-242	; 0xf2
     3ec:	7f8f0301 	svcvc	0x008f0301
     3f0:	4a1d032e 	bmi	7410b0 <LOADER_PHYS_START-0x3f8bef50>
     3f4:	db030204 	blle	c0c0c <LOADER_PHYS_START-0x3ff3f3f4>
     3f8:	01040100 	mrseq	r0, (UNDEF: 20)
     3fc:	2e7fa503 	cdpcs	5, 7, cr10, cr15, cr3, {0}
     400:	0302042e 	movweq	r0, #9262	; 0x242e
     404:	044a00db 	strbeq	r0, [sl], #-219	; 0xdb
     408:	7f870301 	svcvc	0x00870301
     40c:	0302042e 	movweq	r0, #9262	; 0x242e
     410:	042e00ee 	strteq	r0, [lr], #-238	; 0xee
     414:	7f930301 	svcvc	0x00930301
     418:	2e1e032e 	cdpcs	3, 1, cr0, cr14, cr14, {1}
     41c:	4a5c0369 	bmi	17011c8 <LOADER_PHYS_START-0x3e8fee38>
     420:	f4030204 	vst1.8	{d0-d3}, [r3], r4
     424:	01042e00 	tsteq	r4, r0, lsl #28
     428:	2e7f8e03 	cdpcs	14, 7, cr8, cr15, cr3, {0}
     42c:	f2030204 	vhsub.s8	d0, d3, d4
     430:	01042e00 	tsteq	r4, r0, lsl #28
     434:	2e7f8f03 	cdpcs	15, 7, cr8, cr15, cr3, {0}
     438:	044a2403 	strbeq	r2, [sl], #-1027	; 0x403
     43c:	00d40302 	sbcseq	r0, r4, r2, lsl #6
     440:	03010401 	movweq	r0, #5121	; 0x1401
     444:	044a7f87 	strbeq	r7, [sl], #-3975	; 0xf87
     448:	00ee0302 	rsceq	r0, lr, r2, lsl #6
     44c:	0301042e 	movweq	r0, #5166	; 0x142e
     450:	2f2e7f93 	svccs	0x002e7f93
     454:	7fb50333 	svcvc	0x00b50333
     458:	e9032f2e 	stmdb	r3, {r1, r2, r3, r5, r8, r9, sl, fp, sp}
     45c:	03302e00 	teqeq	r0, #0
     460:	02046656 	andeq	r6, r4, #90177536	; 0x5600000
     464:	2e00f403 	cdpcs	4, 0, cr15, cr0, cr3, {0}
     468:	8e030104 	adfhis	f0, f3, f4
     46c:	02042e7f 	andeq	r2, r4, #2032	; 0x7f0
     470:	2e00f203 	cdpcs	2, 0, cr15, cr0, cr3, {0}
     474:	8f030104 	svchi	0x00030104
     478:	2a032e7f 	bcs	cbe7c <LOADER_PHYS_START-0x3ff34184>
     47c:	0302044a 	movweq	r0, #9290	; 0x244a
     480:	040100ce 	streq	r0, [r1], #-206	; 0xce
     484:	7f870301 	svcvc	0x00870301
     488:	0302044a 	movweq	r0, #9290	; 0x244a
     48c:	042e00ee 	strteq	r0, [lr], #-238	; 0xee
     490:	7f930301 	svcvc	0x00930301
     494:	b1032f2e 	tstlt	r3, lr, lsr #30
     498:	2f2c2e7f 	svccs	0x002c2e7f
     49c:	2e00d503 	cfsh32cs	mvfx13, mvfx0, #3
     4a0:	2e7fab03 	vaddcs.f64	d26, d15, d3
     4a4:	00fc034c 	rscseq	r0, ip, ip, asr #6
     4a8:	7f85032e 	svcvc	0x0085032e
     4ac:	00fb032e 	rscseq	r0, fp, lr, lsr #6
     4b0:	2e4e032e 	cdpcs	3, 4, cr0, cr14, cr14, {1}
     4b4:	f4030204 	vst1.8	{d0-d3}, [r3], r4
     4b8:	01042e00 	tsteq	r4, r0, lsl #28
     4bc:	2e7f8e03 	cdpcs	14, 7, cr8, cr15, cr3, {0}
     4c0:	f2030204 	vhsub.s8	d0, d3, d4
     4c4:	01042e00 	tsteq	r4, r0, lsl #28
     4c8:	2e7f8f03 	cdpcs	15, 7, cr8, cr15, cr3, {0}
     4cc:	01000402 	tsteq	r0, r2, lsl #8
     4d0:	00006201 	andeq	r6, r0, r1, lsl #4
     4d4:	43000200 	movwmi	r0, #512	; 0x200
     4d8:	02000000 	andeq	r0, r0, #0
     4dc:	0d0efb01 	vstreq	d15, [lr, #-4]
     4e0:	01010100 	mrseq	r0, (UNDEF: 17)
     4e4:	00000001 	andeq	r0, r0, r1
     4e8:	01000001 	tsteq	r0, r1
     4ec:	2e2f2e2e 	cdpcs	14, 2, cr2, cr15, cr14, {1}
     4f0:	2e2e2f2e 	cdpcs	15, 2, cr2, cr14, cr14, {1}
     4f4:	2f2e2e2f 	svccs	0x002e2e2f
     4f8:	6d6d6f63 	stclvs	15, cr6, [sp, #-396]!	; 0xfffffe74
     4fc:	6c2f6e6f 	stcvs	14, cr6, [pc], #-444	; 348 <LOADER_PHYS_START-0x3ffffcb8>
     500:	0000676f 	andeq	r6, r0, pc, ror #14
     504:	6e697270 	mcrvs	2, 3, r7, cr9, cr0, {3}
     508:	00632e74 	rsbeq	r2, r3, r4, ror lr
     50c:	3c000001 	stccc	0, cr0, [r0], {1}
     510:	6c697562 	cfstr64vs	mvdx7, [r9], #-392	; 0xfffffe78
     514:	6e692d74 	mcrvs	13, 3, r2, cr9, cr4, {3}
     518:	0000003e 	andeq	r0, r0, lr, lsr r0
     51c:	05000000 	streq	r0, [r0, #-0]
     520:	00072402 	andeq	r2, r7, r2, lsl #8
     524:	2d131740 	ldccs	7, cr1, [r3, #-256]	; 0xffffff00
     528:	2d4b4b2f 	vstrcs	d20, [fp, #-188]	; 0xffffff44
     52c:	492f6832 	stmdbmi	pc!, {r1, r4, r5, fp, sp, lr}	; <UNPREDICTABLE>
     530:	0802302f 	stmdaeq	r2, {r0, r1, r2, r3, r5, ip, sp}
     534:	0f010100 	svceq	0x00010100
     538:	02000002 	andeq	r0, r0, #2
     53c:	00004400 	andeq	r4, r0, r0, lsl #8
     540:	fb010200 	blx	40d4a <LOADER_PHYS_START-0x3ffbf2b6>
     544:	01000d0e 	tsteq	r0, lr, lsl #26
     548:	00010101 	andeq	r0, r1, r1, lsl #2
     54c:	00010000 	andeq	r0, r1, r0
     550:	2e2e0100 	sufcse	f0, f6, f0
     554:	2f2e2e2f 	svccs	0x002e2e2f
     558:	2e2f2e2e 	cdpcs	14, 2, cr2, cr15, cr14, {1}
     55c:	6f632f2e 	svcvs	0x00632f2e
     560:	6e6f6d6d 	cdpvs	13, 6, cr6, cr15, cr13, {3}
     564:	676f6c2f 	strbvs	r6, [pc, -pc, lsr #24]!
     568:	73730000 	cmnvc	r3, #0
     56c:	666e6163 	strbtvs	r6, [lr], -r3, ror #2
     570:	0100632e 	tsteq	r0, lr, lsr #6
     574:	623c0000 	eorsvs	r0, ip, #0
     578:	746c6975 	strbtvc	r6, [ip], #-2421	; 0x975
     57c:	3e6e692d 	cdpcc	9, 6, cr6, cr14, cr13, {1}
     580:	00000000 	andeq	r0, r0, r0
     584:	02050000 	andeq	r0, r5, #0
     588:	40000774 	andmi	r0, r0, r4, ror r7
     58c:	01028903 	tsteq	r2, r3, lsl #18
     590:	134d2f13 	movtne	r2, #57107	; 0xdf13
     594:	7ec20367 	cdpvc	3, 12, cr0, cr2, cr7, {3}
     598:	01b8032e 			; <UNDEFINED> instruction: 0x01b8032e
     59c:	7ec80301 	cdpvc	3, 12, cr0, cr8, cr1, {0}
     5a0:	01b8032e 			; <UNDEFINED> instruction: 0x01b8032e
     5a4:	7e8a034a 	cdpvc	3, 8, cr0, cr10, cr10, {2}
     5a8:	cc03832e 	stcgt	3, cr8, [r3], {46}	; 0x2e
     5ac:	71036600 	tstvc	r3, r0, lsl #12
     5b0:	4a0f032e 	bmi	3c1270 <LOADER_PHYS_START-0x3fc3ed90>
     5b4:	4a70032f 	bmi	1c01278 <LOADER_PHYS_START-0x3e3fed88>
     5b8:	032e1503 	teqeq	lr, #12582912	; 0xc00000
     5bc:	bd032e6b 	stclt	14, cr2, [r3, #-428]	; 0xfffffe54
     5c0:	03292e01 	teqeq	r9, #16
     5c4:	832e7e8a 	teqhi	lr, #2208	; 0x8a0
     5c8:	ba00d803 	blt	365dc <LOADER_PHYS_START-0x3ffc9a24>
     5cc:	4a720330 	bmi	1c81294 <LOADER_PHYS_START-0x3e37ed6c>
     5d0:	2e7fb403 	cdpcs	4, 7, cr11, cr15, cr3, {0}
     5d4:	2e00cc03 	cdpcs	12, 0, cr12, cr0, cr3, {0}
     5d8:	03302f30 	teqeq	r0, #192	; 0xc0
     5dc:	034a7faf 	movteq	r7, #44975	; 0xafaf
     5e0:	036600c8 	cmneq	r6, #200	; 0xc8
     5e4:	034a7fbb 	movteq	r7, #44987	; 0xafbb
     5e8:	030101f2 	movweq	r0, #4594	; 0x11f2
     5ec:	032e7e8e 	teqeq	lr, #2272	; 0x8e0
     5f0:	034a01f2 	movteq	r0, #41458	; 0xa1f2
     5f4:	462e7e98 			; <UNDEFINED> instruction: 0x462e7e98
     5f8:	032e0c03 	teqeq	lr, #768	; 0x300
     5fc:	17039e6e 	strne	r9, [r3, -lr, ror #28]
     600:	2e69034a 	cdpcs	3, 6, cr0, cr9, cr10, {2}
     604:	032e1703 	teqeq	lr, #786432	; 0xc0000
     608:	292e01e0 	stmdbcs	lr!, {r5, r6, r7, r8}
     60c:	2e7ea903 	cdpcs	9, 7, cr10, cr14, cr3, {0}
     610:	6868322a 	stmdavs	r8!, {r1, r3, r5, r9, ip, sp}^
     614:	4a01d803 	bmi	76628 <LOADER_PHYS_START-0x3ff899d8>
     618:	2e7e9603 	cdpcs	6, 7, cr9, cr14, cr3, {0}
     61c:	2e01ea03 	vmlacs.f32	s28, s2, s6
     620:	827e9c03 	rsbshi	r9, lr, #768	; 0x300
     624:	4a01e803 	bmi	7a638 <LOADER_PHYS_START-0x3ff859c8>
     628:	7eec036c 	cdpvc	3, 14, cr0, cr12, cr12, {3}
     62c:	018e032e 	orreq	r0, lr, lr, lsr #6
     630:	032f332e 	teqeq	pc, #-1207959552	; 0xb8000000
     634:	032e7eeb 	teqeq	lr, #3760	; 0xeb0
     638:	032e0195 	teqeq	lr, #1073741861	; 0x40000025
     63c:	034a7df1 	movteq	r7, #44529	; 0xadf1
     640:	2d8201f2 	stfcss	f0, [r2, #968]	; 0x3c8
     644:	7f8f032f 	svcvc	0x008f032f
     648:	03466a2e 	movteq	r6, #27182	; 0x6a2e
     64c:	03827eff 	orreq	r7, r2, #4080	; 0xff0
     650:	032e0181 	teqeq	lr, #1073741856	; 0x40000020
     654:	032e0187 	teqeq	lr, #-1073741791	; 0xc0000021
     658:	032e7df8 	teqeq	lr, #15872	; 0x3e00
     65c:	2b2e0288 	blcs	b81084 <LOADER_PHYS_START-0x3f47ef7c>
     660:	667f8203 	ldrbtvs	r8, [pc], -r3, lsl #4
     664:	4a0a0330 	bmi	28132c <LOADER_PHYS_START-0x3fd7ecd4>
     668:	032e7403 	teqeq	lr, #50331648	; 0x3000000
     66c:	03312e09 	teqeq	r1, #144	; 0x90
     670:	03f20180 	mvnseq	r0, #32
     674:	039e7f80 	orrseq	r7, lr, #512	; 0x200
     678:	3c0800f5 	stccc	0, cr0, [r8], {245}	; 0xf5
     67c:	032e7803 	teqeq	lr, #196608	; 0x30000
     680:	032e7e80 	teqeq	lr, #2048	; 0x800
     684:	84ba0197 	ldrthi	r0, [sl], #407	; 0x197
     688:	032d2f4c 	teqeq	sp, #304	; 0x130
     68c:	03366609 	teqeq	r6, #9437184	; 0x900000
     690:	034a00d9 	movteq	r0, #41177	; 0xa0d9
     694:	2f4a7f86 	svccs	0x004a7f86
     698:	1f03362d 	svcne	0x0003362d
     69c:	2d2f4c4a 	stccs	12, cr4, [pc, #-296]!	; 57c <LOADER_PHYS_START-0x3ffffa84>
     6a0:	6600d103 	strvs	sp, [r0], -r3, lsl #2
     6a4:	032e7203 	teqeq	lr, #805306368	; 0x30000000
     6a8:	b0032e0e 	andlt	r2, r3, lr, lsl #28
     6ac:	5e034a7f 	mcrpl	10, 0, r4, cr3, cr15, {3}
     6b0:	00ed034a 	rsceq	r0, sp, sl, asr #6
     6b4:	7fb5032e 	svcvc	0x00b5032e
     6b8:	00cb032e 	sbceq	r0, fp, lr, lsr #6
     6bc:	f803362e 			; <UNDEFINED> instruction: 0xf803362e
     6c0:	ba032e7d 	blt	cc0bc <LOADER_PHYS_START-0x3ff33f44>
     6c4:	302dba01 	eorcc	fp, sp, r1, lsl #20
     6c8:	d600ca03 	strle	ip, [r0], -r3, lsl #20
     6cc:	034a4d03 	movteq	r4, #44291	; 0xad03
     6d0:	f5034a41 			; <UNDEFINED> instruction: 0xf5034a41
     6d4:	78032e00 	stmdavc	r3, {r9, sl, fp, sp}
     6d8:	7e80032e 	cdpvc	3, 8, cr0, cr0, cr14, {1}
     6dc:	01e0032e 	mvneq	r0, lr, lsr #6
     6e0:	032f2dba 	teqeq	pc, #11904	; 0x2e80
     6e4:	5b038225 	blpl	e0f80 <LOADER_PHYS_START-0x3ff1f080>
     6e8:	7f9a034a 	svcvc	0x009a034a
     6ec:	7f86032e 	svcvc	0x0086032e
     6f0:	823b034a 	eorshi	r0, fp, #671088641	; 0x28000001
     6f4:	01c9034b 	biceq	r0, r9, fp, asr #6
     6f8:	7eb9032e 	cdpvc	3, 11, cr0, cr9, cr14, {1}
     6fc:	01c7032e 	biceq	r0, r7, lr, lsr #6
     700:	8003452e 	andhi	r4, r3, lr, lsr #10
     704:	c2032e7e 	andgt	r2, r3, #2016	; 0x7e0
     708:	034b4a00 	movteq	r4, #47616	; 0xba00
     70c:	312e019d 			; <UNDEFINED> instruction: 0x312e019d
     710:	4a7fbb03 	bmi	1fef324 <LOADER_PHYS_START-0x3e010cdc>
     714:	034a7503 	movteq	r7, #42243	; 0xa503
     718:	032e00f5 	teqeq	lr, #245	; 0xf5
     71c:	80032e78 	andhi	r2, r3, r8, ror lr
     720:	a5032e7e 	strge	r2, [r3, #-3710]	; 0xe7e
     724:	4c84ba01 	vstmiami	r4, {s22}
     728:	4d2d3429 	cfstrsmi	mvf3, [sp, #-164]!	; 0xffffff5c
     72c:	00dc032b 	sbcseq	r0, ip, fp, lsr #6
     730:	4a5b034a 	bmi	16c1460 <LOADER_PHYS_START-0x3e93eba0>
     734:	844a5e03 	strbhi	r5, [sl], #-3587	; 0xe03
     738:	032d2f4c 	teqeq	sp, #304	; 0x130
     73c:	79036610 	stmdbvc	r3, {r4, r9, sl, sp, lr}
     740:	2f4c844a 	svccs	0x004c844a
     744:	0008022d 	andeq	r0, r8, sp, lsr #4
     748:	00f40101 	rscseq	r0, r4, r1, lsl #2
     74c:	00020000 	andeq	r0, r2, r0
     750:	0000007b 	andeq	r0, r0, fp, ror r0
     754:	0efb0102 	cdpeq	1, 15, cr0, cr11, cr2, {0}
     758:	0101000d 	tsteq	r1, sp
     75c:	00000101 	andeq	r0, r0, r1, lsl #2
     760:	00000100 	andeq	r0, r0, r0, lsl #2
     764:	2f2e2e01 	svccs	0x002e2e01
     768:	2e2f2e2e 	cdpcs	14, 2, cr2, cr15, cr14, {1}
     76c:	2e2e2f2e 	cdpcs	15, 2, cr2, cr14, cr14, {1}
     770:	6d6f632f 	stclvs	3, cr6, [pc, #-188]!	; 6bc <LOADER_PHYS_START-0x3ffff944>
     774:	2f6e6f6d 	svccs	0x006e6f6d
     778:	00676f6c 	rsbeq	r6, r7, ip, ror #30
     77c:	2e2f2e2e 	cdpcs	14, 2, cr2, cr15, cr14, {1}
     780:	2e2e2f2e 	cdpcs	15, 2, cr2, cr14, cr14, {1}
     784:	2f2e2e2f 	svccs	0x002e2e2f
     788:	6d6d6f63 	stclvs	15, cr6, [sp, #-396]!	; 0xfffffe74
     78c:	692f6e6f 	stmdbvs	pc!, {r0, r1, r2, r3, r5, r6, r9, sl, fp, sp, lr}	; <UNPREDICTABLE>
     790:	756c636e 	strbvc	r6, [ip, #-878]!	; 0x36e
     794:	00006564 	andeq	r6, r0, r4, ror #10
     798:	6d726f66 	ldclvs	15, cr6, [r2, #-408]!	; 0xfffffe68
     79c:	632e7461 	teqvs	lr, #1627389952	; 0x61000000
     7a0:	00000100 	andeq	r0, r0, r0, lsl #2
     7a4:	6d726f66 	ldclvs	15, cr6, [r2, #-408]!	; 0xfffffe68
     7a8:	682e7461 	stmdavs	lr!, {r0, r5, r6, sl, ip, sp, lr}
     7ac:	00000100 	andeq	r0, r0, r0, lsl #2
     7b0:	68637261 	stmdavs	r3!, {r0, r5, r6, r9, ip, sp, lr}^
     7b4:	7079745f 	rsbsvc	r7, r9, pc, asr r4
     7b8:	682e7365 	stmdavs	lr!, {r0, r2, r5, r6, r8, r9, ip, sp, lr}
     7bc:	00000200 	andeq	r0, r0, r0, lsl #4
     7c0:	6975623c 	ldmdbvs	r5!, {r2, r3, r4, r5, r9, sp, lr}^
     7c4:	692d746c 	pushvs	{r2, r3, r5, r6, sl, ip, sp, lr}
     7c8:	00003e6e 	andeq	r3, r0, lr, ror #28
     7cc:	00000000 	andeq	r0, r0, r0
     7d0:	0c600205 	sfmeq	f0, 2, [r0], #-20	; 0xffffffec
     7d4:	15034000 	strne	r4, [r3, #-0]
     7d8:	7a031801 	bvc	c67e4 <LOADER_PHYS_START-0x3ff3981c>
     7dc:	19036c2e 	stmdbne	r3, {r1, r2, r3, r5, sl, fp, sp, lr}
     7e0:	4a6a0366 	bmi	1a81580 <LOADER_PHYS_START-0x3e57ea80>
     7e4:	322f2d2f 	eorcc	r2, pc, #3008	; 0xbc0
     7e8:	2fb9312b 	svccs	0x00b9312b
     7ec:	74033349 	strvc	r3, [r3], #-841	; 0x349
     7f0:	2e14039e 	mrccs	3, 0, r0, cr4, cr14, {4}
     7f4:	2f29332a 	svccs	0x0029332a
     7f8:	032f302f 	teqeq	pc, #47	; 0x2f
     7fc:	7603667a 			; <UNDEFINED> instruction: 0x7603667a
     800:	10036d66 	andne	r6, r3, r6, ror #26
     804:	03342e9e 	teqeq	r4, #2528	; 0x9e0
     808:	03342e7a 	teqeq	r4, #1952	; 0x7a0
     80c:	2f464a12 	svccs	0x00464a12
     810:	03322c2f 	teqeq	r2, #12032	; 0x2f00
     814:	4c832e6e 	stcmi	14, cr2, [r3], {110}	; 0x6e
     818:	4c4c2f2d 	mcrrmi	15, 2, r2, ip, cr13
     81c:	034b4c4c 	movteq	r4, #48204	; 0xbc4c
     820:	0c038274 	sfmeq	f0, 1, [r3], {116}	; 0x74
     824:	2e74032e 	cdpcs	3, 7, cr0, cr4, cr14, {1}
     828:	03661a03 	cmneq	r6, #12288	; 0x3000
     82c:	032f4a75 	teqeq	pc, #479232	; 0x75000
     830:	b8d4827a 	ldmlt	r4, {r1, r3, r4, r5, r6, r9, pc}^
     834:	f21903b8 	vcge.s16	d0, d25, d24
     838:	13316713 	teqne	r1, #4980736	; 0x4c0000
     83c:	00020267 	andeq	r0, r2, r7, ror #4
     840:	027a0101 	rsbseq	r0, sl, #1073741824	; 0x40000000
     844:	00020000 	andeq	r0, r2, r0
     848:	000000cf 	andeq	r0, r0, pc, asr #1
     84c:	0efb0102 	cdpeq	1, 15, cr0, cr11, cr2, {0}
     850:	0101000d 	tsteq	r1, sp
     854:	00000101 	andeq	r0, r0, r1, lsl #2
     858:	00000100 	andeq	r0, r0, r0, lsl #2
     85c:	2f2e2e01 	svccs	0x002e2e01
     860:	2e2f2e2e 	cdpcs	14, 2, cr2, cr15, cr14, {1}
     864:	2e2e2f2e 	cdpcs	15, 2, cr2, cr14, cr14, {1}
     868:	6d6f632f 	stclvs	3, cr6, [pc, #-188]!	; 7b4 <LOADER_PHYS_START-0x3ffff84c>
     86c:	2f6e6f6d 	svccs	0x006e6f6d
     870:	00676f6c 	rsbeq	r6, r7, ip, ror #30
     874:	7273752f 	rsbsvc	r7, r3, #197132288	; 0xbc00000
     878:	6d72612f 	ldfvse	f6, [r2, #-188]!	; 0xffffff44
     87c:	6e696c2d 	cdpvs	12, 6, cr6, cr9, cr13, {1}
     880:	672d7875 			; <UNDEFINED> instruction: 0x672d7875
     884:	6165756e 	cmnvs	r5, lr, ror #10
     888:	66686962 	strbtvs	r6, [r8], -r2, ror #18
     88c:	636e692f 	cmnvs	lr, #770048	; 0xbc000
     890:	6564756c 	strbvs	r7, [r4, #-1388]!	; 0x56c
     894:	7469622f 	strbtvc	r6, [r9], #-559	; 0x22f
     898:	752f0073 	strvc	r0, [pc, #-115]!	; 82d <LOADER_PHYS_START-0x3ffff7d3>
     89c:	612f7273 	teqvs	pc, r3, ror r2	; <UNPREDICTABLE>
     8a0:	6c2d6d72 	stcvs	13, cr6, [sp], #-456	; 0xfffffe38
     8a4:	78756e69 	ldmdavc	r5!, {r0, r3, r5, r6, r9, sl, fp, sp, lr}^
     8a8:	756e672d 	strbvc	r6, [lr, #-1837]!	; 0x72d
     8ac:	69626165 	stmdbvs	r2!, {r0, r2, r5, r6, r8, sp, lr}^
     8b0:	692f6668 	stmdbvs	pc!, {r3, r5, r6, r9, sl, sp, lr}	; <UNPREDICTABLE>
     8b4:	756c636e 	strbvc	r6, [ip, #-878]!	; 0x36e
     8b8:	2f006564 	svccs	0x00006564
     8bc:	2f727375 	svccs	0x00727375
     8c0:	2f62696c 	svccs	0x0062696c
     8c4:	2f636367 	svccs	0x00636367
     8c8:	2d6d7261 	sfmcs	f7, 2, [sp, #-388]!	; 0xfffffe7c
     8cc:	756e696c 	strbvc	r6, [lr, #-2412]!	; 0x96c
     8d0:	6e672d78 	mcrvs	13, 3, r2, cr7, cr8, {3}
     8d4:	62616575 	rsbvs	r6, r1, #490733568	; 0x1d400000
     8d8:	2f666869 	svccs	0x00666869
     8dc:	2f362e34 	svccs	0x00362e34
     8e0:	6c636e69 	stclvs	14, cr6, [r3], #-420	; 0xfffffe5c
     8e4:	00656475 	rsbeq	r6, r5, r5, ror r4
     8e8:	72747300 	rsbsvc	r7, r4, #0
     8ec:	2e676e69 	cdpcs	14, 6, cr6, cr7, cr9, {3}
     8f0:	00010063 	andeq	r0, r1, r3, rrx
     8f4:	72747300 	rsbsvc	r7, r4, #0
     8f8:	33676e69 	cmncc	r7, #1680	; 0x690
     8fc:	0200682e 	andeq	r6, r0, #3014656	; 0x2e0000
     900:	74730000 	ldrbtvc	r0, [r3], #-0
     904:	676e6972 			; <UNDEFINED> instruction: 0x676e6972
     908:	0300682e 	movweq	r6, #2094	; 0x82e
     90c:	74730000 	ldrbtvc	r0, [r3], #-0
     910:	66656464 	strbtvs	r6, [r5], -r4, ror #8
     914:	0400682e 	streq	r6, [r0], #-2094	; 0x82e
     918:	00000000 	andeq	r0, r0, r0
     91c:	0e780205 	cdpeq	2, 7, cr0, cr8, cr5, {0}
     920:	16034000 	strne	r4, [r3], -r0
     924:	016f0301 	cmneq	pc, r1, lsl #6
     928:	13036567 	movwne	r6, #13671	; 0x3567
     92c:	2d13314a 	ldfcss	f3, [r3, #-296]	; 0xfffffed8
     930:	2e69032f 	cdpcs	3, 6, cr0, cr9, cr15, {1}
     934:	1b036567 	blne	d9ed8 <LOADER_PHYS_START-0x3ff26128>
     938:	4a6f034a 	bmi	1bc1668 <LOADER_PHYS_START-0x3e43e998>
     93c:	03020448 	movweq	r0, #9288	; 0x2448
     940:	0104822a 	tsteq	r4, sl, lsr #4
     944:	494a5903 	stmdbmi	sl, {r0, r1, r8, fp, ip, lr}^
     948:	14662903 	strbtne	r2, [r6], #-2307	; 0x903
     94c:	2d2f2f65 	stccs	15, cr2, [pc, #-404]!	; 7c0 <LOADER_PHYS_START-0x3ffff840>
     950:	00c40331 	sbceq	r0, r4, r1, lsr r3
     954:	0030012e 	eorseq	r0, r0, lr, lsr #2
     958:	83020402 	movwhi	r0, #9218	; 0x2402
     95c:	02040200 	andeq	r0, r4, #0
     960:	2c30852d 	cfldr32cs	mvfx8, [r0], #-180	; 0xffffff4c
     964:	32032930 	andcc	r2, r3, #786432	; 0xc0000
     968:	2f2d134a 	svccs	0x002d134a
     96c:	57030204 	strpl	r0, [r3, -r4, lsl #4]
     970:	03010466 	movweq	r0, #5222	; 0x1466
     974:	02042e29 	andeq	r2, r4, #656	; 0x290
     978:	042e5703 	strteq	r5, [lr], #-1795	; 0x703
     97c:	2e290301 	cdpcs	3, 2, cr0, cr9, cr1, {0}
     980:	01040200 	mrseq	r0, R12_usr
     984:	0666064d 	strbteq	r0, [r6], -sp, asr #12
     988:	2b312d2f 	blcs	c4be4c <LOADER_PHYS_START-0x3f3b41b4>
     98c:	302c304f 	eorcc	r3, ip, pc, asr #32
     990:	2e7ee303 	cdpcs	3, 7, cr14, cr14, cr3, {0}
     994:	04302c14 	ldrteq	r2, [r0], #-3092	; 0xc14
     998:	9e390303 	cdpls	3, 3, cr0, cr9, cr3, {0}
     99c:	02000104 	andeq	r0, r0, #1
     9a0:	47030204 	strmi	r0, [r3, -r4, lsl #4]
     9a4:	04820666 	streq	r0, [r2], #1638	; 0x666
     9a8:	39030603 	stmdbcc	r3, {r0, r1, r9, sl}
     9ac:	0301042e 	movweq	r0, #5166	; 0x142e
     9b0:	2f354a47 	svccs	0x00354a47
     9b4:	08144e49 	ldmdaeq	r4, {r0, r3, r6, r9, sl, fp, lr}
     9b8:	2e0b033f 	mcrcs	3, 0, r0, cr11, cr15, {1}
     9bc:	2f312b15 	svccs	0x00312b15
     9c0:	84672b84 	strbthi	r2, [r7], #-2948	; 0xb84
     9c4:	2e03042b 	cdpcs	4, 0, cr0, cr3, cr11, {1}
     9c8:	2d4b0104 	stfcse	f0, [fp, #-16]
     9cc:	2f2e0903 	svccs	0x002e0903
     9d0:	4c4a7803 	mcrrmi	8, 0, r7, sl, cr3
     9d4:	bb134e4f 	bllt	4d4318 <LOADER_PHYS_START-0x3fb2bce8>
     9d8:	0402004c 	streq	r0, [r2], #-76	; 0x4c
     9dc:	02006302 	andeq	r6, r0, #134217728	; 0x8000000
     9e0:	002f0204 	eoreq	r0, pc, r4, lsl #4
     9e4:	2d020402 	cfstrscs	mvf0, [r2, #-8]
     9e8:	352b4c4b 	strcc	r4, [fp, #-3147]!	; 0xc4b
     9ec:	2d2e7a03 	vstmdbcs	lr!, {s14-s16}
     9f0:	2f4a0903 	svccs	0x004a0903
     9f4:	48667a03 	stmdami	r6!, {r0, r1, r9, fp, ip, sp, lr}^
     9f8:	2e0b034c 	cdpcs	3, 0, cr0, cr11, cr12, {2}
     9fc:	21082f31 	tstcs	r8, r1, lsr pc
     a00:	00312b4c 	eorseq	r2, r1, ip, asr #22
     a04:	63020402 	movwvs	r0, #9218	; 0x2402
     a08:	01040200 	mrseq	r0, R12_usr
     a0c:	02006606 	andeq	r6, r0, #6291456	; 0x600000
     a10:	4b060104 	blmi	180e28 <LOADER_PHYS_START-0x3fe7f1d8>
     a14:	01040200 	mrseq	r0, R12_usr
     a18:	044c2f2d 	strbeq	r2, [ip], #-3885	; 0xf2d
     a1c:	2e2a0303 	cdpcs	3, 2, cr0, cr10, cr3, {0}
     a20:	53030104 	movwpl	r0, #12548	; 0x3104
     a24:	0303044a 	movweq	r0, #13386	; 0x344a
     a28:	01042e2d 	tsteq	r4, sp, lsr #28
     a2c:	522e5303 	eorpl	r5, lr, #201326592	; 0xc000000
     a30:	01040200 	mrseq	r0, R12_usr
     a34:	02004a06 	andeq	r4, r0, #24576	; 0x6000
     a38:	67060104 	strvs	r0, [r6, -r4, lsl #2]
     a3c:	33068206 	movwcc	r8, #25094	; 0x6206
     a40:	4a750349 	bmi	1d4176c <LOADER_PHYS_START-0x3e2be894>
     a44:	9e110348 	cdpls	3, 1, cr0, cr1, cr8, {2}
     a48:	04020014 	streq	r0, [r2], #-20
     a4c:	4aba0602 	bmi	fee8225c <restore_guest_end+0x8e78225c>
     a50:	502d2f06 	eorpl	r2, sp, r6, lsl #30
     a54:	0e03492f 	cdpeq	9, 0, cr4, cr3, cr15, {1}
     a58:	0080324a 	addeq	r3, r0, sl, asr #4
     a5c:	33010402 	movwcc	r0, #5122	; 0x1402
     a60:	03667803 	cmneq	r6, #196608	; 0x30000
     a64:	672c660a 	strvs	r6, [ip, -sl, lsl #12]!
     a68:	2c302d2f 	ldccs	13, cr2, [r0], #-188	; 0xffffff44
     a6c:	2c2f2f30 	stccs	15, cr2, [pc], #-192	; 9b4 <LOADER_PHYS_START-0x3ffff64c>
     a70:	032a322b 	teqeq	sl, #-1342177278	; 0xb0000002
     a74:	2d454a0b 	vstrcs	s9, [r5, #-44]	; 0xffffffd4
     a78:	0402002f 	streq	r0, [r2], #-47	; 0x2f
     a7c:	4a770301 	bmi	1dc1688 <LOADER_PHYS_START-0x3e23e978>
     a80:	2f474f64 	svccs	0x00474f64
     a84:	034a1003 	movteq	r1, #40963	; 0xa003
     a88:	77030109 	strvc	r0, [r3, -r9, lsl #2]
     a8c:	332d2f2e 	teqcc	sp, #184	; 0xb8
     a90:	01040200 	mrseq	r0, R12_usr
     a94:	4e068206 	cdpmi	2, 0, cr8, cr6, cr6, {0}
     a98:	4a79034c 	bmi	1e417d0 <LOADER_PHYS_START-0x3e1be830>
     a9c:	4b4a0903 	blmi	1282eb0 <LOADER_PHYS_START-0x3ed7d150>
     aa0:	11034b69 	tstne	r3, r9, ror #22
     aa4:	9f851766 	svcls	0x00851766
     aa8:	4f492f2d 	svcmi	0x00492f2d
     aac:	01040200 	mrseq	r0, R12_usr
     ab0:	02004a06 	andeq	r4, r0, #24576	; 0x6000
     ab4:	2f060104 	svccs	0x00060104
     ab8:	022e7a03 	eoreq	r7, lr, #12288	; 0x3000
     abc:	01010004 	tsteq	r1, r4
     ac0:	0000005d 	andeq	r0, r0, sp, asr r0
     ac4:	00400002 	subeq	r0, r0, r2
     ac8:	01020000 	mrseq	r0, (UNDEF: 2)
     acc:	000d0efb 	strdeq	r0, [sp], -fp
     ad0:	01010101 	tsteq	r1, r1, lsl #2
     ad4:	01000000 	mrseq	r0, (UNDEF: 0)
     ad8:	2e010000 	cdpcs	0, 0, cr0, cr1, cr0, {0}
     adc:	2e2e2f2e 	cdpcs	15, 2, cr2, cr14, cr14, {1}
     ae0:	2f2e2e2f 	svccs	0x002e2e2f
     ae4:	632f2e2e 	teqvs	pc, #736	; 0x2e0
     ae8:	6f6d6d6f 	svcvs	0x006d6d6f
     aec:	75672f6e 	strbvc	r2, [r7, #-3950]!	; 0xf6e
     af0:	2f747365 	svccs	0x00747365
     af4:	65726f63 	ldrbvs	r6, [r2, #-3939]!	; 0xf63
     af8:	78650000 	stmdavc	r5!, {}^	; <UNPREDICTABLE>
     afc:	74706563 	ldrbtvc	r6, [r0], #-1379	; 0x563
     b00:	2e6e6f69 	cdpcs	15, 6, cr6, cr14, cr9, {3}
     b04:	00010063 	andeq	r0, r1, r3, rrx
     b08:	05000000 	streq	r0, [r0, #-0]
     b0c:	0013d002 	andseq	sp, r3, r2
     b10:	010a0340 	tsteq	sl, r0, asr #6
     b14:	31133113 	tstcc	r3, r3, lsl r1
     b18:	112f2f01 	teqne	pc, r1, lsl #30
     b1c:	01000202 	tsteq	r0, r2, lsl #4
     b20:	00016701 	andeq	r6, r1, r1, lsl #14
     b24:	87000200 	strhi	r0, [r0, -r0, lsl #4]
     b28:	02000000 	andeq	r0, r0, #0
     b2c:	0d0efb01 	vstreq	d15, [lr, #-4]
     b30:	01010100 	mrseq	r0, (UNDEF: 17)
     b34:	00000001 	andeq	r0, r0, r1
     b38:	01000001 	tsteq	r0, r1
     b3c:	2e2f2e2e 	cdpcs	14, 2, cr2, cr15, cr14, {1}
     b40:	2e2e2f2e 	cdpcs	15, 2, cr2, cr14, cr14, {1}
     b44:	2f2e2e2f 	svccs	0x002e2e2f
     b48:	6d6d6f63 	stclvs	15, cr6, [sp, #-396]!	; 0xfffffe74
     b4c:	672f6e6f 	strvs	r6, [pc, -pc, ror #28]!
     b50:	74736575 	ldrbtvc	r6, [r3], #-1397	; 0x575
     b54:	726f632f 	rsbvc	r6, pc, #-1140850688	; 0xbc000000
     b58:	2e2e0065 	cdpcs	0, 2, cr0, cr14, cr5, {3}
     b5c:	2f2e2e2f 	svccs	0x002e2e2f
     b60:	2e2f2e2e 	cdpcs	14, 2, cr2, cr15, cr14, {1}
     b64:	6f632f2e 	svcvs	0x00632f2e
     b68:	6e6f6d6d 	cdpvs	13, 6, cr6, cr15, cr13, {3}
     b6c:	636e692f 	cmnvs	lr, #770048	; 0xbc000
     b70:	6564756c 	strbvs	r7, [r4, #-1388]!	; 0x56c
     b74:	69670000 	stmdbvs	r7!, {}^	; <UNPREDICTABLE>
     b78:	00632e63 	rsbeq	r2, r3, r3, ror #28
     b7c:	73000001 	movwvc	r0, #1
     b80:	682e706d 	stmdavs	lr!, {r0, r2, r3, r5, r6, ip, sp, lr}
     b84:	00000200 	andeq	r0, r0, r0, lsl #4
     b88:	68637261 	stmdavs	r3!, {r0, r5, r6, r9, ip, sp, lr}^
     b8c:	7079745f 	rsbsvc	r7, r9, pc, asr r4
     b90:	682e7365 	stmdavs	lr!, {r0, r2, r5, r6, r8, r9, ip, sp, lr}
     b94:	00000200 	andeq	r0, r0, r0, lsl #4
     b98:	6d6d7668 	stclvs	6, cr7, [sp, #-416]!	; 0xfffffe60
     b9c:	7079745f 	rsbsvc	r7, r9, pc, asr r4
     ba0:	682e7365 	stmdavs	lr!, {r0, r2, r5, r6, r8, r9, ip, sp, lr}
     ba4:	00000200 	andeq	r0, r0, r0, lsl #4
     ba8:	2e636967 	cdpcs	9, 6, cr6, cr3, cr7, {3}
     bac:	00010068 	andeq	r0, r1, r8, rrx
     bb0:	05000000 	streq	r0, [r0, #-0]
     bb4:	0013e402 	andseq	lr, r3, r2, lsl #8
     bb8:	019e0340 	orrseq	r0, lr, r0, asr #6
     bbc:	2cf41301 	ldclcs	3, cr1, [r4], #4
     bc0:	f4133130 			; <UNDEFINED> instruction: 0xf4133130
     bc4:	1432302c 	ldrtne	r3, [r2], #-44	; 0x2c
     bc8:	2f2f302c 	svccs	0x002f302c
     bcc:	4d34642d 	cfldrsmi	mvf6, [r4, #-180]!	; 0xffffff4c
     bd0:	002d2933 	eoreq	r2, sp, r3, lsr r9
     bd4:	34020402 	strcc	r0, [r2], #-1026	; 0x402
     bd8:	02040200 	andeq	r0, r4, #0
     bdc:	4a48032d 	bmi	1201898 <LOADER_PHYS_START-0x3edfe768>
     be0:	2e09032f 	cdpcs	3, 0, cr0, cr9, cr15, {1}
     be4:	2f2e7703 	svccs	0x002e7703
     be8:	2e780336 	mrccs	3, 3, r0, cr8, cr6, {1}
     bec:	036c512f 	cmneq	ip, #-1073741813	; 0xc000000b
     bf0:	53032e2d 	movwpl	r2, #15917	; 0x3e2d
     bf4:	4b4b2f2e 	blmi	12cc8b4 <LOADER_PHYS_START-0x3ed3374c>
     bf8:	a04a2a03 	subge	r2, sl, r3, lsl #20
     bfc:	34473151 	strbcc	r3, [r7], #-337	; 0x151
     c00:	2b2e7a03 	blcs	b9f414 <LOADER_PHYS_START-0x3f460bec>
     c04:	2e7a0334 	mrccs	3, 3, r0, cr10, cr4, {1}
     c08:	bf036934 	svclt	0x00036934
     c0c:	2c4c2e7f 	mcrrcs	14, 7, r2, ip, cr15
     c10:	03492d30 	movteq	r2, #40240	; 0x9d30
     c14:	50032e32 	andpl	r2, r3, r2, lsr lr
     c18:	2e30032e 	cdpcs	3, 3, cr0, cr0, cr14, {1}
     c1c:	7f920368 	svcvc	0x00920368
     c20:	4b4b2f4a 	blmi	12cc950 <LOADER_PHYS_START-0x3ed336b0>
     c24:	6c03844b 	cfstrsvs	mvf8, [r3], {75}	; 0x4b
     c28:	2e14032e 	cdpcs	3, 1, cr0, cr4, cr14, {1}
     c2c:	4b4b4b2f 	blmi	12d38f0 <LOADER_PHYS_START-0x3ed2c710>
     c30:	674b4b4b 	strbvs	r4, [fp, -fp, asr #22]
     c34:	4b4b4b4b 	blmi	12d3968 <LOADER_PHYS_START-0x3ed2c698>
     c38:	4b4b674b 	blmi	12da96c <LOADER_PHYS_START-0x3ed25694>
     c3c:	674b4b67 	strbvs	r4, [fp, -r7, ror #22]
     c40:	4b674b4b 	blmi	19d3974 <LOADER_PHYS_START-0x3e62c68c>
     c44:	4b4b674b 	blmi	12da978 <LOADER_PHYS_START-0x3ed25688>
     c48:	4a470367 	bmi	11c19ec <LOADER_PHYS_START-0x3ee3e614>
     c4c:	2f2f2a4e 	svccs	0x002f2a4e
     c50:	312f2f2f 	teqcc	pc, pc, lsr #30
     c54:	2f4b4b2f 	svccs	0x004b4b2f
     c58:	86034b2f 	strhi	r4, [r3], -pc, lsr #22
     c5c:	01260201 	teqeq	r6, r1, lsl #4
     c60:	c6030204 	strgt	r0, [r3], -r4, lsl #4
     c64:	01044a7e 	tsteq	r4, lr, ror sl
     c68:	2e01c703 	cdpcs	7, 0, cr12, cr1, cr3, {0}
     c6c:	4b2f2c4c 	blmi	bcbda4 <LOADER_PHYS_START-0x3f43425c>
     c70:	4a09034b 	bmi	2419a4 <LOADER_PHYS_START-0x3fdbe65c>
     c74:	2d2f6983 	stccs	9, cr6, [pc, #-524]!	; a70 <LOADER_PHYS_START-0x3ffff590>
     c78:	2e09032f 	cdpcs	3, 0, cr0, cr9, cr15, {1}
     c7c:	674a6a03 	strbvs	r6, [sl, -r3, lsl #20]
     c80:	4b4b4b4b 	blmi	12d39b4 <LOADER_PHYS_START-0x3ed2c64c>
     c84:	02312b4d 	eorseq	r2, r1, #78848	; 0x13400
     c88:	01010010 	tsteq	r1, r0, lsl r0
     c8c:	00000082 	andeq	r0, r0, r2, lsl #1
     c90:	006d0002 	rsbeq	r0, sp, r2
     c94:	01020000 	mrseq	r0, (UNDEF: 2)
     c98:	000d0efb 	strdeq	r0, [sp], -fp
     c9c:	01010101 	tsteq	r1, r1, lsl #2
     ca0:	01000000 	mrseq	r0, (UNDEF: 0)
     ca4:	2e010000 	cdpcs	0, 0, cr0, cr1, cr0, {0}
     ca8:	2e2e2f2e 	cdpcs	15, 2, cr2, cr14, cr14, {1}
     cac:	2f2e2e2f 	svccs	0x002e2e2f
     cb0:	632f2e2e 	teqvs	pc, #736	; 0x2e0
     cb4:	6f6d6d6f 	svcvs	0x006d6d6f
     cb8:	75672f6e 	strbvc	r2, [r7, #-3950]!	; 0xf6e
     cbc:	2f747365 	svccs	0x00747365
     cc0:	74736574 	ldrbtvc	r6, [r3], #-1396	; 0x574
     cc4:	2f2e2e00 	svccs	0x002e2e00
     cc8:	2e2f2e2e 	cdpcs	14, 2, cr2, cr15, cr14, {1}
     ccc:	2e2e2f2e 	cdpcs	15, 2, cr2, cr14, cr14, {1}
     cd0:	6d6f632f 	stclvs	3, cr6, [pc, #-188]!	; c1c <LOADER_PHYS_START-0x3ffff3e4>
     cd4:	2f6e6f6d 	svccs	0x006e6f6d
     cd8:	6c636e69 	stclvs	14, cr6, [r3], #-420	; 0xfffffe5c
     cdc:	00656475 	rsbeq	r6, r5, r5, ror r4
     ce0:	73657400 	cmnvc	r5, #0
     ce4:	74765f74 	ldrbtvc	r5, [r6], #-3956	; 0xf74
     ce8:	72656d69 	rsbvc	r6, r5, #6720	; 0x1a40
     cec:	0100632e 	tsteq	r0, lr, lsr #6
     cf0:	72610000 	rsbvc	r0, r1, #0
     cf4:	745f6863 	ldrbvc	r6, [pc], #-2147	; cfc <LOADER_PHYS_START-0x3ffff304>
     cf8:	73657079 	cmnvc	r5, #121	; 0x79
     cfc:	0200682e 	andeq	r6, r0, #3014656	; 0x2e0000
     d00:	00000000 	andeq	r0, r0, r0
     d04:	17f80205 	ldrbne	r0, [r8, r5, lsl #4]!
     d08:	131a4000 	tstne	sl, #0
     d0c:	00020283 	andeq	r0, r2, r3, lsl #5
     d10:	00e90101 	rsceq	r0, r9, r1, lsl #2
     d14:	00020000 	andeq	r0, r2, r0
     d18:	0000006f 	andeq	r0, r0, pc, rrx
     d1c:	0efb0102 	cdpeq	1, 15, cr0, cr11, cr2, {0}
     d20:	0101000d 	tsteq	r1, sp
     d24:	00000101 	andeq	r0, r0, r1, lsl #2
     d28:	00000100 	andeq	r0, r0, r0, lsl #2
     d2c:	2f2e2e01 	svccs	0x002e2e01
     d30:	2e2f2e2e 	cdpcs	14, 2, cr2, cr15, cr14, {1}
     d34:	2e2e2f2e 	cdpcs	15, 2, cr2, cr14, cr14, {1}
     d38:	6d6f632f 	stclvs	3, cr6, [pc, #-188]!	; c84 <LOADER_PHYS_START-0x3ffff37c>
     d3c:	2f6e6f6d 	svccs	0x006e6f6d
     d40:	73657567 	cmnvc	r5, #432013312	; 0x19c00000
     d44:	6f6c2f74 	svcvs	0x006c2f74
     d48:	72656461 	rsbvc	r6, r5, #1627389952	; 0x61000000
     d4c:	2f2e2e00 	svccs	0x002e2e00
     d50:	2e2f2e2e 	cdpcs	14, 2, cr2, cr15, cr14, {1}
     d54:	2e2e2f2e 	cdpcs	15, 2, cr2, cr14, cr14, {1}
     d58:	6d6f632f 	stclvs	3, cr6, [pc, #-188]!	; ca4 <LOADER_PHYS_START-0x3ffff35c>
     d5c:	2f6e6f6d 	svccs	0x006e6f6d
     d60:	6c636e69 	stclvs	14, cr6, [r3], #-420	; 0xfffffe5c
     d64:	00656475 	rsbeq	r6, r5, r5, ror r4
     d68:	6e696c00 	cdpvs	12, 6, cr6, cr9, cr0, {0}
     d6c:	6f6c7875 	svcvs	0x006c7875
     d70:	72656461 	rsbvc	r6, r5, #1627389952	; 0x61000000
     d74:	0100632e 	tsteq	r0, lr, lsr #6
     d78:	72610000 	rsbvc	r0, r1, #0
     d7c:	745f6863 	ldrbvc	r6, [pc], #-2147	; d84 <LOADER_PHYS_START-0x3ffff27c>
     d80:	73657079 	cmnvc	r5, #121	; 0x79
     d84:	0200682e 	andeq	r6, r0, #3014656	; 0x2e0000
     d88:	00000000 	andeq	r0, r0, r0
     d8c:	180c0205 	stmdane	ip, {r0, r2, r9}
     d90:	b0034000 	andlt	r4, r3, r0
     d94:	ba030101 	blt	c11a0 <LOADER_PHYS_START-0x3ff3ee60>
     d98:	c6032e7f 			; <UNDEFINED> instruction: 0xc6032e7f
     d9c:	b6032e00 	strlt	r2, [r3], -r0, lsl #28
     da0:	03322e7f 	teqeq	r2, #2032	; 0x7f0
     da4:	6b032e21 	blvs	cc630 <LOADER_PHYS_START-0x3ff339d0>
     da8:	0d03362e 	stceq	6, cr3, [r3, #-184]	; 0xffffff48
     dac:	2e5f032e 	cdpcs	3, 5, cr0, cr15, cr14, {1}
     db0:	2e0b032f 	cdpcs	3, 0, cr0, cr11, cr15, {1}
     db4:	032e7703 	teqeq	lr, #786432	; 0xc0000
     db8:	2f2b2e21 	svccs	0x002b2e21
     dbc:	032e6c03 	teqeq	lr, #768	; 0x300
     dc0:	12032e6e 	andne	r2, r3, #1760	; 0x6e0
     dc4:	2e73032e 	cdpcs	3, 7, cr0, cr3, cr14, {1}
     dc8:	35302f2f 	ldrcc	r2, [r0, #-3887]!	; 0xf2f
     dcc:	2e15032f 	cdpcs	3, 1, cr0, cr5, cr15, {1}
     dd0:	2e5d0331 	mrccs	3, 2, r0, cr13, cr1, {1}
     dd4:	032e2403 	teqeq	lr, #50331648	; 0x3000000
     dd8:	2f362e5f 	svccs	0x00362e5f
     ddc:	2f2e1703 	svccs	0x002e1703
     de0:	302e6e03 	eorcc	r6, lr, r3, lsl #28
     de4:	2c312d69 	ldccs	13, cr2, [r1], #-420	; 0xfffffe5c
     de8:	2f2d2f2d 	svccs	0x002d2f2d
     dec:	18032f30 	stmdane	r3, {r4, r5, r8, r9, sl, fp, sp}
     df0:	c4034b82 	strgt	r4, [r3], #-2946	; 0xb82
     df4:	2f692e00 	svccs	0x00692e00
     df8:	0a022a89 	beq	8b824 <LOADER_PHYS_START-0x3ff747dc>
     dfc:	cf010100 	svcgt	0x00010100
     e00:	02000000 	andeq	r0, r0, #0
     e04:	00008e00 	andeq	r8, r0, r0, lsl #28
     e08:	fb010200 	blx	41612 <LOADER_PHYS_START-0x3ffbe9ee>
     e0c:	01000d0e 	tsteq	r0, lr, lsl #26
     e10:	00010101 	andeq	r0, r1, r1, lsl #2
     e14:	00010000 	andeq	r0, r1, r0
     e18:	2e2e0100 	sufcse	f0, f6, f0
     e1c:	2f2e2e2f 	svccs	0x002e2e2f
     e20:	2e2f2e2e 	cdpcs	14, 2, cr2, cr15, cr14, {1}
     e24:	6f632f2e 	svcvs	0x00632f2e
     e28:	6e6f6d6d 	cdpvs	13, 6, cr6, cr15, cr13, {3}
     e2c:	6575672f 	ldrbvs	r6, [r5, #-1839]!	; 0x72f
     e30:	6c2f7473 	cfstrsvs	mvf7, [pc], #-460	; c6c <LOADER_PHYS_START-0x3ffff394>
     e34:	6564616f 	strbvs	r6, [r4, #-367]!	; 0x16f
     e38:	2e2e0072 	mcrcs	0, 1, r0, cr14, cr2, {3}
     e3c:	2f2e2e2f 	svccs	0x002e2e2f
     e40:	2e2f2e2e 	cdpcs	14, 2, cr2, cr15, cr14, {1}
     e44:	6f632f2e 	svcvs	0x00632f2e
     e48:	6e6f6d6d 	cdpvs	13, 6, cr6, cr15, cr13, {3}
     e4c:	636e692f 	cmnvs	lr, #770048	; 0xbc000
     e50:	6564756c 	strbvs	r7, [r4, #-1388]!	; 0x56c
     e54:	75670000 	strbvc	r0, [r7, #-0]!
     e58:	6c747365 	ldclvs	3, cr7, [r4], #-404	; 0xfffffe6c
     e5c:	6564616f 	strbvs	r6, [r4, #-367]!	; 0x16f
     e60:	6f635f72 	svcvs	0x00635f72
     e64:	6e6f6d6d 	cdpvs	13, 6, cr6, cr15, cr13, {3}
     e68:	0100632e 	tsteq	r0, lr, lsr #6
     e6c:	75670000 	strbvc	r0, [r7, #-0]!
     e70:	6c747365 	ldclvs	3, cr7, [r4], #-404	; 0xfffffe6c
     e74:	6564616f 	strbvs	r6, [r4, #-367]!	; 0x16f
     e78:	6f635f72 	svcvs	0x00635f72
     e7c:	6e6f6d6d 	cdpvs	13, 6, cr6, cr15, cr13, {3}
     e80:	0100682e 	tsteq	r0, lr, lsr #16
     e84:	72610000 	rsbvc	r0, r1, #0
     e88:	745f6863 	ldrbvc	r6, [pc], #-2147	; e90 <LOADER_PHYS_START-0x3ffff170>
     e8c:	73657079 	cmnvc	r5, #121	; 0x79
     e90:	0200682e 	andeq	r6, r0, #3014656	; 0x2e0000
     e94:	00000000 	andeq	r0, r0, r0
     e98:	191c0205 	ldmdbne	ip, {r0, r2, r9}
     e9c:	1c034000 	stcne	0, cr4, [r3], {-0}
     ea0:	2d4b1601 	stclcs	6, cr1, [fp, #-4]
     ea4:	2e4f2d2f 	cdpcs	13, 4, cr2, cr15, cr15, {1}
     ea8:	75034f2f 	strvc	r4, [r3, #-3887]	; 0xf2f
     eac:	9e12034a 	cdpls	3, 1, cr0, cr2, cr10, {2}
     eb0:	2f2e6e03 	svccs	0x002e6e03
     eb4:	032d2f2d 	teqeq	sp, #180	; 0xb4
     eb8:	2f4b2e17 	svccs	0x004b2e17
     ebc:	652e6703 	strvs	r6, [lr, #-1795]!	; 0x703
     ec0:	2d2f2d30 	stccs	13, cr2, [pc, #-192]!	; e08 <LOADER_PHYS_START-0x3ffff1f8>
     ec4:	4d2e1e03 	stcmi	14, cr1, [lr, #-12]!
     ec8:	4e666c03 	cdpmi	12, 6, cr6, cr6, cr3, {0}
     ecc:	0012024b 	andseq	r0, r2, fp, asr #4
     ed0:	007f0101 	rsbseq	r0, pc, r1, lsl #2
     ed4:	00020000 	andeq	r0, r2, r0
     ed8:	0000003c 	andeq	r0, r0, ip, lsr r0
     edc:	0efb0102 	cdpeq	1, 15, cr0, cr11, cr2, {0}
     ee0:	0101000d 	tsteq	r1, sp
     ee4:	00000101 	andeq	r0, r0, r1, lsl #2
     ee8:	00000100 	andeq	r0, r0, r0, lsl #2
     eec:	2f2e2e01 	svccs	0x002e2e01
     ef0:	2e2f2e2e 	cdpcs	14, 2, cr2, cr15, cr14, {1}
     ef4:	2e2e2f2e 	cdpcs	15, 2, cr2, cr14, cr14, {1}
     ef8:	6d6f632f 	stclvs	3, cr6, [pc, #-188]!	; e44 <LOADER_PHYS_START-0x3ffff1bc>
     efc:	2f6e6f6d 	svccs	0x006e6f6d
     f00:	73657567 	cmnvc	r5, #432013312	; 0x19c00000
     f04:	6f6c2f74 	svcvs	0x006c2f74
     f08:	72656461 	rsbvc	r6, r5, #1627389952	; 0x61000000
     f0c:	6c630000 	stclvs	0, cr0, [r3], #-0
     f10:	00632e69 	rsbeq	r2, r3, r9, ror #28
     f14:	00000001 	andeq	r0, r0, r1
     f18:	f4020500 	vst3.8	{d0,d2,d4}, [r2], r0
     f1c:	03400019 	movteq	r0, #25
     f20:	2e0100c5 	cdpcs	0, 0, cr0, cr1, cr5, {6}
     f24:	672e7503 	strvs	r7, [lr, -r3, lsl #10]!
     f28:	77035184 	strvc	r5, [r3, -r4, lsl #3]
     f2c:	0347844a 	movteq	r8, #29770	; 0x744a
     f30:	032fba6b 	teqeq	pc, #438272	; 0x6b000
     f34:	61034a1e 	tstvs	r3, lr, lsl sl
     f38:	03652f2e 	cmneq	r5, #184	; 0xb8
     f3c:	2c034a0b 	stccs	10, cr4, [r3], {11}
     f40:	2e54032e 	cdpcs	3, 5, cr0, cr4, cr14, {1}
     f44:	032e7703 	teqeq	lr, #786432	; 0xc0000
     f48:	16034a1f 			; <UNDEFINED> instruction: 0x16034a1f
     f4c:	2e6f03d6 	mcrcs	3, 3, r0, cr15, cr6, {6}
     f50:	01000602 	tsteq	r0, r2, lsl #12
     f54:	00017101 	andeq	r7, r1, r1, lsl #2
     f58:	8a000200 	bhi	1760 <LOADER_PHYS_START-0x3fffe8a0>
     f5c:	02000000 	andeq	r0, r0, #0
     f60:	0d0efb01 	vstreq	d15, [lr, #-4]
     f64:	01010100 	mrseq	r0, (UNDEF: 17)
     f68:	00000001 	andeq	r0, r0, r1
     f6c:	01000001 	tsteq	r0, r1
     f70:	2e2f2e2e 	cdpcs	14, 2, cr2, cr15, cr14, {1}
     f74:	2e2e2f2e 	cdpcs	15, 2, cr2, cr14, cr14, {1}
     f78:	2f2e2e2f 	svccs	0x002e2e2f
     f7c:	6d6d6f63 	stclvs	15, cr6, [sp, #-396]!	; 0xfffffe74
     f80:	672f6e6f 	strvs	r6, [pc, -pc, ror #28]!
     f84:	74736575 	ldrbtvc	r6, [r3], #-1397	; 0x575
     f88:	616f6c2f 	cmnvs	pc, pc, lsr #24
     f8c:	2f726564 	svccs	0x00726564
     f90:	696e6f6d 	stmdbvs	lr!, {r0, r2, r3, r5, r6, r8, r9, sl, fp, sp, lr}^
     f94:	00726f74 	rsbseq	r6, r2, r4, ror pc
     f98:	2e2f2e2e 	cdpcs	14, 2, cr2, cr15, cr14, {1}
     f9c:	2e2e2f2e 	cdpcs	15, 2, cr2, cr14, cr14, {1}
     fa0:	2f2e2e2f 	svccs	0x002e2e2f
     fa4:	6d6d6f63 	stclvs	15, cr6, [sp, #-396]!	; 0xfffffe74
     fa8:	692f6e6f 	stmdbvs	pc!, {r0, r1, r2, r3, r5, r6, r9, sl, fp, sp, lr}	; <UNPREDICTABLE>
     fac:	756c636e 	strbvc	r6, [ip, #-878]!	; 0x36e
     fb0:	00006564 	andeq	r6, r0, r4, ror #10
     fb4:	696e6f6d 	stmdbvs	lr!, {r0, r2, r3, r5, r6, r8, r9, sl, fp, sp, lr}^
     fb8:	5f726f74 	svcpl	0x00726f74
     fbc:	2e696c63 	cdpcs	12, 6, cr6, cr9, cr3, {3}
     fc0:	00010063 	andeq	r0, r1, r3, rrx
     fc4:	65756700 	ldrbvs	r6, [r5, #-1792]!	; 0x700
     fc8:	6d5f7473 	cfldrdvs	mvd7, [pc, #-460]	; e04 <LOADER_PHYS_START-0x3ffff1fc>
     fcc:	74696e6f 	strbtvc	r6, [r9], #-3695	; 0xe6f
     fd0:	682e726f 	stmdavs	lr!, {r0, r1, r2, r3, r5, r6, r9, ip, sp, lr}
     fd4:	00000100 	andeq	r0, r0, r0, lsl #2
     fd8:	68637261 	stmdavs	r3!, {r0, r5, r6, r9, ip, sp, lr}^
     fdc:	7079745f 	rsbsvc	r7, r9, pc, asr r4
     fe0:	682e7365 	stmdavs	lr!, {r0, r2, r5, r6, r8, r9, ip, sp, lr}
     fe4:	00000200 	andeq	r0, r0, r0, lsl #4
     fe8:	02050000 	andeq	r0, r5, #0
     fec:	40001ac0 	andmi	r1, r0, r0, asr #21
     ff0:	0100ea03 	tsteq	r0, r3, lsl #20
     ff4:	302e2c14 	eorcc	r2, lr, r4, lsl ip
     ff8:	01040200 	mrseq	r0, R12_usr
     ffc:	d8062e06 	stmdale	r6, {r1, r2, r9, sl, fp, sp}
    1000:	2d2f322c 	sfmcs	f3, 4, [pc, #-176]!	; f58 <LOADER_PHYS_START-0x3ffff0a8>
    1004:	2f2d2f4c 	svccs	0x002d2f4c
    1008:	62032f32 	andvs	r2, r3, #200	; 0xc8
    100c:	4a1b032e 	bmi	6c1ccc <LOADER_PHYS_START-0x3f93e334>
    1010:	13663a03 	cmnne	r6, #12288	; 0x3000
    1014:	2d133183 	ldfcss	f3, [r3, #-524]	; 0xfffffdf4
    1018:	35834b2f 	strcc	r4, [r3, #2863]	; 0xb2f
    101c:	3e038313 	mcrcc	3, 0, r8, cr3, cr3, {0}
    1020:	0109032e 	tsteq	r9, lr, lsr #6
    1024:	034a7703 	movteq	r7, #42755	; 0xa703
    1028:	4d2f8209 	sfmmi	f0, 1, [pc, #-36]!	; 100c <LOADER_PHYS_START-0x3fffeff4>
    102c:	6659034b 	ldrbvs	r0, [r9], -fp, asr #6
    1030:	2b308167 	blcs	c215d4 <LOADER_PHYS_START-0x3f3dea2c>
    1034:	4d2f4e6d 	stcmi	14, cr4, [pc, #-436]!	; e88 <LOADER_PHYS_START-0x3ffff178>
    1038:	2d302d2b 	ldccs	13, cr2, [r0, #-172]!	; 0xffffff54
    103c:	032e7503 	teqeq	lr, #12582912	; 0xc00000
    1040:	70032e10 	andvc	r2, r3, r0, lsl lr
    1044:	30859f2e 	addcc	r9, r5, lr, lsr #30
    1048:	2d2f2f2c 	stccs	15, cr2, [pc, #-176]!	; fa0 <LOADER_PHYS_START-0x3ffff060>
    104c:	79032f2f 	stmdbvc	r3, {r0, r1, r2, r3, r5, r8, r9, sl, fp, sp}
    1050:	03312d4a 	teqeq	r1, #4736	; 0x1280
    1054:	034b8211 	movteq	r8, #45585	; 0xb211
    1058:	032f2e61 	teqeq	pc, #1552	; 0x610
    105c:	5d034a22 	vstrpl	s8, [r3, #-136]	; 0xffffff78
    1060:	03652f2e 	cmneq	r5, #184	; 0xb8
    1064:	034a7f80 	movteq	r7, #44928	; 0xaf80
    1068:	03660182 	cmneq	r6, #-2147483616	; 0x80000020
    106c:	29034a31 	stmdbcs	r3, {r0, r4, r5, r9, fp, lr}
    1070:	4b012402 	blmi	4a080 <LOADER_PHYS_START-0x3ffb5f80>
    1074:	2e7f8803 	cdpcs	8, 7, cr8, cr15, cr3, {0}
    1078:	4b666703 	blmi	199ac8c <LOADER_PHYS_START-0x3e665374>
    107c:	0182034b 	orreq	r0, r2, fp, asr #6
    1080:	9a032f66 	bls	cce20 <LOADER_PHYS_START-0x3ff331e0>
    1084:	24082e7f 	strcs	r2, [r8], #-3711	; 0xe7f
    1088:	2f2d4b67 	svccs	0x002d4b67
    108c:	35667903 	strbcc	r7, [r6, #-2307]!	; 0x903
    1090:	be4d2d2f 	cdplt	13, 4, cr2, cr13, cr15, {1}
    1094:	6667034b 	strbtvs	r0, [r7], -fp, asr #6
    1098:	6663034b 	strbtvs	r0, [r3], -fp, asr #6
    109c:	1a0367bb 	bne	daf90 <LOADER_PHYS_START-0x3ff25070>
    10a0:	80034b82 	andhi	r4, r3, r2, lsl #23
    10a4:	80032e01 	andhi	r2, r3, r1, lsl #28
    10a8:	80032e7f 	andhi	r2, r3, pc, ror lr
    10ac:	f1032e01 			; <UNDEFINED> instruction: 0xf1032e01
    10b0:	6a034a7e 	bvs	d3ab0 <LOADER_PHYS_START-0x3ff2c550>
    10b4:	0367bb66 	cmneq	r7, #104448	; 0x19800
    10b8:	4b8200fd 	blmi	fe0814b4 <restore_guest_end+0x8d9814b4>
    10bc:	2e7eee03 	cdpcs	14, 7, cr14, cr14, cr3, {0}
    10c0:	bb8967bb 	bllt	fe25afb4 <restore_guest_end+0x8db5afb4>
    10c4:	001e0267 	andseq	r0, lr, r7, ror #4
    10c8:	02d30101 	sbcseq	r0, r3, #1073741824	; 0x40000000
    10cc:	00020000 	andeq	r0, r2, r0
    10d0:	00000087 	andeq	r0, r0, r7, lsl #1
    10d4:	0efb0102 	cdpeq	1, 15, cr0, cr11, cr2, {0}
    10d8:	0101000d 	tsteq	r1, sp
    10dc:	00000101 	andeq	r0, r0, r1, lsl #2
    10e0:	00000100 	andeq	r0, r0, r0, lsl #2
    10e4:	2f2e2e01 	svccs	0x002e2e01
    10e8:	2e2f2e2e 	cdpcs	14, 2, cr2, cr15, cr14, {1}
    10ec:	2e2e2f2e 	cdpcs	15, 2, cr2, cr14, cr14, {1}
    10f0:	6d6f632f 	stclvs	3, cr6, [pc, #-188]!	; 103c <LOADER_PHYS_START-0x3fffefc4>
    10f4:	2f6e6f6d 	svccs	0x006e6f6d
    10f8:	73657567 	cmnvc	r5, #432013312	; 0x19c00000
    10fc:	6f6c2f74 	svcvs	0x006c2f74
    1100:	72656461 	rsbvc	r6, r5, #1627389952	; 0x61000000
    1104:	6e6f6d2f 	cdpvs	13, 6, cr6, cr15, cr15, {1}
    1108:	726f7469 	rsbvc	r7, pc, #1761607680	; 0x69000000
    110c:	2f2e2e00 	svccs	0x002e2e00
    1110:	2e2f2e2e 	cdpcs	14, 2, cr2, cr15, cr14, {1}
    1114:	2e2e2f2e 	cdpcs	15, 2, cr2, cr14, cr14, {1}
    1118:	6d6f632f 	stclvs	3, cr6, [pc, #-188]!	; 1064 <LOADER_PHYS_START-0x3fffef9c>
    111c:	2f6e6f6d 	svccs	0x006e6f6d
    1120:	6c636e69 	stclvs	14, cr6, [r3], #-420	; 0xfffffe5c
    1124:	00656475 	rsbeq	r6, r5, r5, ror r4
    1128:	62646700 	rsbvs	r6, r4, #0
    112c:	7574735f 	ldrbvc	r7, [r4, #-863]!	; 0x35f
    1130:	00632e62 	rsbeq	r2, r3, r2, ror #28
    1134:	67000001 	strvs	r0, [r0, -r1]
    1138:	74736575 	ldrbtvc	r6, [r3], #-1397	; 0x575
    113c:	6e6f6d5f 	mcrvs	13, 3, r6, cr15, cr15, {2}
    1140:	726f7469 	rsbvc	r7, pc, #1761607680	; 0x69000000
    1144:	0100682e 	tsteq	r0, lr, lsr #16
    1148:	72610000 	rsbvc	r0, r1, #0
    114c:	745f6863 	ldrbvc	r6, [pc], #-2147	; 1154 <LOADER_PHYS_START-0x3fffeeac>
    1150:	73657079 	cmnvc	r5, #121	; 0x79
    1154:	0200682e 	andeq	r6, r0, #3014656	; 0x2e0000
    1158:	00000000 	andeq	r0, r0, r0
    115c:	1f100205 	svcne	0x00100205
    1160:	2e034000 	cdpcs	0, 0, cr4, cr3, cr0, {0}
    1164:	04020001 	streq	r0, [r2], #-1
    1168:	02006902 	andeq	r6, r0, #32768	; 0x8000
    116c:	5f030204 	svcpl	0x00030204
    1170:	0402002e 	streq	r0, [r2], #-46	; 0x2e
    1174:	2e210302 	cdpcs	3, 2, cr0, cr1, cr2, {0}
    1178:	02040200 	andeq	r0, r4, #0
    117c:	0402002d 	streq	r0, [r2], #-45	; 0x2d
    1180:	2e5f0302 	cdpcs	3, 5, cr0, cr15, cr2, {0}
    1184:	02040200 	andeq	r0, r4, #0
    1188:	0402002f 	streq	r0, [r2], #-47	; 0x2f
    118c:	02002d02 	andeq	r2, r0, #128	; 0x80
    1190:	002f0204 	eoreq	r0, pc, r4, lsl #4
    1194:	03020402 	movweq	r0, #9218	; 0x2402
    1198:	03306620 	teqeq	r0, #33554432	; 0x2000000
    119c:	6813666d 	ldmdavs	r3, {r0, r2, r3, r5, r6, r9, sl, sp, lr}
    11a0:	48486784 	stmdami	r8, {r2, r7, r8, r9, sl, sp, lr}^
    11a4:	d3032f4f 	movwle	r2, #16207	; 0x3f4f
    11a8:	2c302e00 	ldccs	14, cr2, [r0], #-0
    11ac:	04020030 	streq	r0, [r2], #-48	; 0x30
    11b0:	02004b02 	andeq	r4, r0, #2048	; 0x800
    11b4:	002d0204 	eoreq	r0, sp, r4, lsl #4
    11b8:	2f020402 	svccs	0x00020402
    11bc:	02040200 	andeq	r0, r4, #0
    11c0:	09036a2d 	stmdbeq	r3, {r0, r2, r3, r5, r9, fp, sp, lr}
    11c4:	2e77034a 	cdpcs	3, 7, cr0, cr7, cr10, {2}
    11c8:	032e1003 	teqeq	lr, #3
    11cc:	654d2e76 	strbvs	r2, [sp, #-3702]	; 0xe76
    11d0:	0402002f 	streq	r0, [r2], #-47	; 0x2f
    11d4:	02004b02 	andeq	r4, r0, #2048	; 0x800
    11d8:	062d0204 	strteq	r0, [sp], -r4, lsl #4
    11dc:	4b850682 	blmi	fe142bec <restore_guest_end+0x8da42bec>
    11e0:	ff034c4b 			; <UNDEFINED> instruction: 0xff034c4b
    11e4:	032f2e7e 	teqeq	pc, #2016	; 0x7e0
    11e8:	4b2e0183 	blmi	b817fc <LOADER_PHYS_START-0x3f47e804>
    11ec:	4c304b67 	ldcmi	11, cr4, [r0], #-412	; 0xfffffe64
    11f0:	034a6f03 	movteq	r6, #44803	; 0xaf03
    11f4:	4a9e00e2 	bmi	fe781584 <restore_guest_end+0x8e081584>
    11f8:	7e9e0334 	mrcvc	3, 4, r0, cr14, cr4, {1}
    11fc:	2e0b03ba 	mcrcs	3, 0, r0, cr11, cr10, {5}
    1200:	2f2e7503 	svccs	0x002e7503
    1204:	2c2e0c03 	stccs	12, cr0, [lr], #-12
    1208:	01f50330 	mvnseq	r0, r0, lsr r3
    120c:	4a65032e 	bmi	1941ecc <LOADER_PHYS_START-0x3e6be134>
    1210:	667ea403 	ldrbtvs	sl, [lr], -r3, lsl #8
    1214:	4b4a7503 	blmi	129e628 <LOADER_PHYS_START-0x3ed619d8>
    1218:	034a0c03 	movteq	r0, #44035	; 0xac03
    121c:	526601df 	rsbpl	r0, r6, #-1073741769	; 0xc0000037
    1220:	2f68302f 	svccs	0x0068302f
    1224:	03682c33 	cmneq	r8, #13056	; 0x3300
    1228:	23034a5d 	movwcs	r4, #14941	; 0x3a5d
    122c:	2e5d034a 	cdpcs	3, 5, cr0, cr13, cr10, {2}
    1230:	02040200 	andeq	r0, r4, #0
    1234:	00822403 	addeq	r2, r2, r3, lsl #8
    1238:	03020402 	movweq	r0, #9218	; 0x2402
    123c:	002e7e80 	eoreq	r7, lr, r0, lsl #29
    1240:	2f020402 	svccs	0x00020402
    1244:	02040200 	andeq	r0, r4, #0
    1248:	2e01fe03 	cdpcs	14, 0, cr15, cr1, cr3, {0}
    124c:	02040200 	andeq	r0, r4, #0
    1250:	2e7e8103 	expcse	f0, f3
    1254:	02040200 	andeq	r0, r4, #0
    1258:	0402002f 	streq	r0, [r2], #-47	; 0x2f
    125c:	01fe0302 	mvnseq	r0, r2, lsl #6
    1260:	24033066 	strcs	r3, [r3], #-102	; 0x66
    1264:	322a169e 	eorcc	r1, sl, #165675008	; 0x9e00000
    1268:	312b322a 	teqcc	fp, sl, lsr #4
    126c:	3163312b 	cmncc	r3, fp, lsr #2
    1270:	2d2f2ff4 	stccs	15, cr2, [pc, #-976]!	; ea8 <LOADER_PHYS_START-0x3ffff158>
    1274:	2f2f362f 	svccs	0x002f362f
    1278:	7303314b 	movwvc	r3, #12619	; 0x314b
    127c:	2f2f4b4a 	svccs	0x002f4b4a
    1280:	0b032f4b 	bleq	ccfb4 <LOADER_PHYS_START-0x3ff3304c>
    1284:	c0031482 	andgt	r1, r3, r2, lsl #9
    1288:	034b4a7d 	movteq	r4, #47741	; 0xba7d
    128c:	4b4a02c2 	blmi	1281d9c <LOADER_PHYS_START-0x3ed7e264>
    1290:	78031a31 	stmdavc	r3, {r0, r4, r5, r9, fp, ip}
    1294:	7803362e 	stmdavc	r3, {r1, r2, r3, r5, r9, sl, ip, sp}
    1298:	00c8034a 	sbceq	r0, r8, sl, asr #6
    129c:	2e40032e 	cdpcs	3, 4, cr0, cr0, cr14, {1}
    12a0:	7ec50332 	mcrvc	3, 6, r0, cr5, cr2, {1}
    12a4:	b603332e 	strlt	r3, [r3], -lr, lsr #6
    12a8:	c4032e01 	strgt	r2, [r3], #-3585	; 0xe01
    12ac:	a42f2e7e 	strtge	r2, [pc], #-3710	; 12b4 <LOADER_PHYS_START-0x3fffed4c>
    12b0:	2e11032f 	cdpcs	3, 1, cr0, cr1, cr15, {1}
    12b4:	2f2e6f03 	svccs	0x002e6f03
    12b8:	2d4f4c4d 	stclcs	12, cr4, [pc, #-308]	; 118c <LOADER_PHYS_START-0x3fffee74>
    12bc:	2e720330 	mrccs	3, 3, r0, cr2, cr0, {1}
    12c0:	2c4a1903 	mcrrcs	9, 0, r1, sl, cr3
    12c4:	4a7a0330 	bmi	1e81f8c <LOADER_PHYS_START-0x3e17e074>
    12c8:	032b302d 	teqeq	fp, #45	; 0x2d
    12cc:	502d4a74 	eorpl	r4, sp, r4, ror sl
    12d0:	4a0e032d 	bmi	381f8c <LOADER_PHYS_START-0x3fc7e074>
    12d4:	2b4e2f33 	blcs	138cfa8 <LOADER_PHYS_START-0x3ec73058>
    12d8:	2d2f4c2f 	stccs	12, cr4, [pc, #-188]!	; 1224 <LOADER_PHYS_START-0x3fffeddc>
    12dc:	2f4b2f2f 	svccs	0x004b2f2f
    12e0:	2f4b2f68 	svccs	0x004b2f68
    12e4:	4a018e03 	bmi	64af8 <LOADER_PHYS_START-0x3ff9b508>
    12e8:	f2034c2f 			; <UNDEFINED> instruction: 0xf2034c2f
    12ec:	0174027d 	cmneq	r4, sp, ror r2
    12f0:	7fb40368 	svcvc	0x00b40368
    12f4:	2e0b03ba 	mcrcs	3, 0, r0, cr11, cr10, {5}
    12f8:	2f2e7503 	svccs	0x002e7503
    12fc:	2c2e0c03 	stccs	12, cr0, [lr], #-12
    1300:	03800330 	orreq	r0, r0, #-1073741824	; 0xc0000000
    1304:	4b2f2f2e 	blmi	bccfc4 <LOADER_PHYS_START-0x3f43303c>
    1308:	4a7efb03 	bmi	1fbff1c <LOADER_PHYS_START-0x3e0400e4>
    130c:	682f812f 	stmdavs	pc!, {r0, r1, r2, r3, r5, r8, pc}	; <UNPREDICTABLE>
    1310:	6630036e 	ldrtvs	r0, [r0], -lr, ror #6
    1314:	f27dd503 	vrshl.s64	d29, d3, d13
    1318:	2e01fc03 	cdpcs	12, 0, cr15, cr1, cr3, {0}
    131c:	2e7e8403 	cdpcs	4, 7, cr8, cr14, cr3, {0}
    1320:	9e01fc03 	cdpls	12, 0, cr15, cr1, cr3, {0}
    1324:	68674d2d 	stmdavs	r7!, {r0, r2, r3, r5, r8, sl, fp, lr}^
    1328:	7de9032f 	stclvc	3, cr0, [r9, #188]!	; 0xbc
    132c:	02e1032e 	rsceq	r0, r1, #-1207959552	; 0xb8000000
    1330:	19036782 	stmdbne	r3, {r1, r7, r8, r9, sl, sp, lr}
    1334:	13034b2e 	movwne	r4, #15150	; 0x3b2e
    1338:	7d960366 	ldcvc	3, cr0, [r6, #408]	; 0x198
    133c:	2a304c4a 	bcs	c1446c <LOADER_PHYS_START-0x3f3ebb94>
    1340:	2d306533 	cfldr32cs	mvfx6, [r0, #-204]!	; 0xffffff34
    1344:	02970349 	addseq	r0, r7, #603979777	; 0x24000001
    1348:	7ded034a 	stclvc	3, cr0, [sp, #296]!	; 0x128
    134c:	30294f2e 	eorcc	r4, r9, lr, lsr #30
    1350:	2d676a68 	vstmdbcs	r7!, {s13-s116}
    1354:	67684f2d 	strbvs	r4, [r8, -sp, lsr #30]!
    1358:	6602b603 	strvs	fp, [r2], -r3, lsl #12
    135c:	827d8e03 	rsbshi	r8, sp, #48	; 0x30
    1360:	8202e703 	andhi	lr, r2, #786432	; 0xc0000
    1364:	8252039f 	subshi	r0, r2, #2080374786	; 0x7c000002
    1368:	4a7dc003 	bmi	1f7137c <LOADER_PHYS_START-0x3e08ec84>
    136c:	02c2034b 	sbceq	r0, r2, #738197505	; 0x2c000001
    1370:	662c034a 	strtvs	r0, [ip], -sl, asr #6
    1374:	9e1403a0 	cdpls	3, 1, cr0, cr4, cr0, {5}
    1378:	667dcc03 	ldrbtvs	ip, [sp], -r3, lsl #24
    137c:	29334d67 	ldmdbcs	r3!, {r0, r1, r2, r5, r6, r8, sl, fp, lr}
    1380:	4a100368 	bmi	402128 <LOADER_PHYS_START-0x3fbfded8>
    1384:	03667603 	cmneq	r6, #3145728	; 0x300000
    1388:	0f036676 	svceq	0x00036676
    138c:	322d2fba 	eorcc	r2, sp, #744	; 0x2e8
    1390:	03667403 	cmneq	r6, #50331648	; 0x3000000
    1394:	03660298 	cmneq	r6, #-2147483639	; 0x80000009
    1398:	4b827df1 	blmi	fe0a0b64 <restore_guest_end+0x8d9a0b64>
    139c:	01002002 	tsteq	r0, r2
    13a0:	0002c201 	andeq	ip, r2, r1, lsl #4
    13a4:	c4000200 	strgt	r0, [r0], #-512	; 0x200
    13a8:	02000000 	andeq	r0, r0, #0
    13ac:	0d0efb01 	vstreq	d15, [lr, #-4]
    13b0:	01010100 	mrseq	r0, (UNDEF: 17)
    13b4:	00000001 	andeq	r0, r0, r1
    13b8:	01000001 	tsteq	r0, r1
    13bc:	2e2f2e2e 	cdpcs	14, 2, cr2, cr15, cr14, {1}
    13c0:	2e2e2f2e 	cdpcs	15, 2, cr2, cr14, cr14, {1}
    13c4:	2f2e2e2f 	svccs	0x002e2e2f
    13c8:	6d6d6f63 	stclvs	15, cr6, [sp, #-396]!	; 0xfffffe74
    13cc:	672f6e6f 	strvs	r6, [pc, -pc, ror #28]!
    13d0:	74736575 	ldrbtvc	r6, [r3], #-1397	; 0x575
    13d4:	616f6c2f 	cmnvs	pc, pc, lsr #24
    13d8:	2f726564 	svccs	0x00726564
    13dc:	696e6f6d 	stmdbvs	lr!, {r0, r2, r3, r5, r6, r8, r9, sl, fp, sp, lr}^
    13e0:	00726f74 	rsbseq	r6, r2, r4, ror pc
    13e4:	2e2f2e2e 	cdpcs	14, 2, cr2, cr15, cr14, {1}
    13e8:	2e2e2f2e 	cdpcs	15, 2, cr2, cr14, cr14, {1}
    13ec:	2f2e2e2f 	svccs	0x002e2e2f
    13f0:	6d6d6f63 	stclvs	15, cr6, [sp, #-396]!	; 0xfffffe74
    13f4:	692f6e6f 	stmdbvs	pc!, {r0, r1, r2, r3, r5, r6, r9, sl, fp, sp, lr}	; <UNPREDICTABLE>
    13f8:	756c636e 	strbvc	r6, [ip, #-878]!	; 0x36e
    13fc:	2e006564 	cfsh32cs	mvfx6, mvfx0, #52
    1400:	2e2e2f2e 	cdpcs	15, 2, cr2, cr14, cr14, {1}
    1404:	2f2e2e2f 	svccs	0x002e2e2f
    1408:	632f2e2e 	teqvs	pc, #736	; 0x2e0
    140c:	6f6d6d6f 	svcvs	0x006d6d6f
    1410:	75672f6e 	strbvc	r2, [r7, #-3950]!	; 0xf6e
    1414:	2f747365 	svccs	0x00747365
    1418:	64616f6c 	strbtvs	r6, [r1], #-3948	; 0xf6c
    141c:	00007265 	andeq	r7, r0, r5, ror #4
    1420:	73657567 	cmnvc	r5, #432013312	; 0x19c00000
    1424:	6f6d5f74 	svcvs	0x006d5f74
    1428:	6f74696e 	svcvs	0x0074696e
    142c:	00632e72 	rsbeq	r2, r3, r2, ror lr
    1430:	61000001 	tstvs	r0, r1
    1434:	5f686372 	svcpl	0x00686372
    1438:	65707974 	ldrbvs	r7, [r0, #-2420]!	; 0x974
    143c:	00682e73 	rsbeq	r2, r8, r3, ror lr
    1440:	67000002 	strvs	r0, [r0, -r2]
    1444:	74736575 	ldrbtvc	r6, [r3], #-1397	; 0x575
    1448:	6e6f6d5f 	mcrvs	13, 3, r6, cr15, cr15, {2}
    144c:	726f7469 	rsbvc	r7, pc, #1761607680	; 0x69000000
    1450:	0100682e 	tsteq	r0, lr, lsr #16
    1454:	75670000 	strbvc	r0, [r7, #-0]!
    1458:	6c747365 	ldclvs	3, cr7, [r4], #-404	; 0xfffffe6c
    145c:	6564616f 	strbvs	r6, [r4, #-367]!	; 0x16f
    1460:	6f635f72 	svcvs	0x00635f72
    1464:	6e6f6d6d 	cdpvs	13, 6, cr6, cr15, cr13, {3}
    1468:	0300682e 	movweq	r6, #2094	; 0x82e
    146c:	00000000 	andeq	r0, r0, r0
    1470:	27c40205 	strbcs	r0, [r4, r5, lsl #4]
    1474:	14034000 	strne	r4, [r3], #-0
    1478:	2e2c1401 	cdpcs	4, 2, cr1, cr12, cr1, {0}
    147c:	302f4e30 	eorcc	r4, pc, r0, lsr lr	; <UNPREDICTABLE>
    1480:	4b2e7903 	blmi	b9f894 <LOADER_PHYS_START-0x3f46076c>
    1484:	9e0b0367 	cdpls	3, 0, cr0, cr11, cr7, {3}
    1488:	0903677e 	stmdbeq	r3, {r1, r2, r3, r4, r5, r6, r8, r9, sl, sp, lr}
    148c:	2e0e034a 	cdpcs	3, 0, cr0, cr14, cr10, {2}
    1490:	032e7203 	teqeq	lr, #805306368	; 0x30000000
    1494:	19032e09 	stmdbne	r3, {r0, r3, r9, sl, fp, sp}
    1498:	6671032e 	ldrbtvs	r0, [r1], -lr, lsr #6
    149c:	01040200 	mrseq	r0, R12_usr
    14a0:	02006d2c 	andeq	r6, r0, #2816	; 0xb00
    14a4:	66060104 	strvs	r0, [r6], -r4, lsl #2
    14a8:	302c5006 	eorcc	r5, ip, r6
    14ac:	03826103 	orreq	r6, r2, #-1073741824	; 0xc0000000
    14b0:	02002e1e 	andeq	r2, r0, #480	; 0x1e0
    14b4:	4c4b0204 	sfmmi	f0, 2, [fp], {4}
    14b8:	5f03302c 	svcpl	0x0003302c
    14bc:	2e1f032e 	cdpcs	3, 1, cr0, cr15, cr14, {1}
    14c0:	4e46324e 	cdpmi	2, 4, cr3, cr6, cr14, {2}
    14c4:	73036869 	movwvc	r6, #14441	; 0x3869
    14c8:	30312966 	eorscc	r2, r1, r6, ror #18
    14cc:	11032f48 	tstne	r3, r8, asr #30
    14d0:	2e10039e 	mrccs	3, 0, r0, cr0, cr14, {4}
    14d4:	034a7003 	movteq	r7, #40963	; 0xa003
    14d8:	03504a12 	cmpeq	r0, #73728	; 0x12000
    14dc:	69032e18 	stmdbvs	r3, {r3, r4, r9, sl, fp, sp}
    14e0:	2c31812e 	ldfcsd	f0, [r1], #-184	; 0xffffff48
    14e4:	2e640330 	mcrcs	3, 3, r0, cr4, cr0, {1}
    14e8:	4f2e1a03 	svcmi	0x002e1a03
    14ec:	09032c30 	stmdbeq	r3, {r4, r5, sl, fp, sp}
    14f0:	2e77032e 	cdpcs	3, 7, cr0, cr7, cr14, {1}
    14f4:	2e090330 	mcrcs	3, 0, r0, cr9, cr0, {1}
    14f8:	332e7603 	teqcc	lr, #3145728	; 0x300000
    14fc:	4a0a0329 	bmi	2821a8 <LOADER_PHYS_START-0x3fd7de58>
    1500:	56033329 	strpl	r3, [r3], -r9, lsr #6
    1504:	2e290366 	cdpcs	3, 2, cr0, cr9, cr6, {3}
    1508:	02040200 	andeq	r0, r4, #0
    150c:	4a56034b 	bmi	1582240 <LOADER_PHYS_START-0x3ea7ddc0>
    1510:	2f2e2c03 	svccs	0x002e2c03
    1514:	6d2c2c2f 	stcvs	12, cr2, [ip, #-188]!	; 0xffffff44
    1518:	322d2f2d 	eorcc	r2, sp, #180	; 0xb4
    151c:	2c312d47 	ldccs	13, cr2, [r1], #-284	; 0xfffffee4
    1520:	0200694d 	andeq	r6, r0, #1261568	; 0x134000
    1524:	82060104 	andhi	r0, r6, #1
    1528:	4a630306 	bmi	18c2148 <LOADER_PHYS_START-0x3e73deb8>
    152c:	032e1f03 	teqeq	lr, #12
    1530:	03654a61 	cmneq	r5, #397312	; 0x61000
    1534:	6e034a22 	vmlavs.f32	s8, s6, s5
    1538:	9e15034a 	cdpls	3, 1, cr0, cr5, cr10, {2}
    153c:	30483014 	subcc	r3, r8, r4, lsl r0
    1540:	148710bc 	strne	r1, [r7], #188	; 0xbc
    1544:	2e2c4c48 	cdpcs	12, 2, cr4, cr12, cr8, {2}
    1548:	2f2d9f30 	svccs	0x002d9f30
    154c:	6768bc33 			; <UNDEFINED> instruction: 0x6768bc33
    1550:	674b2f2d 	strbvs	r2, [fp, -sp, lsr #30]
    1554:	03492f68 	movteq	r2, #40808	; 0x9f68
    1558:	034b4a73 	movteq	r4, #47731	; 0xba73
    155c:	0351ba32 	cmpeq	r1, #204800	; 0x32000
    1560:	0200820c 	andeq	r8, r0, #-1073741824	; 0xc0000000
    1564:	064e0104 	strbeq	r0, [lr], -r4, lsl #2
    1568:	04020066 	streq	r0, [r2], #-102	; 0x66
    156c:	002f0602 	eoreq	r0, pc, r2, lsl #12
    1570:	2f020402 	svccs	0x00020402
    1574:	02040200 	andeq	r0, r4, #0
    1578:	0402002c 	streq	r0, [r2], #-44	; 0x2c
    157c:	02003002 	andeq	r3, r0, #2
    1580:	004e0204 	subeq	r0, lr, r4, lsl #4
    1584:	03020402 	movweq	r0, #9218	; 0x2402
    1588:	c6039e7a 			; <UNDEFINED> instruction: 0xc6039e7a
    158c:	43036600 	movwmi	r6, #13824	; 0x3600
    1590:	4a1a034a 	bmi	6822c0 <LOADER_PHYS_START-0x3f97dd40>
    1594:	7a038a4b 	bvc	e3ec8 <LOADER_PHYS_START-0x3ff1c138>
    1598:	31f42c2e 	mvnscc	r2, lr, lsr #24
    159c:	0200302c 	andeq	r3, r0, #44	; 0x2c
    15a0:	00320204 	eorseq	r0, r2, r4, lsl #4
    15a4:	65020402 	strvs	r0, [r2, #-1026]	; 0x402
    15a8:	02040200 	andeq	r0, r4, #0
    15ac:	0402004b 	streq	r0, [r2], #-75	; 0x4b
    15b0:	09038102 	stmdbeq	r3, {r1, r8, pc}
    15b4:	294f292e 	stmdbcs	pc, {r1, r2, r3, r5, r8, fp, sp}^	; <UNPREDICTABLE>
    15b8:	49834b33 	stmibmi	r3, {r0, r1, r4, r5, r8, r9, fp, lr}
    15bc:	0402002f 	streq	r0, [r2], #-47	; 0x2f
    15c0:	4c476901 	mcrrmi	9, 0, r6, r7, cr1
    15c4:	034f489f 	movteq	r4, #63647	; 0xf89f
    15c8:	67667fb4 			; <UNDEFINED> instruction: 0x67667fb4
    15cc:	02008467 	andeq	r8, r0, #1728053248	; 0x67000000
    15d0:	9e060104 	adflss	f0, f6, f4
    15d4:	4b2f8306 	blmi	be21f4 <LOADER_PHYS_START-0x3f41de0c>
    15d8:	4a13034b 	bmi	4c230c <LOADER_PHYS_START-0x3fb3dcf4>
    15dc:	4b302c87 	blmi	c0c800 <LOADER_PHYS_START-0x3f3f3800>
    15e0:	03686d81 	cmneq	r8, #8256	; 0x2040
    15e4:	09032e77 	stmdbeq	r3, {r0, r1, r2, r4, r5, r6, r9, sl, fp, sp}
    15e8:	4a77032e 	bmi	1dc22a8 <LOADER_PHYS_START-0x3e23dd58>
    15ec:	864b4e83 	strbhi	r4, [fp], -r3, lsl #29
    15f0:	20032d2f 	andcs	r2, r3, pc, lsr #26
    15f4:	6658034a 	ldrbvs	r0, [r8], -sl, asr #6
    15f8:	0245034b 	subeq	r0, r5, #738197505	; 0x2c000001
    15fc:	67160126 	ldrvs	r0, [r6, -r6, lsr #2]
    1600:	6713332f 	ldrvs	r3, [r3, -pc, lsr #6]
    1604:	2e00e503 	cfsh32cs	mvfx14, mvfx0, #3
    1608:	2f2f4c2e 	svccs	0x002f4c2e
    160c:	4b2b312f 	blmi	acdad0 <LOADER_PHYS_START-0x3f532530>
    1610:	0402004b 	streq	r0, [r2], #-75	; 0x4b
    1614:	02004c02 	andeq	r4, r0, #512	; 0x200
    1618:	002d0204 	eoreq	r0, sp, r4, lsl #4
    161c:	2f020402 	svccs	0x00020402
    1620:	02040200 	andeq	r0, r4, #0
    1624:	0402002d 	streq	r0, [r2], #-45	; 0x2d
    1628:	02002f02 	andeq	r2, r0, #8
    162c:	31810204 	orrcc	r0, r1, r4, lsl #4
    1630:	00306967 	eorseq	r6, r0, r7, ror #18
    1634:	d7020402 	strle	r0, [r2, -r2, lsl #8]
    1638:	02040200 	andeq	r0, r4, #0
    163c:	0402002d 	streq	r0, [r2], #-45	; 0x2d
    1640:	02004b02 	andeq	r4, r0, #2048	; 0x800
    1644:	c12d0204 	teqgt	sp, r4, lsl #4
    1648:	842f6513 	strthi	r6, [pc], #-1299	; 1650 <LOADER_PHYS_START-0x3fffe9b0>
    164c:	322d2f67 	eorcc	r2, sp, #412	; 0x19c
    1650:	83302c14 	teqhi	r0, #5120	; 0x1400
    1654:	03820a03 	orreq	r0, r2, #12288	; 0x3000
    1658:	0e032e77 	mcreq	14, 0, r2, cr3, cr7, {3}
    165c:	4d4b132e 	stclmi	3, cr1, [fp, #-184]	; 0xffffff48
    1660:	02026713 	andeq	r6, r2, #4980736	; 0x4c0000
    1664:	Address 0x0000000000001664 is out of bounds.


Disassembly of section .debug_info:

00000000 <.debug_info>:
       0:	0000007e 	andeq	r0, r0, lr, ror r0
       4:	00000002 	andeq	r0, r0, r2
       8:	01040000 	mrseq	r0, (UNDEF: 4)
       c:	00000000 	andeq	r0, r0, r0
      10:	40000000 	andmi	r0, r0, r0
      14:	400000c0 	andmi	r0, r0, r0, asr #1
      18:	746f6f62 	strbtvc	r6, [pc], #-3938	; 20 <LOADER_PHYS_START-0x3fffffe0>
      1c:	2f00532e 	svccs	0x0000532e
      20:	656d6f68 	strbvs	r6, [sp, #-3944]!	; 0xf68
      24:	7361632f 	cmnvc	r1, #-1140850688	; 0xbc000000
      28:	776e6f69 	strbvc	r6, [lr, -r9, ror #30]!
      2c:	6b2f6f6f 	blvs	bdbdf0 <LOADER_PHYS_START-0x3f424210>
      30:	65707968 	ldrbvs	r7, [r0, #-2408]!	; 0x968
      34:	73697672 	cmnvc	r9, #119537664	; 0x7200000
      38:	702f726f 	eorvc	r7, pc, pc, ror #4
      3c:	6674616c 	ldrbtvs	r6, [r4], -ip, ror #2
      40:	2d6d726f 	sfmcs	f7, 2, [sp, #-444]!	; 0xfffffe44
      44:	69766564 	ldmdbvs	r6!, {r2, r5, r6, r8, sl, sp, lr}^
      48:	632f6563 	teqvs	pc, #415236096	; 0x18c00000
      4c:	6574726f 	ldrbvs	r7, [r4, #-623]!	; 0x26f
      50:	31615f78 	smccc	5624	; 0x15f8
      54:	5f327835 	svcpl	0x00327835
      58:	646e7261 	strbtvs	r7, [lr], #-609	; 0x261
      5c:	2f656c61 	svccs	0x00656c61
      60:	73657567 	cmnvc	r5, #432013312	; 0x19c00000
      64:	2f736f74 	svccs	0x00736f74
      68:	73657567 	cmnvc	r5, #432013312	; 0x19c00000
      6c:	616f6c74 	smcvs	63172	; 0xf6c4
      70:	00726564 	rsbseq	r6, r2, r4, ror #10
      74:	20554e47 	subscs	r4, r5, r7, asr #28
      78:	32205341 	eorcc	r5, r0, #67108865	; 0x4000001
      7c:	0032322e 	eorseq	r3, r2, lr, lsr #4
      80:	011a8001 	tsteq	sl, r1
      84:	00020000 	andeq	r0, r2, r0
      88:	00000014 	andeq	r0, r0, r4, lsl r0
      8c:	004c0104 	subeq	r0, ip, r4, lsl #2
      90:	0a010000 	beq	40098 <LOADER_PHYS_START-0x3ffbff68>
      94:	58000000 	stmdapl	r0, {}	; <UNPREDICTABLE>
	...
      a0:	18000000 	stmdane	r0, {}	; <UNPREDICTABLE>
      a4:	62000000 	andvs	r0, r0, #0
      a8:	02000000 	andeq	r0, r0, #0
      ac:	6e690504 	cdpvs	5, 6, cr0, cr9, cr4, {0}
      b0:	04030074 	streq	r0, [r3], #-116	; 0x74
      b4:	00001b07 	andeq	r1, r0, r7, lsl #22
      b8:	07020300 	streq	r0, [r2, -r0, lsl #6]
      bc:	000000c7 	andeq	r0, r0, r7, asr #1
      c0:	11070803 	tstne	r7, r3, lsl #16
      c4:	03000000 	movweq	r0, #0
      c8:	00280801 	eoreq	r0, r8, r1, lsl #16
      cc:	01030000 	mrseq	r0, (UNDEF: 3)
      d0:	00003108 	andeq	r3, r0, r8, lsl #2
      d4:	003b0400 	eorseq	r0, fp, r0, lsl #8
      d8:	14010000 	strne	r0, [r1], #-0
      dc:	e6050101 	str	r0, [r5], -r1, lsl #2
      e0:	01000000 	mrseq	r0, (UNDEF: 0)
      e4:	75010130 	strvc	r0, [r1, #-304]	; 0x130
      e8:	06000000 	streq	r0, [r0], -r0
      ec:	00000000 	andeq	r0, r0, r0
      f0:	00753201 	rsbseq	r3, r5, r1, lsl #4
      f4:	07000000 	streq	r0, [r0, -r0]
      f8:	0000004c 	andeq	r0, r0, ip, asr #32
      fc:	00000085 	andeq	r0, r0, r5, lsl #1
     100:	00003008 	andeq	r3, r0, r8
     104:	0900ff00 	stmdbeq	r0, {r8, r9, sl, fp, ip, sp, lr, pc}
     108:	0000ad01 	andeq	sl, r0, r1, lsl #26
     10c:	01250100 	teqeq	r5, r0, lsl #2
     110:	400000c0 	andmi	r0, r0, r0, asr #1
     114:	400000d0 	ldrdmi	r0, [r0], -r0	; <UNPREDICTABLE>
     118:	ab007d02 	blge	1f528 <LOADER_PHYS_START-0x3ffe0ad8>
     11c:	0a000000 	beq	124 <LOADER_PHYS_START-0x3ffffedc>
     120:	000000fa 	strdeq	r0, [r0], -sl
     124:	00292501 	eoreq	r2, r9, r1, lsl #10
     128:	50010000 	andpl	r0, r1, r0
     12c:	36010b00 	strcc	r0, [r1], -r0, lsl #22
     130:	01000000 	mrseq	r0, (UNDEF: 0)
     134:	2fa0013d 	svccs	0x00a0013d
     138:	300c4000 	andcc	r4, ip, r0
     13c:	00004000 	andeq	r4, r0, r0
     140:	01060000 	mrseq	r0, (UNDEF: 6)
     144:	da0c0000 	ble	30014c <LOADER_PHYS_START-0x3fcffeb4>
     148:	01000000 	mrseq	r0, (UNDEF: 0)
     14c:	0000293d 	andeq	r2, r0, sp, lsr r9
     150:	00002d00 	andeq	r2, r0, r0, lsl #26
     154:	00530d00 	subseq	r0, r3, r0, lsl #26
     158:	2fb00000 	svccs	0x00b00000
     15c:	00004000 	andeq	r4, r0, r0
     160:	43010000 	movwmi	r0, #4096	; 0x1000
     164:	00005c0e 	andeq	r5, r0, lr, lsl #24
     168:	002fd400 	eoreq	sp, pc, r0, lsl #8
     16c:	002ff840 	eoreq	pc, pc, r0, asr #16
     170:	0f480140 	svceq	0x00480140
     174:	40002fd4 	ldrdmi	r2, [r0], -r4
     178:	40002ff8 	strdmi	r2, [r0], -r8
     17c:	00006910 	andeq	r6, r0, r0, lsl r9
     180:	f8910300 			; <UNDEFINED> instruction: 0xf8910300
     184:	0000007d 	andeq	r0, r0, sp, ror r0
     188:	0000be11 	andeq	fp, r0, r1, lsl lr
     18c:	18120100 	ldmdane	r2, {r8}
     190:	01000001 	tsteq	r0, r1
     194:	3bc00305 	blcc	ff000db0 <restore_guest_end+0x8e900db0>
     198:	29124000 	ldmdbcs	r2, {lr}
     19c:	00000000 	andeq	r0, r0, r0
     1a0:	0000050b 	andeq	r0, r0, fp, lsl #10
     1a4:	01130002 	tsteq	r3, r2
     1a8:	01040000 	mrseq	r0, (UNDEF: 4)
     1ac:	0000004c 	andeq	r0, r0, ip, asr #32
     1b0:	00018401 	andeq	r8, r1, r1, lsl #8
     1b4:	00005800 	andeq	r5, r0, r0, lsl #16
     1b8:	0000d000 	andeq	sp, r0, r0
     1bc:	00021040 	andeq	r1, r2, r0, asr #32
     1c0:	0000c340 	andeq	ip, r0, r0, asr #6
     1c4:	05040200 	streq	r0, [r4, #-512]	; 0x200
     1c8:	00746e69 	rsbseq	r6, r4, r9, ror #28
     1cc:	00020a03 	andeq	r0, r2, r3, lsl #20
     1d0:	37050200 	strcc	r0, [r5, -r0, lsl #4]
     1d4:	04000000 	streq	r0, [r0], #-0
     1d8:	001b0704 	andseq	r0, fp, r4, lsl #14
     1dc:	02040000 	andeq	r0, r4, #0
     1e0:	0000c707 	andeq	ip, r0, r7, lsl #14
     1e4:	07080400 	streq	r0, [r8, -r0, lsl #8]
     1e8:	00000011 	andeq	r0, r0, r1, lsl r0
     1ec:	0001b303 	andeq	fp, r1, r3, lsl #6
     1f0:	57080200 	strpl	r0, [r8, -r0, lsl #4]
     1f4:	04000000 	streq	r0, [r0], #-0
     1f8:	00280801 	eoreq	r0, r8, r1, lsl #16
     1fc:	ed050000 	stc	0, cr0, [r5, #-0]
     200:	02000001 	andeq	r0, r0, #1
     204:	00811c03 	addeq	r1, r1, r3, lsl #24
     208:	cc060000 	stcgt	0, cr0, [r6], {-0}
     20c:	03000001 	movweq	r0, #1
     210:	00003e1d 	andeq	r3, r0, sp, lsl lr
     214:	04470600 	strbeq	r0, [r7], #-1536	; 0x600
     218:	1e030000 	cdpne	0, 0, cr0, cr3, cr0, {0}
     21c:	00000057 	andeq	r0, r0, r7, asr r0
     220:	016d0700 	cmneq	sp, r0, lsl #14
     224:	00000000 	andeq	r0, r0, r0
     228:	21030001 	tstcs	r3, r1
     22c:	00000163 	andeq	r0, r0, r3, ror #2
     230:	00022808 	andeq	r2, r2, r8, lsl #16
     234:	37220300 	strcc	r0, [r2, -r0, lsl #6]!
     238:	02000000 	andeq	r0, r0, #0
     23c:	23080023 	movwcs	r0, #32803	; 0x8023
     240:	03000002 	movweq	r0, #2
     244:	00003723 	andeq	r3, r0, r3, lsr #14
     248:	04230200 	strteq	r0, [r3], #-512	; 0x200
     24c:	0001d908 	andeq	sp, r1, r8, lsl #18
     250:	37240300 	strcc	r0, [r4, -r0, lsl #6]!
     254:	02000000 	andeq	r0, r0, #0
     258:	2c080823 	stccs	8, cr0, [r8], {35}	; 0x23
     25c:	03000001 	movweq	r0, #1
     260:	00003725 	andeq	r3, r0, r5, lsr #14
     264:	0c230200 	sfmeq	f0, 4, [r3], #-0
     268:	0001d108 	andeq	sp, r1, r8, lsl #2
     26c:	37260300 	strcc	r0, [r6, -r0, lsl #6]!
     270:	02000000 	andeq	r0, r0, #0
     274:	ff081023 			; <UNDEFINED> instruction: 0xff081023
     278:	03000000 	movweq	r0, #0
     27c:	00003727 	andeq	r3, r0, r7, lsr #14
     280:	14230200 	strtne	r0, [r3], #-512	; 0x200
     284:	0001c508 	andeq	ip, r1, r8, lsl #10
     288:	37280300 	strcc	r0, [r8, -r0, lsl #6]!
     28c:	02000000 	andeq	r0, r0, #0
     290:	66081823 	strvs	r1, [r8], -r3, lsr #16
     294:	03000001 	movweq	r0, #1
     298:	00003729 	andeq	r3, r0, r9, lsr #14
     29c:	1c230200 	sfmne	f0, 4, [r3], #-0
     2a0:	0001ae08 	andeq	sl, r1, r8, lsl #28
     2a4:	572a0300 	strpl	r0, [sl, -r0, lsl #6]!
     2a8:	02000000 	andeq	r0, r0, #0
     2ac:	61082023 	tstvs	r8, r3, lsr #32
     2b0:	03000001 	movweq	r0, #1
     2b4:	0001632b 	andeq	r6, r1, fp, lsr #6
     2b8:	21230200 	teqcs	r3, r0, lsl #4
     2bc:	0001f508 	andeq	pc, r1, r8, lsl #10
     2c0:	572c0300 	strpl	r0, [ip, -r0, lsl #6]!
     2c4:	02000000 	andeq	r0, r0, #0
     2c8:	bb082423 	bllt	20935c <LOADER_PHYS_START-0x3fdf6ca4>
     2cc:	03000001 	movweq	r0, #1
     2d0:	0001632d 	andeq	r6, r1, sp, lsr #6
     2d4:	25230200 	strcs	r0, [r3, #-512]!	; 0x200
     2d8:	00012508 	andeq	r2, r1, r8, lsl #10
     2dc:	372e0300 	strcc	r0, [lr, -r0, lsl #6]!
     2e0:	02000000 	andeq	r0, r0, #0
     2e4:	f0082823 			; <UNDEFINED> instruction: 0xf0082823
     2e8:	03000001 	movweq	r0, #1
     2ec:	00005e2f 	andeq	r5, r0, pc, lsr #28
     2f0:	2c230200 	sfmcs	f0, 4, [r3], #-0
     2f4:	0001c008 	andeq	ip, r1, r8
     2f8:	73300300 	teqvc	r0, #0
     2fc:	02000001 	andeq	r0, r0, #1
     300:	09002e23 	stmdbeq	r0, {r0, r1, r5, r9, sl, fp, sp}
     304:	00000057 	andeq	r0, r0, r7, asr r0
     308:	00000173 	andeq	r0, r0, r3, ror r1
     30c:	0000370a 	andeq	r3, r0, sl, lsl #14
     310:	09000200 	stmdbeq	r0, {r9}
     314:	00000057 	andeq	r0, r0, r7, asr r0
     318:	00000184 	andeq	r0, r0, r4, lsl #3
     31c:	0000370b 	andeq	r3, r0, fp, lsl #14
     320:	00ffcf00 	rscseq	ip, pc, r0, lsl #30
     324:	00013f0c 	andeq	r3, r1, ip, lsl #30
     328:	011e0100 	tsteq	lr, r0, lsl #2
     32c:	00000025 	andeq	r0, r0, r5, lsr #32
     330:	0001cc01 	andeq	ip, r1, r1, lsl #24
     334:	706f0d00 	rsbvc	r0, pc, r0, lsl #26
     338:	251e0100 	ldrcs	r0, [lr, #-256]	; 0x100
     33c:	0d000000 	stceq	0, cr0, [r0, #-0]
     340:	01006f69 	tsteq	r0, r9, ror #30
     344:	0000251e 	andeq	r2, r0, lr, lsl r5
     348:	01710e00 	cmneq	r1, r0, lsl #28
     34c:	20010000 	andcs	r0, r1, r0
     350:	000001cc 	andeq	r0, r0, ip, asr #3
     354:	00090e0e 	andeq	r0, r9, lr, lsl #28
     358:	37210100 	strcc	r0, [r1, -r0, lsl #2]!
     35c:	0f000000 	svceq	0x00000000
     360:	006c7610 	rsbeq	r7, ip, r0, lsl r6
     364:	002c2b01 	eoreq	r2, ip, r1, lsl #22
     368:	00000000 	andeq	r0, r0, r0
     36c:	00810411 	addeq	r0, r1, r1, lsl r4
     370:	01120000 	tsteq	r2, r0
     374:	000001fa 	strdeq	r0, [r0], -sl
     378:	25010b01 	strcs	r0, [r1, #-2817]	; 0xb01
     37c:	d0000000 	andle	r0, r0, r0
     380:	f0400000 			; <UNDEFINED> instruction: 0xf0400000
     384:	02400000 	subeq	r0, r0, #0
     388:	0113007d 	tsteq	r3, sp, ror r0
     38c:	00000176 	andeq	r0, r0, r6, ror r1
     390:	25011301 	strcs	r1, [r1, #-769]	; 0x301
     394:	f0000000 			; <UNDEFINED> instruction: 0xf0000000
     398:	3c400000 	marcc	acc0, r0, r0
     39c:	02400001 	subeq	r0, r0, #1
     3a0:	0216007d 	andseq	r0, r6, #125	; 0x7d
     3a4:	8f140000 	svchi	0x00140000
     3a8:	01000009 	tsteq	r0, r9
     3ac:	00002513 	andeq	r2, r0, r3, lsl r5
     3b0:	00004b00 	andeq	r4, r0, r0, lsl #22
     3b4:	01130000 	tsteq	r3, r0
     3b8:	00000213 	andeq	r0, r0, r3, lsl r2
     3bc:	25012e01 	strcs	r2, [r1, #-3585]	; 0xe01
     3c0:	3c000000 	stccc	0, cr0, [r0], {-0}
     3c4:	58400001 	stmdapl	r0, {r0}^
     3c8:	02400001 	subeq	r0, r0, #1
     3cc:	025c007d 	subseq	r0, ip, #125	; 0x7d
     3d0:	71150000 	tstvc	r5, r0
     3d4:	01000001 	tsteq	r0, r1
     3d8:	00025c30 	andeq	r5, r2, r0, lsr ip
     3dc:	f4030500 	vst3.8	{d0,d2,d4}, [r3], r0
     3e0:	16400039 			; <UNDEFINED> instruction: 0x16400039
     3e4:	40000148 	andmi	r0, r0, r8, asr #2
     3e8:	4000014c 	andmi	r0, r0, ip, asr #2
     3ec:	006c7617 	rsbeq	r7, ip, r7, lsl r6
     3f0:	002c3301 	eoreq	r3, ip, r1, lsl #6
     3f4:	00690000 	rsbeq	r0, r9, r0
     3f8:	00000000 	andeq	r0, r0, r0
     3fc:	0001cc18 	andeq	ip, r1, r8, lsl ip
     400:	a2011300 	andge	r1, r1, #0
     404:	01000001 	tsteq	r0, r1
     408:	0025013b 	eoreq	r0, r5, fp, lsr r1
     40c:	01580000 	cmpeq	r8, r0
     410:	01904000 	orrseq	r4, r0, r0
     414:	7d024000 	stcvc	0, cr4, [r2, #-0]
     418:	00031400 	andeq	r1, r3, r0, lsl #8
     41c:	01711500 	cmneq	r1, r0, lsl #10
     420:	3d010000 	stccc	0, cr0, [r1, #-0]
     424:	0000025c 	andeq	r0, r0, ip, asr r2
     428:	39f40305 	ldmibcc	r4!, {r0, r2, r8, r9}^
     42c:	84194000 	ldrhi	r4, [r9], #-0
     430:	64000001 	strvs	r0, [r0], #-1
     434:	68400001 	stmdavs	r0, {r0}^
     438:	01400001 	cmpeq	r0, r1
     43c:	0002e342 	andeq	lr, r2, r2, asr #6
     440:	019f1a00 	orrseq	r1, pc, r0, lsl #20
     444:	007c0000 	rsbseq	r0, ip, r0
     448:	951a0000 	ldrls	r0, [sl, #-0]
     44c:	7c000001 	stcvc	0, cr0, [r0], {1}
     450:	16000000 	strne	r0, [r0], -r0
     454:	40000164 	andmi	r0, r0, r4, ror #2
     458:	40000168 	andmi	r0, r0, r8, ror #2
     45c:	0001a91b 	andeq	sl, r1, fp, lsl r9
     460:	00009000 	andeq	r9, r0, r0
     464:	01b41b00 			; <UNDEFINED> instruction: 0x01b41b00
     468:	00a70000 	adceq	r0, r7, r0
     46c:	64160000 	ldrvs	r0, [r6], #-0
     470:	68400001 	stmdavs	r0, {r0}^
     474:	1b400001 	blne	1000480 <LOADER_PHYS_START-0x3efffb80>
     478:	000001c0 	andeq	r0, r0, r0, asr #3
     47c:	000000bb 	strheq	r0, [r0], -fp
     480:	1c000000 	stcne	0, cr0, [r0], {-0}
     484:	40000170 	andmi	r0, r0, r0, ror r1
     488:	40000174 	andmi	r0, r0, r4, ror r1
     48c:	000002ff 	strdeq	r0, [r0], -pc	; <UNPREDICTABLE>
     490:	006c7617 	rsbeq	r7, ip, r7, lsl r6
     494:	002c4001 	eoreq	r4, ip, r1
     498:	00ce0000 	sbceq	r0, lr, r0
     49c:	16000000 	strne	r0, [r0], -r0
     4a0:	40000184 	andmi	r0, r0, r4, lsl #3
     4a4:	40000188 	andmi	r0, r0, r8, lsl #3
     4a8:	006c7610 	rsbeq	r7, ip, r0, lsl r6
     4ac:	004c4501 	subeq	r4, ip, r1, lsl #10
     4b0:	00000000 	andeq	r0, r0, r0
     4b4:	0150011d 	cmpeq	r0, sp, lsl r1
     4b8:	48010000 	stmdami	r1, {}	; <UNPREDICTABLE>
     4bc:	00019001 	andeq	r9, r1, r1
     4c0:	0001c040 	andeq	ip, r1, r0, asr #32
     4c4:	007d0240 	rsbseq	r0, sp, r0, asr #4
     4c8:	000003d0 	ldrdeq	r0, [r0], -r0	; <UNPREDICTABLE>
     4cc:	0100631e 	tsteq	r0, lr, lsl r3
     4d0:	0003d048 	andeq	sp, r3, r8, asr #32
     4d4:	15500100 	ldrbne	r0, [r0, #-256]	; 0x100
     4d8:	00000171 	andeq	r0, r0, r1, ror r1
     4dc:	025c4a01 	subseq	r4, ip, #4096	; 0x1000
     4e0:	03050000 	movweq	r0, #20480	; 0x5000
     4e4:	400039f0 	strdmi	r3, [r0], -r0
     4e8:	00018419 	andeq	r8, r1, r9, lsl r4
     4ec:	00019c00 	andeq	r9, r1, r0, lsl #24
     4f0:	0001a040 	andeq	sl, r1, r0, asr #32
     4f4:	9d4c0140 	stflse	f0, [ip, #-256]	; 0xffffff00
     4f8:	1a000003 	bne	50c <LOADER_PHYS_START-0x3ffffaf4>
     4fc:	0000019f 	muleq	r0, pc, r1	; <UNPREDICTABLE>
     500:	000000e1 	andeq	r0, r0, r1, ror #1
     504:	0001951a 	andeq	r9, r1, sl, lsl r5
     508:	0000e100 	andeq	lr, r0, r0, lsl #2
     50c:	019c1600 	orrseq	r1, ip, r0, lsl #12
     510:	01a04000 	moveq	r4, r0
     514:	a91b4000 	ldmdbge	fp, {lr}
     518:	f5000001 			; <UNDEFINED> instruction: 0xf5000001
     51c:	1b000000 	blne	524 <LOADER_PHYS_START-0x3ffffadc>
     520:	000001b4 			; <UNDEFINED> instruction: 0x000001b4
     524:	0000010c 	andeq	r0, r0, ip, lsl #2
     528:	00019c16 	andeq	r9, r1, r6, lsl ip
     52c:	0001a040 	andeq	sl, r1, r0, asr #32
     530:	01c01b40 	biceq	r1, r0, r0, asr #22
     534:	01200000 	teqeq	r0, r0
     538:	00000000 	andeq	r0, r0, r0
     53c:	01a81c00 			; <UNDEFINED> instruction: 0x01a81c00
     540:	01ac4000 			; <UNDEFINED> instruction: 0x01ac4000
     544:	03b94000 			; <UNDEFINED> instruction: 0x03b94000
     548:	76170000 	ldrvc	r0, [r7], -r0
     54c:	4b01006c 	blmi	40704 <LOADER_PHYS_START-0x3ffbf8fc>
     550:	0000002c 	andeq	r0, r0, ip, lsr #32
     554:	00000133 	andeq	r0, r0, r3, lsr r1
     558:	01b41600 			; <UNDEFINED> instruction: 0x01b41600
     55c:	01c04000 	biceq	r4, r0, r0
     560:	761f4000 	ldrvc	r4, [pc], -r0
     564:	4f01006c 	svcmi	0x0001006c
     568:	0000004c 	andeq	r0, r0, ip, asr #32
     56c:	00005001 	andeq	r5, r0, r1
     570:	0003d518 	andeq	sp, r3, r8, lsl r5
     574:	08010400 	stmdaeq	r1, {sl}
     578:	00000031 	andeq	r0, r0, r1, lsr r0
     57c:	0113011d 	tsteq	r3, sp, lsl r1
     580:	53010000 	movwpl	r0, #4096	; 0x1000
     584:	0001c001 	andeq	ip, r1, r1
     588:	0001d440 	andeq	sp, r1, r0, asr #8
     58c:	007d0240 	rsbseq	r0, sp, r0, asr #4
     590:	00000467 	andeq	r0, r0, r7, ror #8
     594:	00081120 	andeq	r1, r8, r0, lsr #2
     598:	2c530100 	ldfcse	f0, [r3], {-0}
     59c:	01000000 	mrseq	r0, (UNDEF: 0)
     5a0:	01711550 	cmneq	r1, r0, asr r5
     5a4:	55010000 	strpl	r0, [r1, #-0]
     5a8:	0000025c 	andeq	r0, r0, ip, asr r2
     5ac:	5c215001 	stcpl	0, cr5, [r1], #-4
     5b0:	01000001 	tsteq	r0, r1
     5b4:	00002c56 	andeq	r2, r0, r6, asr ip
     5b8:	6e360000 	cdpvs	0, 3, cr0, cr6, cr0, {0}
     5bc:	01992101 	orrseq	r2, r9, r1, lsl #2
     5c0:	57010000 	strpl	r0, [r1, -r0]
     5c4:	0000002c 	andeq	r0, r0, ip, lsr #32
     5c8:	0001c200 	andeq	ip, r1, r0, lsl #4
     5cc:	6c617622 	stclvs	6, cr7, [r1], #-136	; 0xffffff78
     5d0:	2c580100 	ldfcse	f0, [r8], {-0}
     5d4:	d0000000 	andle	r0, r0, r0
     5d8:	0001c01c 	andeq	ip, r1, ip, lsl r0
     5dc:	0001c840 	andeq	ip, r1, r0, asr #16
     5e0:	00045140 	andeq	r5, r4, r0, asr #2
     5e4:	6c762200 	lfmvs	f2, 2, [r6], #-0
     5e8:	2c5c0100 	ldfcse	f0, [ip], {-0}
     5ec:	0c000000 	stceq	0, cr0, [r0], {-0}
     5f0:	01c81600 	biceq	r1, r8, r0, lsl #12
     5f4:	01d04000 	bicseq	r4, r0, r0
     5f8:	76224000 	strtvc	r4, [r2], -r0
     5fc:	5e01006c 	cdppl	0, 0, cr0, cr1, cr12, {3}
     600:	0000004c 	andeq	r0, r0, ip, asr #32
     604:	1d000000 	stcne	0, cr0, [r0, #-0]
     608:	00010701 	andeq	r0, r1, r1, lsl #14
     60c:	01620100 	cmneq	r2, r0, lsl #2
     610:	400001d4 	ldrdmi	r0, [r0], -r4
     614:	40000210 	andmi	r0, r0, r0, lsl r2
     618:	ec007d02 	stc	13, cr7, [r0], {2}
     61c:	21000004 	tstcs	r0, r4
     620:	00000171 	andeq	r0, r0, r1, ror r1
     624:	025c6401 	subseq	r6, ip, #16777216	; 0x1000000
     628:	00000000 	andeq	r0, r0, r0
     62c:	302312c2 	eorcc	r1, r3, r2, asr #5
     630:	a3000000 	movwge	r0, #0
     634:	22000004 	andcs	r0, r0, #4
     638:	01006c76 	tsteq	r0, r6, ror ip
     63c:	00002c66 	andeq	r2, r0, r6, ror #24
     640:	1c000100 	stfnes	f0, [r0], {-0}
     644:	400001ec 	andmi	r0, r0, ip, ror #3
     648:	400001f4 	strdmi	r0, [r0], -r4
     64c:	000004bc 			; <UNDEFINED> instruction: 0x000004bc
     650:	006c7622 	rsbeq	r7, ip, r2, lsr #12
     654:	002c6701 	eoreq	r6, ip, r1, lsl #14
     658:	00000000 	andeq	r0, r0, r0
     65c:	0001f41c 	andeq	pc, r1, ip, lsl r4	; <UNPREDICTABLE>
     660:	0001fc40 	andeq	pc, r1, r0, asr #24
     664:	0004d540 	andeq	sp, r4, r0, asr #10
     668:	6c762200 	lfmvs	f2, 2, [r6], #-0
     66c:	2c690100 	stfcse	f0, [r9], #-0
     670:	03000000 	movweq	r0, #0
     674:	01fc1600 	mvnseq	r1, r0, lsl #12
     678:	02044000 	andeq	r4, r4, #0
     67c:	76244000 	strtvc	r4, [r4], -r0
     680:	6b01006c 	blvs	40838 <LOADER_PHYS_START-0x3ffbf7c8>
     684:	0000002c 	andeq	r0, r0, ip, lsr #32
     688:	00000245 	andeq	r0, r0, r5, asr #4
     68c:	00013215 	andeq	r3, r1, r5, lsl r2
     690:	2c080100 	stfcss	f0, [r8], {-0}
     694:	05000000 	streq	r0, [r0, #-0]
     698:	0039f403 	eorseq	pc, r9, r3, lsl #8
     69c:	01df1540 	bicseq	r1, pc, r0, asr #10
     6a0:	09010000 	stmdbeq	r1, {}	; <UNPREDICTABLE>
     6a4:	0000002c 	andeq	r0, r0, ip, lsr #32
     6a8:	39f00305 	ldmibcc	r0!, {r0, r2, r8, r9}^
     6ac:	ed004000 	stc	0, cr4, [r0, #-0]
     6b0:	02000001 	andeq	r0, r0, #1
     6b4:	0002fc00 	andeq	pc, r2, r0, lsl #24
     6b8:	4c010400 	cfstrsmi	mvf0, [r1], {-0}
     6bc:	01000000 	mrseq	r0, (UNDEF: 0)
     6c0:	00000297 	muleq	r0, r7, r2
     6c4:	00000058 	andeq	r0, r0, r8, asr r0
     6c8:	40000210 	andmi	r0, r0, r0, lsl r2
     6cc:	400003ac 	andmi	r0, r0, ip, lsr #7
     6d0:	00000187 	andeq	r0, r0, r7, lsl #3
     6d4:	69050402 	stmdbvs	r5, {r1, sl}
     6d8:	0300746e 	movweq	r7, #1134	; 0x46e
     6dc:	0000020a 	andeq	r0, r0, sl, lsl #4
     6e0:	00370502 	eorseq	r0, r7, r2, lsl #10
     6e4:	04040000 	streq	r0, [r4], #-0
     6e8:	00001b07 	andeq	r1, r0, r7, lsl #22
     6ec:	07020400 	streq	r0, [r2, -r0, lsl #8]
     6f0:	000000c7 	andeq	r0, r0, r7, asr #1
     6f4:	00022e03 	andeq	r2, r2, r3, lsl #28
     6f8:	50070200 	andpl	r0, r7, r0, lsl #4
     6fc:	04000000 	streq	r0, [r0], #-0
     700:	00110708 	andseq	r0, r1, r8, lsl #14
     704:	01040000 	mrseq	r0, (UNDEF: 4)
     708:	00002808 	andeq	r2, r0, r8, lsl #16
     70c:	ac010500 	cfstr32ge	mvfx0, [r1], {-0}
     710:	01000002 	tsteq	r0, r2
     714:	02100105 	andseq	r0, r0, #1073741825	; 0x40000001
     718:	02384000 	eorseq	r4, r8, #0
     71c:	01514000 	cmpeq	r1, r0
     720:	00850000 	addeq	r0, r5, r0
     724:	63060000 	movwvs	r0, #24576	; 0x6000
     728:	85050100 	strhi	r0, [r5, #-256]	; 0x100
     72c:	71000000 	mrsvc	r0, (UNDEF: 0)
     730:	00000001 	andeq	r0, r0, r1
     734:	00008a07 	andeq	r8, r0, r7, lsl #20
     738:	08010400 	stmdaeq	r1, {sl}
     73c:	00000031 	andeq	r0, r0, r1, lsr r0
     740:	02370108 	eorseq	r0, r7, #2
     744:	0c010000 	stceq	0, cr0, [r1], {-0}
     748:	00002501 	andeq	r2, r0, r1, lsl #10
     74c:	00023800 	andeq	r3, r2, r0, lsl #16
     750:	00024c40 	andeq	r4, r2, r0, asr #24
     754:	00018f40 	andeq	r8, r1, r0, asr #30
     758:	5d010500 	cfstr32pl	mvfx0, [r1, #-0]
     75c:	01000002 	tsteq	r0, r2
     760:	024c0114 	subeq	r0, ip, #5
     764:	02a84000 	adceq	r4, r8, #0
     768:	01af4000 			; <UNDEFINED> instruction: 0x01af4000
     76c:	00e00000 	rsceq	r0, r0, r0
     770:	73060000 	movwvc	r0, #24576	; 0x6000
     774:	01007274 	tsteq	r0, r4, ror r2
     778:	0000e014 	andeq	lr, r0, r4, lsl r0
     77c:	0001cf00 	andeq	ip, r1, r0, lsl #30
     780:	00690900 	rsbeq	r0, r9, r0, lsl #18
     784:	00251601 	eoreq	r1, r5, r1, lsl #12
     788:	01e20000 	mvneq	r0, r0
     78c:	0a000000 	beq	794 <LOADER_PHYS_START-0x3ffff86c>
     790:	00008504 	andeq	r8, r0, r4, lsl #10
     794:	45010500 	strmi	r0, [r1, #-1280]	; 0x500
     798:	01000002 	tsteq	r0, r2
     79c:	02a80124 	adceq	r0, r8, #9
     7a0:	02e84000 	rsceq	r4, r8, #0
     7a4:	02234000 	eoreq	r4, r3, #0
     7a8:	012f0000 	teqeq	pc, r0
     7ac:	76060000 	strvc	r0, [r6], -r0
     7b0:	2c240100 	stfcss	f0, [r4], #-0
     7b4:	43000000 	movwmi	r0, #0
     7b8:	0b000002 	bleq	7c8 <LOADER_PHYS_START-0x3ffff838>
     7bc:	000002a6 	andeq	r0, r0, r6, lsr #5
     7c0:	00372601 	eorseq	r2, r7, r1, lsl #12
     7c4:	090f0000 	stmdbeq	pc, {}	; <UNPREDICTABLE>
     7c8:	27010063 	strcs	r0, [r1, -r3, rrx]
     7cc:	00000037 	andeq	r0, r0, r7, lsr r0
     7d0:	00000261 	andeq	r0, r0, r1, ror #4
     7d4:	0100690c 	tsteq	r0, ip, lsl #18
     7d8:	00002528 	andeq	r2, r0, r8, lsr #10
     7dc:	01050000 	mrseq	r0, (UNDEF: 5)
     7e0:	0000027c 	andeq	r0, r0, ip, ror r2
     7e4:	e8013401 	stmda	r1, {r0, sl, ip, sp}
     7e8:	04400002 	strbeq	r0, [r0], #-2
     7ec:	7f400003 	svcvc	0x00400003
     7f0:	56000002 	strpl	r0, [r0], -r2
     7f4:	06000001 	streq	r0, [r0], -r1
     7f8:	34010076 	strcc	r0, [r1], #-118	; 0x76
     7fc:	00000045 	andeq	r0, r0, r5, asr #32
     800:	0000029f 	muleq	r0, pc, r2	; <UNPREDICTABLE>
     804:	68010d00 	stmdavs	r1, {r8, sl, fp}
     808:	01000002 	tsteq	r0, r2
     80c:	008a013b 	addeq	r0, sl, fp, lsr r1
     810:	03040000 	movweq	r0, #16384	; 0x4000
     814:	03344000 	teqeq	r4, #0
     818:	02b74000 	adcseq	r4, r7, #0
     81c:	01800000 	orreq	r0, r0, r0
     820:	630e0000 	movwvs	r0, #57344	; 0xe000
     824:	3d010068 	stccc	0, cr0, [r1, #-416]	; 0xfffffe60
     828:	0000008a 	andeq	r0, r0, sl, lsl #1
     82c:	05005401 	streq	r5, [r0, #-1025]	; 0x401
     830:	00028d01 	andeq	r8, r2, r1, lsl #26
     834:	01460100 	mrseq	r0, (UNDEF: 86)
     838:	40000334 	andmi	r0, r0, r4, lsr r3
     83c:	4000039c 	mulmi	r0, ip, r3
     840:	000002d7 	ldrdeq	r0, [r0], -r7
     844:	000001d5 	ldrdeq	r0, [r0], -r5
     848:	72747306 	rsbsvc	r7, r4, #402653184	; 0x18000000
     84c:	d5460100 	strble	r0, [r6, #-256]	; 0x100
     850:	f7000001 			; <UNDEFINED> instruction: 0xf7000001
     854:	0f000002 	svceq	0x00000002
     858:	000002b6 			; <UNDEFINED> instruction: 0x000002b6
     85c:	00254601 	eoreq	r4, r5, r1, lsl #12
     860:	030a0000 	movweq	r0, #40960	; 0xa000
     864:	56100000 	ldrpl	r0, [r0], -r0
     868:	01000002 	tsteq	r0, r2
     86c:	0001d548 	andeq	sp, r1, r8, asr #10
     870:	00035800 	andeq	r5, r3, r0, lsl #16
     874:	68630900 	stmdavs	r3!, {r8, fp}^
     878:	8a490100 	bhi	1240c80 <LOADER_PHYS_START-0x3edbf380>
     87c:	a2000000 	andge	r0, r0, #0
     880:	00000003 	andeq	r0, r0, r3
     884:	008a040a 	addeq	r0, sl, sl, lsl #8
     888:	01110000 	tsteq	r1, r0
     88c:	00000272 	andeq	r0, r0, r2, ror r2
     890:	9c015601 	stcls	6, cr5, [r1], {1}
     894:	ac400003 	mcrrge	0, 0, r0, r0, cr3
     898:	c0400003 	subgt	r0, r0, r3
     89c:	00000003 	andeq	r0, r0, r3
     8a0:	000000ec 	andeq	r0, r0, ip, ror #1
     8a4:	04060002 	streq	r0, [r6], #-2
     8a8:	01040000 	mrseq	r0, (UNDEF: 4)
     8ac:	0000004c 	andeq	r0, r0, ip, asr #32
     8b0:	0002cf01 	andeq	ip, r2, r1, lsl #30
     8b4:	00005800 	andeq	r5, r0, r0, lsl #16
     8b8:	0003ac00 	andeq	sl, r3, r0, lsl #24
     8bc:	00046440 	andeq	r6, r4, r0, asr #8
     8c0:	00024240 	andeq	r4, r2, r0, asr #4
     8c4:	05040200 	streq	r0, [r4, #-512]	; 0x200
     8c8:	00746e69 	rsbseq	r6, r4, r9, ror #28
     8cc:	1b070403 	blne	1c18e0 <LOADER_PHYS_START-0x3fe3e720>
     8d0:	03000000 	movweq	r0, #0
     8d4:	00c70702 	sbceq	r0, r7, r2, lsl #14
     8d8:	08030000 	stmdaeq	r3, {}	; <UNPREDICTABLE>
     8dc:	00001107 	andeq	r1, r0, r7, lsl #2
     8e0:	08010300 	stmdaeq	r1, {r8, r9}
     8e4:	00000028 	andeq	r0, r0, r8, lsr #32
     8e8:	01050404 	tsteq	r5, r4, lsl #8
     8ec:	000002c1 	andeq	r0, r0, r1, asr #5
     8f0:	ac011001 	stcge	0, cr1, [r1], {1}
     8f4:	34400003 	strbcc	r0, [r0], #-3
     8f8:	e0400004 	sub	r0, r0, r4
     8fc:	a0000003 	andge	r0, r0, r3
     900:	06000000 	streq	r0, [r0], -r0
     904:	00717269 	rsbseq	r7, r1, r9, ror #4
     908:	00251001 	eoreq	r1, r5, r1
     90c:	04000000 	streq	r0, [r0], #-0
     910:	df070000 	svcle	0x00070000
     914:	01000002 	tsteq	r0, r2
     918:	00004810 	andeq	r4, r0, r0, lsl r8
     91c:	00041e00 	andeq	r1, r4, r0, lsl #28
     920:	02e50700 	rsceq	r0, r5, #0
     924:	10010000 	andne	r0, r1, r0
     928:	00000048 	andeq	r0, r0, r8, asr #32
     92c:	00000431 	andeq	r0, r0, r1, lsr r4
     930:	00ad0108 	adceq	r0, sp, r8, lsl #2
     934:	18010000 	stmdane	r1, {}	; <UNPREDICTABLE>
     938:	00000025 	andeq	r0, r0, r5, lsr #32
     93c:	00000901 	andeq	r0, r0, r1, lsl #18
     940:	02eb010a 	rsceq	r0, fp, #-2147483646	; 0x80000002
     944:	24010000 	strcs	r0, [r1], #-0
     948:	00043401 	andeq	r3, r4, r1, lsl #8
     94c:	00043c40 	andeq	r3, r4, r0, asr #24
     950:	007d0240 	rsbseq	r0, sp, r0, asr #4
     954:	0304010a 	movweq	r0, #16650	; 0x410a
     958:	2a010000 	bcs	40960 <LOADER_PHYS_START-0x3ffbf6a0>
     95c:	00043c01 	andeq	r3, r4, r1, lsl #24
     960:	00044440 	andeq	r4, r4, r0, asr #8
     964:	007d0240 	rsbseq	r0, sp, r0, asr #4
     968:	02f9010b 	rscseq	r0, r9, #-1073741822	; 0xc0000002
     96c:	1c010000 	stcne	0, cr0, [r1], {-0}
     970:	00044401 	andeq	r4, r4, r1, lsl #8
     974:	00046440 	andeq	r6, r4, r0, asr #8
     978:	00044440 	andeq	r4, r4, r0, asr #8
     97c:	03110c00 	tsteq	r1, #0
     980:	0c010000 	stceq	0, cr0, [r1], {-0}
     984:	00000025 	andeq	r0, r0, r5, lsr #32
     988:	b4030501 	strlt	r0, [r3], #-1281	; 0x501
     98c:	00400039 	subeq	r0, r0, r9, lsr r0
     990:	00000aaa 	andeq	r0, r0, sl, lsr #21
     994:	04bd0002 	ldrteq	r0, [sp], #2
     998:	01040000 	mrseq	r0, (UNDEF: 4)
     99c:	0000004c 	andeq	r0, r0, ip, asr #32
     9a0:	00039e01 	andeq	r9, r3, r1, lsl #28
     9a4:	00005800 	andeq	r5, r0, r0, lsl #16
     9a8:	00046400 	andeq	r6, r4, r0, lsl #8
     9ac:	00072440 	andeq	r2, r7, r0, asr #8
     9b0:	00029e40 	andeq	r9, r2, r0, asr #28
     9b4:	03f40200 	mvnseq	r0, #0
     9b8:	02200000 	eoreq	r0, r0, #0
     9bc:	00009448 	andeq	r9, r0, r8, asr #8
     9c0:	6f630300 	svcvs	0x00630300
     9c4:	4902006e 	stmdbmi	r2, {r1, r2, r3, r5, r6}
     9c8:	00000094 	muleq	r0, r4, r0
     9cc:	03002302 	movweq	r2, #770	; 0x302
     9d0:	00746164 	rsbseq	r6, r4, r4, ror #2
     9d4:	00944a02 	addseq	r4, r4, r2, lsl #20
     9d8:	23020000 	movwcs	r0, #8192	; 0x2000
     9dc:	03ef0404 	mvneq	r0, #67108864	; 0x4000000
     9e0:	4b020000 	blmi	809e8 <LOADER_PHYS_START-0x3ff7f618>
     9e4:	00000094 	muleq	r0, r4, r0
     9e8:	03082302 	movweq	r2, #33538	; 0x8302
     9ec:	00767264 	rsbseq	r7, r6, r4, ror #4
     9f0:	00944c02 	addseq	r4, r4, r2, lsl #24
     9f4:	23020000 	movwcs	r0, #8192	; 0x2000
     9f8:	0432040c 	ldrteq	r0, [r2], #-1036	; 0x40c
     9fc:	4d020000 	stcmi	0, cr0, [r2, #-0]
     a00:	00000094 	muleq	r0, r4, r0
     a04:	04102302 	ldreq	r2, [r0], #-770	; 0x302
     a08:	000003eb 	andeq	r0, r0, fp, ror #7
     a0c:	00944e02 	addseq	r4, r4, r2, lsl #28
     a10:	23020000 	movwcs	r0, #8192	; 0x2000
     a14:	01610414 	cmneq	r1, r4, lsl r4
     a18:	4f020000 	svcmi	0x00020000
     a1c:	0000009b 	muleq	r0, fp, r0
     a20:	00182302 	andseq	r2, r8, r2, lsl #6
     a24:	1b070405 	blne	1c1a40 <LOADER_PHYS_START-0x3fe3e5c0>
     a28:	06000000 	streq	r0, [r0], -r0
     a2c:	000000ab 	andeq	r0, r0, fp, lsr #1
     a30:	000000ab 	andeq	r0, r0, fp, lsr #1
     a34:	00009407 	andeq	r9, r0, r7, lsl #8
     a38:	05000700 	streq	r0, [r0, #-1792]	; 0x700
     a3c:	00280801 	eoreq	r0, r8, r1, lsl #16
     a40:	04080000 	streq	r0, [r8], #-0
     a44:	746e6905 	strbtvc	r6, [lr], #-2309	; 0x905
     a48:	020a0900 	andeq	r0, sl, #0
     a4c:	05030000 	streq	r0, [r3, #-0]
     a50:	00000094 	muleq	r0, r4, r0
     a54:	c7070205 	strgt	r0, [r7, -r5, lsl #4]
     a58:	05000000 	streq	r0, [r0, #-0]
     a5c:	00110708 	andseq	r0, r1, r8, lsl #14
     a60:	010a0000 	mrseq	r0, (UNDEF: 10)
     a64:	00000333 	andeq	r0, r0, r3, lsr r3
     a68:	01011301 	tsteq	r1, r1, lsl #6
     a6c:	00000129 	andeq	r0, r0, r9, lsr #2
     a70:	0003fd0b 	andeq	pc, r3, fp, lsl #26
     a74:	29130100 	ldmdbcs	r3, {r8}
     a78:	0b000001 	bleq	a84 <LOADER_PHYS_START-0x3ffff57c>
     a7c:	0000042d 	andeq	r0, r0, sp, lsr #8
     a80:	00b21301 	adcseq	r1, r2, r1, lsl #6
     a84:	630c0000 	movwvs	r0, #49152	; 0xc000
     a88:	01006766 	tsteq	r0, r6, ror #14
     a8c:	0000b213 	andeq	fp, r0, r3, lsl r2
     a90:	04470d00 	strbeq	r0, [r7], #-3328	; 0xd00
     a94:	15010000 	strne	r0, [r1, #-0]
     a98:	00000094 	muleq	r0, r4, r0
     a9c:	00011c0e 	andeq	r1, r1, lr, lsl #24
     aa0:	6c760f00 	ldclvs	15, cr0, [r6], #-0
     aa4:	b9170100 	ldmdblt	r7, {r8}
     aa8:	00000000 	andeq	r0, r0, r0
     aac:	6c760f10 	ldclvs	15, cr0, [r6], #-64	; 0xffffffc0
     ab0:	b91a0100 	ldmdblt	sl, {r8}
     ab4:	00000000 	andeq	r0, r0, r0
     ab8:	25041100 	strcs	r1, [r4, #-256]	; 0x100
     abc:	12000000 	andne	r0, r0, #0
     ac0:	000003bb 			; <UNDEFINED> instruction: 0x000003bb
     ac4:	9401f902 	strls	pc, [r1], #-2306	; 0x902
     ac8:	03000000 	movweq	r0, #0
     acc:	0000014b 	andeq	r0, r0, fp, asr #2
     ad0:	00726e0c 	rsbseq	r6, r2, ip, lsl #28
     ad4:	00b2f902 	adcseq	pc, r2, r2, lsl #18
     ad8:	12000000 	andne	r0, r0, #0
     adc:	000003ad 	andeq	r0, r0, sp, lsr #7
     ae0:	9401ed02 	strls	lr, [r1], #-3330	; 0xd02
     ae4:	03000000 	movweq	r0, #0
     ae8:	00000167 	andeq	r0, r0, r7, ror #2
     aec:	00726e0c 	rsbseq	r6, r2, ip, lsl #28
     af0:	00b2ed02 	adcseq	lr, r2, r2, lsl #26
     af4:	13000000 	movwne	r0, #0
     af8:	00031b01 	andeq	r1, r3, r1, lsl #22
     afc:	017d0100 	cmneq	sp, r0, lsl #2
     b00:	00000129 	andeq	r0, r0, r9, lsr #2
     b04:	00019901 	andeq	r9, r1, r1, lsl #18
     b08:	042d0b00 	strteq	r0, [sp], #-2816	; 0xb00
     b0c:	7d010000 	stcvc	0, cr0, [r1, #-0]
     b10:	00000094 	muleq	r0, r4, r0
     b14:	0003fd0d 	andeq	pc, r3, sp, lsl #26
     b18:	b27f0100 	rsbslt	r0, pc, #0
     b1c:	0f000000 	svceq	0x00000000
     b20:	80010067 	andhi	r0, r1, r7, rrx
     b24:	00000094 	muleq	r0, r4, r0
     b28:	da011300 	ble	45730 <LOADER_PHYS_START-0x3ffba8d0>
     b2c:	01000003 	tsteq	r0, r3
     b30:	00b20187 	adcseq	r0, r2, r7, lsl #3
     b34:	b7010000 	strlt	r0, [r1, -r0]
     b38:	0b000001 	bleq	b44 <LOADER_PHYS_START-0x3ffff4bc>
     b3c:	0000042d 	andeq	r0, r0, sp, lsr #8
     b40:	00948701 	addseq	r8, r4, r1, lsl #14
     b44:	0a000000 	beq	b4c <LOADER_PHYS_START-0x3ffff4b4>
     b48:	00034401 	andeq	r4, r3, r1, lsl #8
     b4c:	012a0100 	teqeq	sl, r0, lsl #2
     b50:	0001dc01 	andeq	sp, r1, r1, lsl #24
     b54:	03fd0b00 	mvnseq	r0, #0
     b58:	2a010000 	bcs	40b60 <LOADER_PHYS_START-0x3ffbf4a0>
     b5c:	00000129 	andeq	r0, r0, r9, lsr #2
     b60:	00042d0b 	andeq	r2, r4, fp, lsl #26
     b64:	b22a0100 	eorlt	r0, sl, #0
     b68:	00000000 	andeq	r0, r0, r0
     b6c:	043a0113 	ldrteq	r0, [sl], #-275	; 0x113
     b70:	3a010000 	bcc	40b78 <LOADER_PHYS_START-0x3ffbf488>
     b74:	00009401 	andeq	r9, r0, r1, lsl #8
     b78:	021c0100 	andseq	r0, ip, #0
     b7c:	fd0b0000 	stc2	0, cr0, [fp, #-0]
     b80:	01000003 	tsteq	r0, r3
     b84:	0001293a 	andeq	r2, r1, sl, lsr r9
     b88:	042d0b00 	strteq	r0, [sp], #-2816	; 0xb00
     b8c:	3a010000 	bcc	40b94 <LOADER_PHYS_START-0x3ffbf46c>
     b90:	000000b2 	strheq	r0, [r0], -r2
     b94:	0004470d 	andeq	r4, r4, sp, lsl #14
     b98:	943c0100 	ldrtls	r0, [ip], #-256	; 0x100
     b9c:	10000000 	andne	r0, r0, r0
     ba0:	006c760f 	rsbeq	r7, ip, pc, lsl #12
     ba4:	00b93e01 	adcseq	r3, r9, r1, lsl #28
     ba8:	00000000 	andeq	r0, r0, r0
     bac:	035d010a 	cmpeq	sp, #-2147483646	; 0x80000002
     bb0:	2f010000 	svccs	0x00010000
     bb4:	02720101 	rsbseq	r0, r2, #1073741824	; 0x40000000
     bb8:	fd0b0000 	stc2	0, cr0, [fp, #-0]
     bbc:	01000003 	tsteq	r0, r3
     bc0:	0001292f 	andeq	r2, r1, pc, lsr #18
     bc4:	042d0b00 	strteq	r0, [sp], #-2816	; 0xb00
     bc8:	2f010000 	svccs	0x00010000
     bcc:	000000b2 	strheq	r0, [r0], -r2
     bd0:	006e650c 	rsbeq	r6, lr, ip, lsl #10
     bd4:	00b22f01 	adcseq	r2, r2, r1, lsl #30
     bd8:	470d0000 	strmi	r0, [sp, -r0]
     bdc:	01000004 	tsteq	r0, r4
     be0:	00009431 	andeq	r9, r0, r1, lsr r4
     be4:	02650e00 	rsbeq	r0, r5, #0
     be8:	760f0000 	strvc	r0, [pc], -r0
     bec:	3301006c 	movwcc	r0, #4204	; 0x106c
     bf0:	000000b9 	strheq	r0, [r0], -r9
     bf4:	760f1000 	strvc	r1, [pc], -r0
     bf8:	3701006c 	strcc	r0, [r1, -ip, rrx]
     bfc:	000000b9 	strheq	r0, [r0], -r9
     c00:	d2140000 	andsle	r0, r4, #0
     c04:	64000000 	strvs	r0, [r0], #-0
     c08:	80400004 	subhi	r0, r0, r4
     c0c:	02400004 	subeq	r0, r0, #4
     c10:	02cf007d 	sbceq	r0, pc, #125	; 0x7d
     c14:	e0150000 	ands	r0, r5, r0
     c18:	01000000 	mrseq	r0, (UNDEF: 0)
     c1c:	00eb1650 	rsceq	r1, fp, r0, asr r6
     c20:	04640000 	strbteq	r0, [r4], #-0
     c24:	f6150000 			; <UNDEFINED> instruction: 0xf6150000
     c28:	01000000 	mrseq	r0, (UNDEF: 0)
     c2c:	01011752 	tsteq	r1, r2, asr r7
     c30:	04770000 	ldrbteq	r0, [r7], #-0
     c34:	64180000 	ldrvs	r0, [r8], #-0
     c38:	68400004 	stmdavs	r0, {r2}^
     c3c:	bd400004 	stcllt	0, cr0, [r0, #-16]
     c40:	17000002 	strne	r0, [r0, -r2]
     c44:	00000111 	andeq	r0, r0, r1, lsl r1
     c48:	00000495 	muleq	r0, r5, r4
     c4c:	04781900 	ldrbteq	r1, [r8], #-2304	; 0x900
     c50:	047c4000 	ldrbteq	r4, [ip], #-0
     c54:	1d1a4000 	ldcne	0, cr4, [sl, #-0]
     c58:	01000001 	tsteq	r0, r1
     c5c:	1b000051 	blne	da8 <LOADER_PHYS_START-0x3ffff258>
     c60:	00041301 	andeq	r1, r4, r1, lsl #6
     c64:	011d0100 	tsteq	sp, r0, lsl #2
     c68:	40000480 	andmi	r0, r0, r0, lsl #9
     c6c:	400004c0 	andmi	r0, r0, r0, asr #9
     c70:	000004a8 	andeq	r0, r0, r8, lsr #9
     c74:	000003b5 			; <UNDEFINED> instruction: 0x000003b5
     c78:	0003fd1c 	andeq	pc, r3, ip, lsl sp	; <UNPREDICTABLE>
     c7c:	291d0100 	ldmdbcs	sp, {r8}
     c80:	01000001 	tsteq	r0, r1
     c84:	042d1d50 	strteq	r1, [sp], #-3408	; 0xd50
     c88:	1d010000 	stcne	0, cr0, [r1, #-0]
     c8c:	000000b2 	strheq	r0, [r0], -r2
     c90:	000004c8 	andeq	r0, r0, r8, asr #9
     c94:	006e651e 	rsbeq	r6, lr, lr, lsl r5
     c98:	00b21d01 	adcseq	r1, r2, r1, lsl #26
     c9c:	04db0000 	ldrbeq	r0, [fp], #0
     ca0:	471f0000 	ldrmi	r0, [pc, -r0]
     ca4:	01000004 	tsteq	r0, r4
     ca8:	0000941f 	andeq	r9, r0, pc, lsl r4
     cac:	20530100 	subscs	r0, r3, r0, lsl #2
     cb0:	000000d2 	ldrdeq	r0, [r0], -r2
     cb4:	40000484 	andmi	r0, r0, r4, lsl #9
     cb8:	00000048 	andeq	r0, r0, r8, asr #32
     cbc:	03822101 	orreq	r2, r2, #1073741824	; 0x40000000
     cc0:	f6210000 			; <UNDEFINED> instruction: 0xf6210000
     cc4:	01000000 	mrseq	r0, (UNDEF: 0)
     cc8:	0000eb16 	andeq	lr, r0, r6, lsl fp
     ccc:	0004c800 	andeq	ip, r4, r0, lsl #16
     cd0:	00e01500 	rsceq	r1, r0, r0, lsl #10
     cd4:	50010000 	andpl	r0, r1, r0
     cd8:	00006822 	andeq	r6, r0, r2, lsr #16
     cdc:	01011700 	tsteq	r1, r0, lsl #14
     ce0:	04ee0000 	strbteq	r0, [lr], #0
     ce4:	88180000 	ldmdahi	r8, {}	; <UNPREDICTABLE>
     ce8:	8c400004 	mcrrhi	0, 0, r0, r0, cr4
     cec:	6d400004 	stclvs	0, cr0, [r0, #-16]
     cf0:	17000003 	strne	r0, [r0, -r3]
     cf4:	00000111 	andeq	r0, r0, r1, lsl r1
     cf8:	00000518 	andeq	r0, r0, r8, lsl r5
     cfc:	04a41900 	strteq	r1, [r4], #2304	; 0x900
     d00:	04a84000 	strteq	r4, [r8], #0
     d04:	1d174000 	ldcne	0, cr4, [r7, #-0]
     d08:	2b000001 	blcs	d14 <LOADER_PHYS_START-0x3ffff2ec>
     d0c:	00000005 	andeq	r0, r0, r5
     d10:	a8180000 	ldmdage	r8, {}	; <UNPREDICTABLE>
     d14:	ac400004 	mcrrge	0, 0, r0, r0, cr4
     d18:	9e400004 	cdpls	0, 4, cr0, cr0, cr4, {0}
     d1c:	23000003 	movwcs	r0, #3
     d20:	01006c76 	tsteq	r0, r6, ror ip
     d24:	0000b923 	andeq	fp, r0, r3, lsr #18
     d28:	00054a00 	andeq	r4, r5, r0, lsl #20
     d2c:	b4190000 	ldrlt	r0, [r9], #-0
     d30:	b8400004 	stmdalt	r0, {r2}^
     d34:	24400004 	strbcs	r0, [r0], #-4
     d38:	01006c76 	tsteq	r0, r6, ror ip
     d3c:	0000b927 	andeq	fp, r0, r7, lsr #18
     d40:	00530100 	subseq	r0, r3, r0, lsl #2
     d44:	01b71400 			; <UNDEFINED> instruction: 0x01b71400
     d48:	04c00000 	strbeq	r0, [r0], #0
     d4c:	04d84000 	ldrbeq	r4, [r8], #0
     d50:	7d024000 	stcvc	0, cr4, [r2, #-0]
     d54:	00043900 	andeq	r3, r4, r0, lsl #18
     d58:	01c51500 	biceq	r1, r5, r0, lsl #10
     d5c:	50010000 	andpl	r0, r1, r0
     d60:	0001d016 	andeq	sp, r1, r6, lsl r0
     d64:	00055d00 	andeq	r5, r5, r0, lsl #26
     d68:	00d22500 	sbcseq	r2, r2, r0, lsl #10
     d6c:	04c00000 	strbeq	r0, [r0], #0
     d70:	04d44000 	ldrbeq	r4, [r4], #0
     d74:	2c014000 	stccs	0, cr4, [r1], {-0}
     d78:	0000f621 	andeq	pc, r0, r1, lsr #12
     d7c:	eb160000 	bl	580d84 <LOADER_PHYS_START-0x3fa7f27c>
     d80:	5d000000 	stcpl	0, cr0, [r0, #-0]
     d84:	15000005 	strne	r0, [r0, #-5]
     d88:	000000e0 	andeq	r0, r0, r0, ror #1
     d8c:	c0195001 	andsgt	r5, r9, r1
     d90:	d4400004 	strble	r0, [r0], #-4
     d94:	17400004 	strbne	r0, [r0, -r4]
     d98:	00000101 	andeq	r0, r0, r1, lsl #2
     d9c:	00000570 	andeq	r0, r0, r0, ror r5
     da0:	0004c018 	andeq	ip, r4, r8, lsl r0
     da4:	0004c440 	andeq	ip, r4, r0, asr #8
     da8:	00042540 	andeq	r2, r4, r0, asr #10
     dac:	01111a00 	tsteq	r1, r0, lsl #20
     db0:	53010000 	movwpl	r0, #4096	; 0x1000
     db4:	04d01900 	ldrbeq	r1, [r0], #2304	; 0x900
     db8:	04d44000 	ldrbeq	r4, [r4], #0
     dbc:	1d1a4000 	ldcne	0, cr4, [sl, #-0]
     dc0:	01000001 	tsteq	r0, r1
     dc4:	00000051 	andeq	r0, r0, r1, asr r0
     dc8:	021c1400 	andseq	r1, ip, #0
     dcc:	04d80000 	ldrbeq	r0, [r8], #0
     dd0:	04f84000 	ldrbteq	r4, [r8], #0
     dd4:	7d024000 	stcvc	0, cr4, [r2, #-0]
     dd8:	00049400 	andeq	r9, r4, r0, lsl #8
     ddc:	022a1500 	eoreq	r1, sl, #0
     de0:	50010000 	andpl	r0, r1, r0
     de4:	00023516 	andeq	r3, r2, r6, lsl r5
     de8:	00058e00 	andeq	r8, r5, r0, lsl #28
     dec:	02401500 	subeq	r1, r0, #0
     df0:	52010000 	andpl	r0, r1, #0
     df4:	00024a1a 	andeq	r4, r2, sl, lsl sl
     df8:	18530100 	ldmdane	r3, {r8}^
     dfc:	400004d8 	ldrdmi	r0, [r0], -r8
     e00:	400004dc 	ldrdmi	r0, [r0], -ip
     e04:	00000482 	andeq	r0, r0, r2, lsl #9
     e08:	00025a17 	andeq	r5, r2, r7, lsl sl
     e0c:	0005a100 	andeq	sl, r5, r0, lsl #2
     e10:	f0190000 			; <UNDEFINED> instruction: 0xf0190000
     e14:	f4400004 	vst4.8	{d16-d19}, [r0], r4
     e18:	1a400004 	bne	1000e30 <LOADER_PHYS_START-0x3efff1d0>
     e1c:	00000266 	andeq	r0, r0, r6, ror #4
     e20:	00005301 	andeq	r5, r0, r1, lsl #6
     e24:	0001dc14 	andeq	sp, r1, r4, lsl ip
     e28:	0004f800 	andeq	pc, r4, r0, lsl #16
     e2c:	00051040 	andeq	r1, r5, r0, asr #32
     e30:	007d0240 	rsbseq	r0, sp, r0, asr #4
     e34:	000004d1 	ldrdeq	r0, [r0], -r1
     e38:	0001ee16 	andeq	lr, r1, r6, lsl lr
     e3c:	0005b400 	andeq	fp, r5, r0, lsl #8
     e40:	01f91500 	mvnseq	r1, r0, lsl #10
     e44:	51010000 	mrspl	r0, (UNDEF: 1)
     e48:	0002041a 	andeq	r0, r2, sl, lsl r4
     e4c:	19530100 	ldmdbne	r3, {r8}^
     e50:	400004f8 	strdmi	r0, [r0], -r8
     e54:	400004fc 	strdmi	r0, [r0], -ip
     e58:	0002101a 	andeq	r1, r2, sl, lsl r0
     e5c:	00530100 	subseq	r0, r3, r0, lsl #2
     e60:	82012600 	andhi	r2, r1, #0
     e64:	01000003 	tsteq	r0, r3
     e68:	05100142 	ldreq	r0, [r0, #-322]	; 0x142
     e6c:	05444000 	strbeq	r4, [r4, #-0]
     e70:	7d024000 	stcvc	0, cr4, [r2, #-0]
     e74:	00055000 	andeq	r5, r5, r0
     e78:	03fd1c00 	mvnseq	r1, #0
     e7c:	42010000 	andmi	r0, r1, #0
     e80:	00000129 	andeq	r0, r0, r9, lsr #2
     e84:	2d1d5001 	ldccs	0, cr5, [sp, #-4]
     e88:	01000004 	tsteq	r0, r4
     e8c:	0000b242 	andeq	fp, r0, r2, asr #4
     e90:	0005c700 	andeq	ip, r5, r0, lsl #14
     e94:	098f1c00 	stmibeq	pc, {sl, fp, ip}	; <UNPREDICTABLE>
     e98:	42010000 	andmi	r0, r1, #0
     e9c:	000000b2 	strheq	r0, [r0], -r2
     ea0:	471f5201 	ldrmi	r5, [pc, -r1, lsl #4]
     ea4:	01000004 	tsteq	r0, r4
     ea8:	00009444 	andeq	r9, r0, r4, asr #8
     eac:	18530100 	ldmdane	r3, {r8}^
     eb0:	40000510 	andmi	r0, r0, r0, lsl r5
     eb4:	40000514 	andmi	r0, r0, r4, lsl r5
     eb8:	0000053b 	andeq	r0, r0, fp, lsr r5
     ebc:	006c7623 	rsbeq	r7, ip, r3, lsr #12
     ec0:	00b94601 	adcseq	r4, r9, r1, lsl #12
     ec4:	05da0000 	ldrbeq	r0, [sl]
     ec8:	22000000 	andcs	r0, r0, #0
     ecc:	00000088 	andeq	r0, r0, r8, lsl #1
     ed0:	006c7623 	rsbeq	r7, ip, r3, lsr #12
     ed4:	00b95201 	adcseq	r5, r9, r1, lsl #4
     ed8:	05ed0000 	strbeq	r0, [sp, #0]!
     edc:	00000000 	andeq	r0, r0, r0
     ee0:	04020126 	streq	r0, [r2], #-294	; 0x126
     ee4:	55010000 	strpl	r0, [r1, #-0]
     ee8:	00054401 	andeq	r4, r5, r1, lsl #8
     eec:	00056840 	andeq	r6, r5, r0, asr #16
     ef0:	007d0240 	rsbseq	r0, sp, r0, asr #4
     ef4:	000005d5 	ldrdeq	r0, [r0], -r5
     ef8:	0003fd1c 	andeq	pc, r3, ip, lsl sp	; <UNPREDICTABLE>
     efc:	29550100 	ldmdbcs	r5, {r8}^
     f00:	01000001 	tsteq	r0, r1
     f04:	042d1d50 	strteq	r1, [sp], #-3408	; 0xd50
     f08:	55010000 	strpl	r0, [r1, #-0]
     f0c:	000000b2 	strheq	r0, [r0], -r2
     f10:	0000060b 	andeq	r0, r0, fp, lsl #12
     f14:	00098f1d 	andeq	r8, r9, sp, lsl pc
     f18:	b2550100 	subslt	r0, r5, #0
     f1c:	1e000000 	cdpne	0, 0, cr0, cr0, cr0, {0}
     f20:	27000006 	strcs	r0, [r0, -r6]
     f24:	00000447 	andeq	r0, r0, r7, asr #8
     f28:	00945701 	addseq	r5, r4, r1, lsl #14
     f2c:	06310000 	ldrteq	r0, [r1], -r0
     f30:	48180000 	ldmdami	r8, {}	; <UNPREDICTABLE>
     f34:	4c400005 	mcrrmi	0, 0, r0, r0, cr5
     f38:	be400005 	cdplt	0, 4, cr0, cr0, cr5, {0}
     f3c:	23000005 	movwcs	r0, #5
     f40:	01006c76 	tsteq	r0, r6, ror ip
     f44:	0000b959 	andeq	fp, r0, r9, asr r9
     f48:	00066c00 	andeq	r6, r6, r0, lsl #24
     f4c:	60190000 	andsvs	r0, r9, r0
     f50:	68400005 	stmdavs	r0, {r0, r2}^
     f54:	24400005 	strbcs	r0, [r0], #-5
     f58:	01006c76 	tsteq	r0, r6, ror ip
     f5c:	0000b967 	andeq	fp, r0, r7, ror #18
     f60:	00520100 	subseq	r0, r2, r0, lsl #2
     f64:	70012600 	andvc	r2, r1, r0, lsl #12
     f68:	01000003 	tsteq	r0, r3
     f6c:	0568016a 	strbeq	r0, [r8, #-362]!	; 0x16a
     f70:	05904000 	ldreq	r4, [r0]
     f74:	7d024000 	stcvc	0, cr4, [r2, #-0]
     f78:	00065a00 	andeq	r5, r6, r0, lsl #20
     f7c:	03fd1c00 	mvnseq	r1, #0
     f80:	6a010000 	bvs	40f88 <LOADER_PHYS_START-0x3ffbf078>
     f84:	00000129 	andeq	r0, r0, r9, lsr #2
     f88:	2d1d5001 	ldccs	0, cr5, [sp, #-4]
     f8c:	01000004 	tsteq	r0, r4
     f90:	0000b26a 	andeq	fp, r0, sl, ror #4
     f94:	00067f00 	andeq	r7, r6, r0, lsl #30
     f98:	098f1d00 	stmibeq	pc, {r8, sl, fp, ip}	; <UNPREDICTABLE>
     f9c:	6a010000 	bvs	40fa4 <LOADER_PHYS_START-0x3ffbf05c>
     fa0:	000000b2 	strheq	r0, [r0], -r2
     fa4:	00000692 	muleq	r0, r2, r6
     fa8:	00044727 	andeq	r4, r4, r7, lsr #14
     fac:	946c0100 	strbtls	r0, [ip], #-256	; 0x100
     fb0:	a5000000 	strge	r0, [r0, #-0]
     fb4:	18000006 	stmdane	r0, {r1, r2}
     fb8:	4000056c 	andmi	r0, r0, ip, ror #10
     fbc:	40000570 	andmi	r0, r0, r0, ror r5
     fc0:	00000643 	andeq	r0, r0, r3, asr #12
     fc4:	006c7623 	rsbeq	r7, ip, r3, lsr #12
     fc8:	00b96e01 	adcseq	r6, r9, r1, lsl #28
     fcc:	06b80000 	ldrteq	r0, [r8], r0
     fd0:	19000000 	stmdbne	r0, {}	; <UNPREDICTABLE>
     fd4:	40000588 	andmi	r0, r0, r8, lsl #11
     fd8:	40000590 	mulmi	r0, r0, r5
     fdc:	006c7624 	rsbeq	r7, ip, r4, lsr #12
     fe0:	00b97a01 	adcseq	r7, r9, r1, lsl #20
     fe4:	51010000 	mrspl	r0, (UNDEF: 1)
     fe8:	67140000 	ldrvs	r0, [r4, -r0]
     fec:	90000001 	andls	r0, r0, r1
     ff0:	c8400005 	stmdagt	r0, {r0, r2}^
     ff4:	02400005 	subeq	r0, r0, #5
     ff8:	06a3007d 	sxtabeq	r0, r3, sp
     ffc:	79160000 	ldmdbvc	r6, {}	; <UNPREDICTABLE>
    1000:	cb000001 	blgt	100c <LOADER_PHYS_START-0x3fffeff4>
    1004:	17000006 	strne	r0, [r0, -r6]
    1008:	00000184 	andeq	r0, r0, r4, lsl #3
    100c:	000006f7 	strdeq	r0, [r0], -r7
    1010:	00018f17 	andeq	r8, r1, r7, lsl pc
    1014:	00074300 	andeq	r4, r7, r0, lsl #6
    1018:	012f2500 	teqeq	pc, r0, lsl #10
    101c:	05900000 	ldreq	r0, [r0]
    1020:	05984000 	ldreq	r4, [r8]
    1024:	80014000 	andhi	r4, r1, r0
    1028:	00014016 	andeq	r4, r1, r6, lsl r0
    102c:	0006cb00 	andeq	ip, r6, r0, lsl #22
    1030:	14000000 	strne	r0, [r0], #-0
    1034:	00000199 	muleq	r0, r9, r1
    1038:	400005c8 	andmi	r0, r0, r8, asr #11
    103c:	400005d0 	ldrdmi	r0, [r0], -r0	; <UNPREDICTABLE>
    1040:	c1007d02 	tstgt	r0, r2, lsl #26
    1044:	16000006 	strne	r0, [r0], -r6
    1048:	000001ab 	andeq	r0, r0, fp, lsr #3
    104c:	0000076f 	andeq	r0, r0, pc, ror #14
    1050:	cd012800 	stcgt	8, cr2, [r1, #-0]
    1054:	01000003 	tsteq	r0, r3
    1058:	00b2018e 	adcseq	r0, r2, lr, lsl #3
    105c:	05d00000 	ldrbeq	r0, [r0]
    1060:	05d84000 	ldrbeq	r4, [r8]
    1064:	7d024000 	stcvc	0, cr4, [r2, #-0]
    1068:	0006fa00 	andeq	pc, r6, r0, lsl #20
    106c:	042d1d00 	strteq	r1, [sp], #-3328	; 0xd00
    1070:	8e010000 	cdphi	0, 0, cr0, cr1, cr0, {0}
    1074:	00000094 	muleq	r0, r4, r0
    1078:	00000782 	andeq	r0, r0, r2, lsl #15
    107c:	00032d1c 	andeq	r2, r3, ip, lsl sp
    1080:	fa8e0100 	blx	fe381488 <restore_guest_end+0x8dc81488>
    1084:	01000006 	tsteq	r0, r6
    1088:	04110051 	ldreq	r0, [r1], #-81	; 0x51
    108c:	00000700 	andeq	r0, r0, r0, lsl #14
    1090:	00070529 	andeq	r0, r7, r9, lsr #10
    1094:	08010500 	stmdaeq	r1, {r8, sl}
    1098:	00000031 	andeq	r0, r0, r1, lsr r0
    109c:	03940128 	orrseq	r0, r4, #10
    10a0:	93010000 	movwls	r0, #4096	; 0x1000
    10a4:	0000b201 	andeq	fp, r0, r1, lsl #4
    10a8:	0005d800 	andeq	sp, r5, r0, lsl #16
    10ac:	0005e040 	andeq	lr, r5, r0, asr #32
    10b0:	007d0240 	rsbseq	r0, sp, r0, asr #4
    10b4:	00000738 	andeq	r0, r0, r8, lsr r7
    10b8:	00042d1d 	andeq	r2, r4, sp, lsl sp
    10bc:	94930100 	ldrls	r0, [r3], #256	; 0x100
    10c0:	95000000 	strls	r0, [r0, #-0]
    10c4:	00000007 	andeq	r0, r0, r7
    10c8:	0348012a 	movteq	r0, #33066	; 0x812a
    10cc:	98010000 	stmdals	r1, {}	; <UNPREDICTABLE>
    10d0:	0000b201 	andeq	fp, r0, r1, lsl #4
    10d4:	0005e000 	andeq	lr, r5, r0
    10d8:	00063440 	andeq	r3, r6, r0, asr #8
    10dc:	0007a840 	andeq	sl, r7, r0, asr #16
    10e0:	00084e00 	andeq	r4, r8, r0, lsl #28
    10e4:	042d1d00 	strteq	r1, [sp], #-3328	; 0xd00
    10e8:	98010000 	stmdals	r1, {}	; <UNPREDICTABLE>
    10ec:	00000094 	muleq	r0, r4, r0
    10f0:	000007c8 	andeq	r0, r0, r8, asr #15
    10f4:	00016720 	andeq	r6, r1, r0, lsr #14
    10f8:	0005e000 	andeq	lr, r5, r0
    10fc:	0000a040 	andeq	sl, r0, r0, asr #32
    1100:	ae9a0100 	fmlgee	f0, f2, f0
    1104:	2b000007 	blcs	1128 <LOADER_PHYS_START-0x3fffeed8>
    1108:	00000179 	andeq	r0, r0, r9, ror r1
    110c:	0000c022 	andeq	ip, r0, r2, lsr #32
    1110:	01841700 	orreq	r1, r4, r0, lsl #14
    1114:	07f10000 	ldrbeq	r0, [r1, r0]!
    1118:	8f170000 	svchi	0x00170000
    111c:	2e000001 	cdpcs	0, 0, cr0, cr0, cr1, {0}
    1120:	2c000008 	stccs	0, cr0, [r0], {8}
    1124:	0000012f 	andeq	r0, r0, pc, lsr #2
    1128:	400005e0 	andmi	r0, r0, r0, ror #11
    112c:	000000e0 	andeq	r0, r0, r0, ror #1
    1130:	40168001 	andsmi	r8, r6, r1
    1134:	4f000001 	svcmi	0x00000001
    1138:	00000008 	andeq	r0, r0, r8
    113c:	b7200000 	strlt	r0, [r0, -r0]!
    1140:	f8000001 			; <UNDEFINED> instruction: 0xf8000001
    1144:	f8400005 			; <UNDEFINED> instruction: 0xf8400005
    1148:	01000000 	mrseq	r0, (UNDEF: 0)
    114c:	0008389a 	muleq	r8, sl, r8
    1150:	01d01600 	bicseq	r1, r0, r0, lsl #12
    1154:	086d0000 	stmdaeq	sp!, {}^	; <UNPREDICTABLE>
    1158:	c5160000 	ldrgt	r0, [r6, #-0]
    115c:	84000001 	strhi	r0, [r0], #-1
    1160:	2c000008 	stccs	0, cr0, [r0], {8}
    1164:	000000d2 	ldrdeq	r0, [r0], -r2
    1168:	400005f8 	strdmi	r0, [r0], -r8
    116c:	00000118 	andeq	r0, r0, r8, lsl r1
    1170:	f6162c01 			; <UNDEFINED> instruction: 0xf6162c01
    1174:	9c000000 	stcls	0, cr0, [r0], {-0}
    1178:	16000008 	strne	r0, [r0], -r8
    117c:	000000eb 	andeq	r0, r0, fp, ror #1
    1180:	0000086d 	andeq	r0, r0, sp, ror #16
    1184:	0000e016 	andeq	lr, r0, r6, lsl r0
    1188:	00088400 	andeq	r8, r8, r0, lsl #8
    118c:	01382200 	teqeq	r8, r0, lsl #4
    1190:	01170000 	tsteq	r7, r0
    1194:	b0000001 	andlt	r0, r0, r1
    1198:	18000008 	stmdane	r0, {r3}
    119c:	400005f8 	strdmi	r0, [r0], -r8
    11a0:	400005fc 	strdmi	r0, [r0], -ip
    11a4:	00000822 	andeq	r0, r0, r2, lsr #16
    11a8:	00011117 	andeq	r1, r1, r7, lsl r1
    11ac:	0008ce00 	andeq	ip, r8, r0, lsl #28
    11b0:	10190000 	andsne	r0, r9, r0
    11b4:	14400006 	strbne	r0, [r0], #-6
    11b8:	17400006 	strbne	r0, [r0, -r6]
    11bc:	0000011d 	andeq	r0, r0, sp, lsl r1
    11c0:	000008e1 	andeq	r0, r0, r1, ror #17
    11c4:	00000000 	andeq	r0, r0, r0
    11c8:	00019925 	andeq	r9, r1, r5, lsr #18
    11cc:	0005fc00 	andeq	pc, r5, r0, lsl #24
    11d0:	00060040 	andeq	r0, r6, r0, asr #32
    11d4:	2b9a0140 	blcs	fe6816dc <restore_guest_end+0x8df816dc>
    11d8:	000001ab 	andeq	r0, r0, fp, lsr #3
    11dc:	012a0000 	teqeq	sl, r0
    11e0:	00000417 	andeq	r0, r0, r7, lsl r4
    11e4:	b2019f01 	andlt	r9, r1, #4
    11e8:	34000000 	strcc	r0, [r0], #-0
    11ec:	80400006 	subhi	r0, r0, r6
    11f0:	f4400006 	vst4.8	{d16-d19}, [r0], r6
    11f4:	d4000008 	strle	r0, [r0], #-8
    11f8:	1d000008 	stcne	0, cr0, [r0, #-32]	; 0xffffffe0
    11fc:	0000042d 	andeq	r0, r0, sp, lsr #8
    1200:	00949f01 	addseq	r9, r4, r1, lsl #30
    1204:	09140000 	ldmdbeq	r4, {}	; <UNPREDICTABLE>
    1208:	471d0000 	ldrmi	r0, [sp, -r0]
    120c:	01000004 	tsteq	r0, r4
    1210:	0000b29f 	muleq	r0, pc, r2	; <UNPREDICTABLE>
    1214:	00094800 	andeq	r4, r9, r0, lsl #16
    1218:	01672c00 	cmneq	r7, r0, lsl #24
    121c:	06340000 	ldrteq	r0, [r4], -r0
    1220:	01584000 	cmpeq	r8, r0
    1224:	a1010000 	mrsge	r0, (UNDEF: 1)
    1228:	00017916 	andeq	r7, r1, r6, lsl r9
    122c:	00097c00 	andeq	r7, r9, r0, lsl #24
    1230:	01782200 	cmneq	r8, r0, lsl #4
    1234:	84170000 	ldrhi	r0, [r7], #-0
    1238:	b0000001 	andlt	r0, r0, r1
    123c:	17000009 	strne	r0, [r0, -r9]
    1240:	0000018f 	andeq	r0, r0, pc, lsl #3
    1244:	00000a0c 	andeq	r0, r0, ip, lsl #20
    1248:	00012f2c 	andeq	r2, r1, ip, lsr #30
    124c:	00063400 	andeq	r3, r6, r0, lsl #8
    1250:	00019840 	andeq	r9, r1, r0, asr #16
    1254:	16800100 	strne	r0, [r0], r0, lsl #2
    1258:	00000140 	andeq	r0, r0, r0, asr #2
    125c:	0000097c 	andeq	r0, r0, ip, ror r9
    1260:	00000000 	andeq	r0, r0, r0
    1264:	043e0128 	ldrteq	r0, [lr], #-296	; 0x128
    1268:	a6010000 	strge	r0, [r1], -r0
    126c:	0000b201 	andeq	fp, r0, r1, lsl #4
    1270:	00068000 	andeq	r8, r6, r0
    1274:	0006cc40 	andeq	ip, r6, r0, asr #24
    1278:	007d0240 	rsbseq	r0, sp, r0, asr #4
    127c:	000009ab 	andeq	r0, r0, fp, lsr #19
    1280:	00042d1d 	andeq	r2, r4, sp, lsl sp
    1284:	94a60100 	strtls	r0, [r6], #256	; 0x100
    1288:	46000000 	strmi	r0, [r0], -r0
    128c:	2000000a 	andcs	r0, r0, sl
    1290:	00000167 	andeq	r0, r0, r7, ror #2
    1294:	40000680 	andmi	r0, r0, r0, lsl #13
    1298:	000001b0 			; <UNDEFINED> instruction: 0x000001b0
    129c:	0949a801 	stmdbeq	r9, {r0, fp, sp, pc}^
    12a0:	792b0000 	stmdbvc	fp!, {}	; <UNPREDICTABLE>
    12a4:	22000001 	andcs	r0, r0, #1
    12a8:	000001c8 	andeq	r0, r0, r8, asr #3
    12ac:	00018417 	andeq	r8, r1, r7, lsl r4
    12b0:	000a6f00 	andeq	r6, sl, r0, lsl #30
    12b4:	018f1700 	orreq	r1, pc, r0, lsl #14
    12b8:	0aac0000 	beq	feb012c0 <restore_guest_end+0x8e4012c0>
    12bc:	2f250000 	svccs	0x00250000
    12c0:	80000001 	andhi	r0, r0, r1
    12c4:	88400006 	stmdahi	r0, {r1, r2}^
    12c8:	01400006 	cmpeq	r0, r6
    12cc:	01401680 	smlalbbeq	r1, r0, r0, r6
    12d0:	0acd0000 	beq	ff3412d8 <restore_guest_end+0x8ec412d8>
    12d4:	00000000 	andeq	r0, r0, r0
    12d8:	01992d00 	orrseq	r2, r9, r0, lsl #26
    12dc:	06980000 	ldreq	r0, [r8], r0
    12e0:	069c4000 	ldreq	r4, [ip], r0
    12e4:	a8014000 	stmdage	r1, {lr}
    12e8:	00000962 	andeq	r0, r0, r2, ror #18
    12ec:	0001ab2b 	andeq	sl, r1, fp, lsr #22
    12f0:	dc250000 	stcle	0, cr0, [r5], #-0
    12f4:	9c000001 	stcls	0, cr0, [r0], {1}
    12f8:	a4400006 	strbge	r0, [r0], #-6
    12fc:	01400006 	cmpeq	r0, r6
    1300:	01f916a8 	mvnseq	r1, r8, lsr #13
    1304:	0aeb0000 	beq	ffac130c <restore_guest_end+0x8f3c130c>
    1308:	ee160000 	cdp	0, 1, cr0, cr6, cr0, {0}
    130c:	0d000001 	stceq	0, cr0, [r0, #-4]
    1310:	1900000b 	stmdbne	r0, {r0, r1, r3}
    1314:	4000069c 	mulmi	r0, ip, r6
    1318:	400006a4 	andmi	r0, r0, r4, lsr #13
    131c:	00020417 	andeq	r0, r2, r7, lsl r4
    1320:	000b2000 	andeq	r2, fp, r0
    1324:	069c1900 	ldreq	r1, [ip], r0, lsl #18
    1328:	06a04000 	strteq	r4, [r0], r0
    132c:	10174000 	andsne	r4, r7, r0
    1330:	20000002 	andcs	r0, r0, r2
    1334:	0000000b 	andeq	r0, r0, fp
    1338:	2e000000 	cdpcs	0, 0, cr0, cr0, cr0, {0}
    133c:	00036101 	andeq	r6, r3, r1, lsl #2
    1340:	01ac0100 			; <UNDEFINED> instruction: 0x01ac0100
    1344:	000000b2 	strheq	r0, [r0], -r2
    1348:	400006cc 	andmi	r0, r0, ip, asr #13
    134c:	40000724 	andmi	r0, r0, r4, lsr #14
    1350:	1d007d02 	stcne	13, cr7, [r0, #-8]
    1354:	0000042d 	andeq	r0, r0, sp, lsr #8
    1358:	0094ac01 	addseq	sl, r4, r1, lsl #24
    135c:	0b330000 	bleq	cc1364 <LOADER_PHYS_START-0x3f33ec9c>
    1360:	471d0000 	ldrmi	r0, [sp, -r0]
    1364:	01000004 	tsteq	r0, r4
    1368:	0000b2ac 	andeq	fp, r0, ip, lsr #5
    136c:	000b5100 	andeq	r5, fp, r0, lsl #2
    1370:	01672000 	cmneq	r7, r0
    1374:	06cc0000 	strbeq	r0, [ip], r0
    1378:	01e04000 	mvneq	r4, r0
    137c:	ae010000 	cdpge	0, 0, cr0, cr1, cr0, {0}
    1380:	00000a2f 	andeq	r0, r0, pc, lsr #20
    1384:	00017916 	andeq	r7, r1, r6, lsl r9
    1388:	000b3300 	andeq	r3, fp, r0, lsl #6
    138c:	01f82200 	mvnseq	r2, r0, lsl #4
    1390:	84170000 	ldrhi	r0, [r7], #-0
    1394:	6f000001 	svcvs	0x00000001
    1398:	1700000b 	strne	r0, [r0, -fp]
    139c:	0000018f 	andeq	r0, r0, pc, lsl #3
    13a0:	00000bac 	andeq	r0, r0, ip, lsr #23
    13a4:	00012f25 	andeq	r2, r1, r5, lsr #30
    13a8:	0006cc00 	andeq	ip, r6, r0, lsl #24
    13ac:	0006d440 	andeq	sp, r6, r0, asr #8
    13b0:	16800140 	strne	r0, [r0], r0, asr #2
    13b4:	00000140 	andeq	r0, r0, r0, asr #2
    13b8:	00000b33 	andeq	r0, r0, r3, lsr fp
    13bc:	20000000 	andcs	r0, r0, r0
    13c0:	0000021c 	andeq	r0, r0, ip, lsl r2
    13c4:	400006e4 	andmi	r0, r0, r4, ror #13
    13c8:	00000210 	andeq	r0, r0, r0, lsl r2
    13cc:	0a97ae01 	beq	fe5ecbd8 <restore_guest_end+0x8deecbd8>
    13d0:	40160000 	andsmi	r0, r6, r0
    13d4:	cd000002 	stcgt	0, cr0, [r0, #-8]
    13d8:	1600000b 	strne	r0, [r0], -fp
    13dc:	00000235 	andeq	r0, r0, r5, lsr r2
    13e0:	00000be0 	andeq	r0, r0, r0, ror #23
    13e4:	00022a16 	andeq	r2, r2, r6, lsl sl
    13e8:	000c0200 	andeq	r0, ip, r0, lsl #4
    13ec:	02302200 	eorseq	r2, r0, #0
    13f0:	4a170000 	bmi	5c13f8 <LOADER_PHYS_START-0x3fa3ec08>
    13f4:	15000002 	strne	r0, [r0, #-2]
    13f8:	1800000c 	stmdane	r0, {r2, r3}
    13fc:	400006e8 	andmi	r0, r0, r8, ror #13
    1400:	400006ec 	andmi	r0, r0, ip, ror #13
    1404:	00000a82 	andeq	r0, r0, r2, lsl #21
    1408:	00025a17 	andeq	r5, r2, r7, lsl sl
    140c:	000c2800 	andeq	r2, ip, r0, lsl #16
    1410:	04190000 	ldreq	r0, [r9], #-0
    1414:	08400007 	stmdaeq	r0, {r0, r1, r2}^
    1418:	17400007 	strbne	r0, [r0, -r7]
    141c:	00000266 	andeq	r0, r0, r6, ror #4
    1420:	00000c3b 	andeq	r0, r0, fp, lsr ip
    1424:	25000000 	strcs	r0, [r0, #-0]
    1428:	00000199 	muleq	r0, r9, r1
    142c:	400006f0 	strdmi	r0, [r0], -r0	; <UNPREDICTABLE>
    1430:	400006f4 	strdmi	r0, [r0], -r4
    1434:	ab2bae01 	blge	aecc40 <LOADER_PHYS_START-0x3f5133c0>
    1438:	00000001 	andeq	r0, r0, r1
    143c:	00bd0000 	adcseq	r0, sp, r0
    1440:	00020000 	andeq	r0, r2, r0
    1444:	0000073c 	andeq	r0, r0, ip, lsr r7
    1448:	004c0104 	subeq	r0, ip, r4, lsl #2
    144c:	58010000 	stmdapl	r1, {}	; <UNPREDICTABLE>
    1450:	58000004 	stmdapl	r0, {r2}
    1454:	24000000 	strcs	r0, [r0], #-0
    1458:	74400007 	strbvc	r0, [r0], #-7
    145c:	d1400007 	cmple	r0, r7
    1460:	02000004 	andeq	r0, r0, #4
    1464:	00002b04 	andeq	r2, r0, r4, lsl #22
    1468:	00300300 	eorseq	r0, r0, r0, lsl #6
    146c:	01040000 	mrseq	r0, (UNDEF: 4)
    1470:	00003108 	andeq	r3, r0, r8, lsl #2
    1474:	05040500 	streq	r0, [r4, #-1280]	; 0x500
    1478:	00746e69 	rsbseq	r6, r4, r9, ror #28
    147c:	1b070404 	blne	1c2494 <LOADER_PHYS_START-0x3fe3db6c>
    1480:	04000000 	streq	r0, [r0], #-0
    1484:	00c70702 	sbceq	r0, r7, r2, lsl #14
    1488:	08040000 	stmdaeq	r4, {}	; <UNPREDICTABLE>
    148c:	00001107 	andeq	r1, r0, r7, lsl #2
    1490:	08010400 	stmdaeq	r1, {sl}
    1494:	00000028 	andeq	r0, r0, r8, lsr #32
    1498:	044d0106 	strbeq	r0, [sp], #-262	; 0x106
    149c:	05010000 	streq	r0, [r1, #-0]
    14a0:	40000724 	andmi	r0, r0, r4, lsr #14
    14a4:	40000744 	andmi	r0, r0, r4, asr #14
    14a8:	00000c4e 	andeq	r0, r0, lr, asr #24
    14ac:	048d0107 	streq	r0, [sp], #263	; 0x107
    14b0:	0b010000 	bleq	414b8 <LOADER_PHYS_START-0x3ffbeb48>
    14b4:	00074401 	andeq	r4, r7, r1, lsl #8
    14b8:	00077440 	andeq	r7, r7, r0, asr #8
    14bc:	000c6e40 	andeq	r6, ip, r0, asr #28
    14c0:	0000a400 	andeq	sl, r0, r0, lsl #8
    14c4:	04860800 	streq	r0, [r6], #2048	; 0x800
    14c8:	0b010000 	bleq	414d0 <LOADER_PHYS_START-0x3ffbeb30>
    14cc:	00000025 	andeq	r0, r0, r5, lsr #32
    14d0:	09709102 	ldmdbeq	r0!, {r1, r8, ip, pc}^
    14d4:	0070610a 	rsbseq	r6, r0, sl, lsl #2
    14d8:	00a40d01 	adceq	r0, r4, r1, lsl #26
    14dc:	91020000 	mrsls	r0, (UNDEF: 2)
    14e0:	7c0b0064 	stcvc	0, cr0, [fp], {100}	; 0x64
    14e4:	04000004 	streq	r0, [r0], #-4
    14e8:	00be0002 	adcseq	r0, lr, r2
    14ec:	770c0000 	strvc	r0, [ip, -r0]
    14f0:	be000004 	cdplt	0, 0, cr0, cr0, cr4, {0}
    14f4:	02000000 	andeq	r0, r0, #0
    14f8:	00010023 	andeq	r0, r1, r3, lsr #32
    14fc:	4200040d 	andmi	r0, r0, #218103808	; 0xd000000
    1500:	02000009 	andeq	r0, r0, #9
    1504:	0007e600 	andeq	lr, r7, r0, lsl #12
    1508:	4c010400 	cfstrsmi	mvf0, [r1], {-0}
    150c:	01000000 	mrseq	r0, (UNDEF: 0)
    1510:	000004f6 	strdeq	r0, [r0], -r6
    1514:	00000058 	andeq	r0, r0, r8, asr r0
    1518:	40000774 	andmi	r0, r0, r4, ror r7
    151c:	40000c60 	andmi	r0, r0, r0, ror #24
    1520:	00000537 	andeq	r0, r0, r7, lsr r5
    1524:	1b070402 	blne	1c2534 <LOADER_PHYS_START-0x3fe3dacc>
    1528:	02000000 	andeq	r0, r0, #0
    152c:	00c70702 	sbceq	r0, r7, r2, lsl #14
    1530:	04030000 	streq	r0, [r3], #-0
    1534:	746e6905 	strbtvc	r6, [lr], #-2309	; 0x905
    1538:	40040400 	andmi	r0, r4, r0, lsl #8
    153c:	05000000 	streq	r0, [r0, #-0]
    1540:	00000045 	andeq	r0, r0, r5, asr #32
    1544:	31080102 	tstcc	r8, r2, lsl #2
    1548:	02000000 	andeq	r0, r0, #0
    154c:	00280801 	eoreq	r0, r8, r1, lsl #16
    1550:	7c060000 	stcvc	0, cr0, [r6], {-0}
    1554:	04000004 	streq	r0, [r0], #-4
    1558:	006d0002 	rsbeq	r0, sp, r2
    155c:	77070000 	strvc	r0, [r7, -r0]
    1560:	6d000004 	stcvs	0, cr0, [r0, #-16]
    1564:	02000000 	andeq	r0, r0, #0
    1568:	00010023 	andeq	r0, r1, r3, lsr #32
    156c:	c9090408 	stmdbgt	r9, {r3, sl}
    1570:	01000004 	tsteq	r0, r4
    1574:	0045010e 	subeq	r0, r5, lr, lsl #2
    1578:	8a030000 	bhi	c1580 <LOADER_PHYS_START-0x3ff3ea80>
    157c:	0a000000 	beq	1584 <LOADER_PHYS_START-0x3fffea7c>
    1580:	0e010063 	cdpeq	0, 0, cr0, cr1, cr3, {3}
    1584:	00000045 	andeq	r0, r0, r5, asr #32
    1588:	04a60900 	strteq	r0, [r6], #2304	; 0x900
    158c:	09010000 	stmdbeq	r1, {}	; <UNPREDICTABLE>
    1590:	00004501 	andeq	r4, r0, r1, lsl #10
    1594:	00a50300 	adceq	r0, r5, r0, lsl #6
    1598:	630a0000 	movwvs	r0, #40960	; 0xa000
    159c:	45090100 	strmi	r0, [r9, #-256]	; 0x100
    15a0:	00000000 	andeq	r0, r0, r0
    15a4:	0004c009 	andeq	ip, r4, r9
    15a8:	01130100 	tsteq	r3, r0, lsl #2
    15ac:	00000045 	andeq	r0, r0, r5, asr #32
    15b0:	0000c003 	andeq	ip, r0, r3
    15b4:	00630a00 	rsbeq	r0, r3, r0, lsl #20
    15b8:	00451301 	subeq	r1, r5, r1, lsl #6
    15bc:	09000000 	stmdbeq	r0, {}	; <UNPREDICTABLE>
    15c0:	000004ea 	andeq	r0, r0, sl, ror #9
    15c4:	33017201 	movwcc	r7, #4609	; 0x1201
    15c8:	01000000 	mrseq	r0, (UNDEF: 0)
    15cc:	000000fc 	strdeq	r0, [r0], -ip
    15d0:	0004e50b 	andeq	lr, r4, fp, lsl #10
    15d4:	0c720100 	ldfeqe	f0, [r2], #-0
    15d8:	0a000001 	beq	15e4 <LOADER_PHYS_START-0x3fffea1c>
    15dc:	00706f70 	rsbseq	r6, r0, r0, ror pc
    15e0:	011e7301 	tsteq	lr, r1, lsl #6
    15e4:	200b0000 	andcs	r0, fp, r0
    15e8:	01000005 	tsteq	r0, r5
    15ec:	00006d74 	andeq	r6, r0, r4, ror sp
    15f0:	006e0c00 	rsbeq	r0, lr, r0, lsl #24
    15f4:	00337601 	eorseq	r7, r3, r1, lsl #12
    15f8:	0d000000 	stceq	0, cr0, [r0, #-0]
    15fc:	00003301 	andeq	r3, r0, r1, lsl #6
    1600:	00010c00 	andeq	r0, r1, r0, lsl #24
    1604:	006d0e00 	rsbeq	r0, sp, r0, lsl #28
    1608:	04000000 	streq	r0, [r0], #-0
    160c:	0000fc04 	andeq	pc, r0, r4, lsl #24
    1610:	1e010f00 	cdpne	15, 0, cr0, cr1, cr0, {0}
    1614:	0e000001 	cdpeq	0, 0, cr0, cr0, cr1, {0}
    1618:	0000006d 	andeq	r0, r0, sp, rrx
    161c:	12040400 	andne	r0, r4, #0
    1620:	09000001 	stmdbeq	r0, {r0}
    1624:	00000526 	andeq	r0, r0, r6, lsr #10
    1628:	33013a01 	movwcc	r3, #6657	; 0x1a01
    162c:	01000000 	mrseq	r0, (UNDEF: 0)
    1630:	0000017f 	andeq	r0, r0, pc, ror r1
    1634:	0004e50b 	andeq	lr, r4, fp, lsl #10
    1638:	0c3a0100 	ldfeqs	f0, [sl], #-0
    163c:	0a000001 	beq	1648 <LOADER_PHYS_START-0x3fffe9b8>
    1640:	00706f70 	rsbseq	r6, r0, r0, ror pc
    1644:	011e3b01 	tsteq	lr, r1, lsl #22
    1648:	200b0000 	andcs	r0, fp, r0
    164c:	01000005 	tsteq	r0, r5
    1650:	00006d3c 	andeq	r6, r0, ip, lsr sp
    1654:	70760a00 	rsbsvc	r0, r6, r0, lsl #20
    1658:	7f3d0100 	svcvc	0x003d0100
    165c:	0b000001 	bleq	1668 <LOADER_PHYS_START-0x3fffe998>
    1660:	00000542 	andeq	r0, r0, r2, asr #10
    1664:	00453e01 	subeq	r3, r5, r1, lsl #28
    1668:	6e0c0000 	cdpvs	0, 0, cr0, cr12, cr0, {0}
    166c:	33400100 	movtcc	r0, #256	; 0x100
    1670:	0c000000 	stceq	0, cr0, [r0], {-0}
    1674:	01007470 	tsteq	r0, r0, ror r4
    1678:	00017f42 	andeq	r7, r1, r2, asr #30
    167c:	04040000 	streq	r0, [r4], #-0
    1680:	00000045 	andeq	r0, r0, r5, asr #32
    1684:	0004b609 	andeq	fp, r4, r9, lsl #12
    1688:	01530100 	cmpeq	r3, r0, lsl #2
    168c:	00000033 	andeq	r0, r0, r3, lsr r0
    1690:	0001de01 	andeq	sp, r1, r1, lsl #28
    1694:	04e50b00 	strbteq	r0, [r5], #2816	; 0xb00
    1698:	53010000 	movwpl	r0, #4096	; 0x1000
    169c:	0000010c 	andeq	r0, r0, ip, lsl #2
    16a0:	706f700a 	rsbvc	r7, pc, sl
    16a4:	1e540100 	rdfnes	f0, f4, f0
    16a8:	0b000001 	bleq	16b4 <LOADER_PHYS_START-0x3fffe94c>
    16ac:	00000520 	andeq	r0, r0, r0, lsr #10
    16b0:	006d5501 	rsbeq	r5, sp, r1, lsl #10
    16b4:	760a0000 	strvc	r0, [sl], -r0
    16b8:	56010070 			; <UNDEFINED> instruction: 0x56010070
    16bc:	000001de 	ldrdeq	r0, [r0], -lr
    16c0:	0100760c 	tsteq	r0, ip, lsl #12
    16c4:	0001e458 	andeq	lr, r1, r8, asr r4
    16c8:	006e0c00 	rsbeq	r0, lr, r0, lsl #24
    16cc:	00335901 	eorseq	r5, r3, r1, lsl #18
    16d0:	630c0000 	movwvs	r0, #49152	; 0xc000
    16d4:	5a010068 	bpl	4187c <LOADER_PHYS_START-0x3ffbe784>
    16d8:	00000045 	andeq	r0, r0, r5, asr #32
    16dc:	e4040400 	str	r0, [r4], #-1024	; 0x400
    16e0:	02000001 	andeq	r0, r0, #1
    16e4:	00160704 	andseq	r0, r6, r4, lsl #14
    16e8:	16090000 	strne	r0, [r9], -r0
    16ec:	01000005 	tsteq	r0, r5
    16f0:	00330119 	eorseq	r0, r3, r9, lsl r1
    16f4:	4f010000 	svcmi	0x00010000
    16f8:	0b000002 	bleq	1708 <LOADER_PHYS_START-0x3fffe8f8>
    16fc:	000004e5 	andeq	r0, r0, r5, ror #9
    1700:	010c1901 	tsteq	ip, r1, lsl #18
    1704:	700a0000 	andvc	r0, sl, r0
    1708:	0100706f 	tsteq	r0, pc, rrx
    170c:	00011e1a 	andeq	r1, r1, sl, lsl lr
    1710:	05200b00 	streq	r0, [r0, #-2816]!	; 0xb00
    1714:	1b010000 	blne	4171c <LOADER_PHYS_START-0x3ffbe8e4>
    1718:	0000006d 	andeq	r0, r0, sp, rrx
    171c:	0070760a 	rsbseq	r7, r0, sl, lsl #12
    1720:	024f1c01 	subeq	r1, pc, #256	; 0x100
    1724:	760c0000 	strvc	r0, [ip], -r0
    1728:	551e0100 	ldrpl	r0, [lr, #-256]	; 0x100
    172c:	0c000002 	stceq	0, cr0, [r0], {2}
    1730:	1f01006e 	svcne	0x0001006e
    1734:	00000033 	andeq	r0, r0, r3, lsr r0
    1738:	0004dd10 	andeq	sp, r4, r0, lsl sp
    173c:	33200100 	teqcc	r0, #0
    1740:	0c000000 	stceq	0, cr0, [r0], {-0}
    1744:	01006863 	tsteq	r0, r3, ror #16
    1748:	00004521 	andeq	r4, r0, r1, lsr #10
    174c:	04040000 	streq	r0, [r4], #-0
    1750:	00000255 	andeq	r0, r0, r5, asr r2
    1754:	32050402 	andcc	r0, r5, #33554432	; 0x2000000
    1758:	09000005 	stmdbeq	r0, {r0, r2}
    175c:	00000494 	muleq	r0, r4, r4
    1760:	33017e01 	movwcc	r7, #7681	; 0x1e01
    1764:	01000000 	mrseq	r0, (UNDEF: 0)
    1768:	000002f9 	strdeq	r0, [r0], -r9
    176c:	0004e50b 	andeq	lr, r4, fp, lsl #10
    1770:	0c7e0100 	ldfeqe	f0, [lr], #-0
    1774:	0a000001 	beq	1780 <LOADER_PHYS_START-0x3fffe880>
    1778:	00706f70 	rsbseq	r6, r0, r0, ror pc
    177c:	011e7f01 	tsteq	lr, r1, lsl #30
    1780:	200b0000 	andcs	r0, fp, r0
    1784:	01000005 	tsteq	r0, r5
    1788:	00006d80 	andeq	r6, r0, r0, lsl #27
    178c:	6d660a00 	vstmdbvs	r6!, {s1-s0}
    1790:	81010074 	tsthi	r1, r4, ror r0
    1794:	0000003a 	andeq	r0, r0, sl, lsr r0
    1798:	0070610a 	rsbseq	r6, r0, sl, lsl #2
    179c:	00538201 	subseq	r8, r3, r1, lsl #4
    17a0:	630c0000 	movwvs	r0, #49152	; 0xc000
    17a4:	84010068 	strhi	r0, [r1], #-104	; 0x68
    17a8:	00000045 	andeq	r0, r0, r5, asr #32
    17ac:	01006e0c 	tsteq	r0, ip, lsl #28
    17b0:	00003385 	andeq	r3, r0, r5, lsl #7
    17b4:	049e1000 	ldreq	r1, [lr], #0
    17b8:	86010000 	strhi	r0, [r1], -r0
    17bc:	00000033 	andeq	r0, r0, r3, lsr r0
    17c0:	0100720c 	tsteq	r0, ip, lsl #4
    17c4:	00003387 	andeq	r3, r0, r7, lsl #7
    17c8:	04d21000 	ldrbeq	r1, [r2], #0
    17cc:	88010000 	stmdahi	r1, {}	; <UNPREDICTABLE>
    17d0:	00000255 	andeq	r0, r0, r5, asr r2
    17d4:	00049910 	andeq	r9, r4, r0, lsl r9
    17d8:	45890100 	strmi	r0, [r9, #256]	; 0x100
    17dc:	10000000 	andne	r0, r0, r0
    17e0:	000004d1 	ldrdeq	r0, [r0], -r1
    17e4:	01e48a01 	mvneq	r8, r1, lsl #20
    17e8:	10110000 	andsne	r0, r1, r0
    17ec:	000004ae 	andeq	r0, r0, lr, lsr #9
    17f0:	00458e01 	subeq	r8, r5, r1, lsl #28
    17f4:	00000000 	andeq	r0, r0, r0
    17f8:	0004e312 	andeq	lr, r4, r2, lsl r3
    17fc:	01090100 	mrseq	r0, (UNDEF: 25)
    1800:	00003301 	andeq	r3, r0, r1, lsl #6
    1804:	03180100 	tsteq	r8, #0
    1808:	20130000 	andscs	r0, r3, r0
    180c:	01000005 	tsteq	r0, r5
    1810:	006d0109 	rsbeq	r0, sp, r9, lsl #2
    1814:	14000000 	strne	r0, [r0], #-0
    1818:	000002f9 	strdeq	r0, [r0], -r9
    181c:	40000774 	andmi	r0, r0, r4, ror r7
    1820:	40000780 	andmi	r0, r0, r0, lsl #15
    1824:	36007d02 	strcc	r7, [r0], -r2, lsl #26
    1828:	15000003 	strne	r0, [r0, #-3]
    182c:	0000030b 	andeq	r0, r0, fp, lsl #6
    1830:	00000ca6 	andeq	r0, r0, r6, lsr #25
    1834:	04d71600 	ldrbeq	r1, [r7], #1536	; 0x600
    1838:	0e010000 	cdpeq	0, 0, cr0, cr1, cr0, {0}
    183c:	51010101 	tstpl	r1, r1, lsl #2
    1840:	13000003 	movwne	r0, #3
    1844:	00000520 	andeq	r0, r0, r0, lsr #10
    1848:	6d010e01 	stcvs	14, cr0, [r1, #-4]
    184c:	00000000 	andeq	r0, r0, r0
    1850:	00033614 	andeq	r3, r3, r4, lsl r6
    1854:	00078000 	andeq	r8, r7, r0
    1858:	00079040 	andeq	r9, r7, r0, asr #32
    185c:	007d0240 	rsbseq	r0, sp, r0, asr #4
    1860:	0000036d 	andeq	r0, r0, sp, ror #6
    1864:	00034417 	andeq	r4, r3, r7, lsl r4
    1868:	00500100 	subseq	r0, r0, r0, lsl #2
    186c:	00018518 	andeq	r8, r1, r8, lsl r5
    1870:	00079000 	andeq	r9, r7, r0
    1874:	00084c40 	andeq	r4, r8, r0, asr #24
    1878:	000cb940 	andeq	fp, ip, r0, asr #18
    187c:	00045300 	andeq	r5, r4, r0, lsl #6
    1880:	01ac1500 			; <UNDEFINED> instruction: 0x01ac1500
    1884:	0cd90000 	ldcleq	0, cr0, [r9], {0}
    1888:	b7170000 	ldrlt	r0, [r7, -r0]
    188c:	01000001 	tsteq	r0, r1
    1890:	01c11951 	biceq	r1, r1, r1, asr r9
    1894:	0cf70000 	ldcleq	0, cr0, [r7]
    1898:	ca190000 	bgt	6418a0 <LOADER_PHYS_START-0x3f9be760>
    189c:	2d000001 	stccs	0, cr0, [r0, #-4]
    18a0:	1900000d 	stmdbne	r0, {r0, r2, r3}
    18a4:	000001d3 	ldrdeq	r0, [r0], -r3
    18a8:	00000d4d 	andeq	r0, r0, sp, asr #26
    18ac:	0001a117 	andeq	sl, r1, r7, lsl r1
    18b0:	80030600 	andhi	r0, r3, r0, lsl #12
    18b4:	9f400007 	svcls	0x00400007
    18b8:	00019617 	andeq	r9, r1, r7, lsl r6
    18bc:	74030600 	strvc	r0, [r3], #-1536	; 0x600
    18c0:	9f400007 	svcls	0x00400007
    18c4:	0002f91a 	andeq	pc, r2, sl, lsl r9	; <UNPREDICTABLE>
    18c8:	00079000 	andeq	r9, r7, r0
    18cc:	00025040 	andeq	r5, r2, r0, asr #32
    18d0:	e25c0100 	subs	r0, ip, #0
    18d4:	15000003 	strne	r0, [r0, #-3]
    18d8:	0000030b 	andeq	r0, r0, fp, lsl #6
    18dc:	00000d97 	muleq	r0, r7, sp
    18e0:	00a51a00 	adceq	r1, r5, r0, lsl #20
    18e4:	07a00000 	streq	r0, [r0, r0]!
    18e8:	02684000 	rsbeq	r4, r8, #0
    18ec:	5d010000 	stcpl	0, cr0, [r1, #-0]
    18f0:	000003ff 	strdeq	r0, [r0], -pc	; <UNPREDICTABLE>
    18f4:	0000b615 	andeq	fp, r0, r5, lsl r6
    18f8:	000db500 	andeq	fp, sp, r0, lsl #10
    18fc:	361b0000 	ldrcc	r0, [fp], -r0
    1900:	dc000003 	stcle	0, cr0, [r0], {3}
    1904:	e4400007 	strb	r0, [r0], #-7
    1908:	01400007 	cmpeq	r0, r7
    190c:	00041c69 	andeq	r1, r4, r9, ror #24
    1910:	03441500 	movteq	r1, #17664	; 0x4500
    1914:	0dd30000 	ldcleq	0, cr0, [r3]
    1918:	1b000000 	blne	1920 <LOADER_PHYS_START-0x3fffe6e0>
    191c:	000002f9 	strdeq	r0, [r0], -r9
    1920:	400007e4 	andmi	r0, r0, r4, ror #15
    1924:	400007e8 	andmi	r0, r0, r8, ror #15
    1928:	04396b01 	ldrteq	r6, [r9], #-2817	; 0xb01
    192c:	0b150000 	bleq	541934 <LOADER_PHYS_START-0x3fabe6cc>
    1930:	f1000003 	cps	#3
    1934:	0000000d 	andeq	r0, r0, sp
    1938:	0000a51c 	andeq	sl, r0, ip, lsl r5
    193c:	0007e800 	andeq	lr, r7, r0, lsl #16
    1940:	00028040 	andeq	r8, r2, r0, asr #32
    1944:	156c0100 	strbne	r0, [ip, #-256]!	; 0x100
    1948:	000000b6 	strheq	r0, [r0], -r6
    194c:	00000e0f 	andeq	r0, r0, pc, lsl #28
    1950:	eb180000 	bl	601958 <LOADER_PHYS_START-0x3f9fe6a8>
    1954:	4c000001 	stcmi	0, cr0, [r0], {1}
    1958:	e0400008 	sub	r0, r0, r8
    195c:	2d400008 	stclcs	0, cr0, [r0, #-32]	; 0xffffffe0
    1960:	2500000e 	strcs	r0, [r0, #-14]
    1964:	15000005 	strne	r0, [r0, #-5]
    1968:	00000212 	andeq	r0, r0, r2, lsl r2
    196c:	00000e4d 	andeq	r0, r0, sp, asr #28
    1970:	00021d17 	andeq	r1, r2, r7, lsl sp
    1974:	19510100 	ldmdbne	r1, {r8}^
    1978:	00000227 	andeq	r0, r0, r7, lsr #4
    197c:	00000e6b 	andeq	r0, r0, fp, ror #28
    1980:	00023019 	andeq	r3, r2, r9, lsl r0
    1984:	000ea100 	andeq	sl, lr, r0, lsl #2
    1988:	02391900 	eorseq	r1, r9, #0
    198c:	0ed70000 	cdpeq	0, 13, cr0, cr7, cr0, {0}
    1990:	44190000 	ldrmi	r0, [r9], #-0
    1994:	0d000002 	stceq	0, cr0, [r0, #-8]
    1998:	1700000f 	strne	r0, [r0, -pc]
    199c:	00000207 	andeq	r0, r0, r7, lsl #4
    19a0:	07800306 	streq	r0, [r0, r6, lsl #6]
    19a4:	179f4000 	ldrne	r4, [pc, r0]
    19a8:	000001fc 	strdeq	r0, [r0], -ip
    19ac:	07740306 	ldrbeq	r0, [r4, -r6, lsl #6]!
    19b0:	1a9f4000 	bne	fe7d19b8 <restore_guest_end+0x8e0d19b8>
    19b4:	000002f9 	strdeq	r0, [r0], -r9
    19b8:	4000084c 	andmi	r0, r0, ip, asr #16
    19bc:	00000298 	muleq	r0, r8, r2
    19c0:	04d12301 	ldrbeq	r2, [r1], #769	; 0x301
    19c4:	0b150000 	bleq	5419cc <LOADER_PHYS_START-0x3fabe634>
    19c8:	36000003 	strcc	r0, [r0], -r3
    19cc:	0000000f 	andeq	r0, r0, pc
    19d0:	0003361a 	andeq	r3, r3, sl, lsl r6
    19d4:	00087c00 	andeq	r7, r8, r0, lsl #24
    19d8:	0002b040 	andeq	fp, r2, r0, asr #32
    19dc:	ee310100 	rsfs	f0, f1, f0
    19e0:	15000004 	strne	r0, [r0, #-4]
    19e4:	00000344 	andeq	r0, r0, r4, asr #6
    19e8:	00000f54 	andeq	r0, r0, r4, asr pc
    19ec:	02f91b00 	rscseq	r1, r9, #0
    19f0:	08940000 	ldmeq	r4, {}	; <UNPREDICTABLE>
    19f4:	08984000 	ldmeq	r8, {lr}
    19f8:	33014000 	movwcc	r4, #4096	; 0x1000
    19fc:	0000050b 	andeq	r0, r0, fp, lsl #10
    1a00:	00030b15 	andeq	r0, r3, r5, lsl fp
    1a04:	000f5400 	andeq	r5, pc, r0, lsl #8
    1a08:	361d0000 	ldrcc	r0, [sp], -r0
    1a0c:	c0000003 	andgt	r0, r0, r3
    1a10:	d8400008 	stmdale	r0, {r3}^
    1a14:	01400008 	cmpeq	r0, r8
    1a18:	03441525 	movteq	r1, #17701	; 0x4525
    1a1c:	0f670000 	svceq	0x00670000
    1a20:	00000000 	andeq	r0, r0, r0
    1a24:	053b011e 	ldreq	r0, [fp, #-286]!	; 0x11e
    1a28:	13010000 	movwne	r0, #4096	; 0x1000
    1a2c:	00330101 	eorseq	r0, r3, r1, lsl #2
    1a30:	08e00000 	stmiaeq	r0!, {}^	; <UNPREDICTABLE>
    1a34:	0c604000 	stcleq	0, cr4, [r0], #-0
    1a38:	0f7a4000 	svceq	0x007a4000
    1a3c:	731f0000 	tstvc	pc, #0
    1a40:	01130100 	tsteq	r3, r0, lsl #2
    1a44:	0000003a 	andeq	r0, r0, sl, lsr r0
    1a48:	00000fb2 			; <UNDEFINED> instruction: 0x00000fb2
    1a4c:	746d6620 	strbtvc	r6, [sp], #-1568	; 0x620
    1a50:	01130100 	tsteq	r3, r0, lsl #2
    1a54:	0000003a 	andeq	r0, r0, sl, lsr r0
    1a58:	21749102 	cmncs	r4, r2, lsl #2
    1a5c:	01007222 	tsteq	r0, r2, lsr #4
    1a60:	00330115 	eorseq	r0, r3, r5, lsl r1
    1a64:	5a010000 	bpl	41a6c <LOADER_PHYS_START-0x3ffbe594>
    1a68:	00706122 	rsbseq	r6, r0, r2, lsr #2
    1a6c:	53011601 	movwpl	r1, #5633	; 0x1601
    1a70:	02000000 	andeq	r0, r0, #0
    1a74:	70224891 	mlavc	r2, r1, r8, r4
    1a78:	01170100 	tsteq	r7, r0, lsl #2
    1a7c:	0000003a 	andeq	r0, r0, sl, lsr r0
    1a80:	7fac9103 	svcvc	0x00ac9103
    1a84:	00025c23 	andeq	r5, r2, r3, lsr #24
    1a88:	00090c00 	andeq	r0, r9, r0, lsl #24
    1a8c:	0002d040 	andeq	sp, r2, r0, asr #32
    1a90:	011b0100 	tsteq	fp, r0, lsl #2
    1a94:	00029915 	andeq	r9, r2, r5, lsl r9
    1a98:	000fc500 	andeq	ip, pc, r0, lsl #10
    1a9c:	028e1500 	addeq	r1, lr, #0
    1aa0:	108f0000 	addne	r0, pc, r0
    1aa4:	83170000 	tsthi	r7, #0
    1aa8:	04000002 	streq	r0, [r0], #-2
    1aac:	9f7fac91 	svcls	0x007fac91
    1ab0:	0002f024 	andeq	pc, r2, r4, lsr #32
    1ab4:	02a31900 	adceq	r1, r3, #0
    1ab8:	11260000 	teqne	r6, r0
    1abc:	ad250000 	stcge	0, cr0, [r5, #-0]
    1ac0:	01000002 	tsteq	r0, r2
    1ac4:	02b6195a 	adcseq	r1, r6, #1474560	; 0x168000
    1ac8:	117b0000 	cmnne	fp, r0
    1acc:	c1190000 	tstgt	r9, r0
    1ad0:	da000002 	ble	1ae0 <LOADER_PHYS_START-0x3fffe520>
    1ad4:	25000011 	strcs	r0, [r0, #-17]
    1ad8:	000002ca 	andeq	r0, r0, sl, asr #5
    1adc:	7fb09103 	svcvc	0x00b09103
    1ae0:	0002d519 	andeq	sp, r2, r9, lsl r5
    1ae4:	00120e00 	andseq	r0, r2, r0, lsl #28
    1ae8:	02e02500 	rsceq	r2, r0, #0
    1aec:	91030000 	mrsls	r0, (UNDEF: 3)
    1af0:	78177fb4 	ldmdavc	r7, {r2, r4, r5, r7, r8, r9, sl, fp, ip, sp, lr}
    1af4:	06000002 	streq	r0, [r0], -r2
    1af8:	00078003 	andeq	r8, r7, r3
    1afc:	6d179f40 	ldcvs	15, cr9, [r7, #-256]	; 0xffffff00
    1b00:	06000002 	streq	r0, [r0], -r2
    1b04:	00077403 	andeq	r7, r7, r3, lsl #8
    1b08:	18249f40 	stmdane	r4!, {r6, r8, r9, sl, fp, ip, pc}
    1b0c:	19000003 	stmdbne	r0, {r0, r1}
    1b10:	000002ec 	andeq	r0, r0, ip, ror #5
    1b14:	0000122c 	andeq	r1, r0, ip, lsr #4
    1b18:	0000c01a 	andeq	ip, r0, sl, lsl r0
    1b1c:	00090c00 	andeq	r0, r9, r0, lsl #24
    1b20:	00035040 	andeq	r5, r3, r0, asr #32
    1b24:	7ffc0100 	svcvc	0x00fc0100
    1b28:	26000006 	strcs	r0, [r0], -r6
    1b2c:	000000e7 	andeq	r0, r0, r7, ror #1
    1b30:	0000dc26 	andeq	sp, r0, r6, lsr #24
    1b34:	00d12600 	sbcseq	r2, r1, r0, lsl #12
    1b38:	70240000 	eorvc	r0, r4, r0
    1b3c:	25000003 	strcs	r0, [r0, #-3]
    1b40:	000000f2 	strdeq	r0, [r0], -r2
    1b44:	8a1a5001 	bhi	695b50 <LOADER_PHYS_START-0x3f96a4b0>
    1b48:	0c000000 	stceq	0, cr0, [r0], {-0}
    1b4c:	90400009 	subls	r0, r0, r9
    1b50:	01000003 	tsteq	r0, r3
    1b54:	00066477 	andeq	r6, r6, r7, ror r4
    1b58:	009b1500 	addseq	r1, fp, r0, lsl #10
    1b5c:	12880000 	addne	r0, r8, #0
    1b60:	1d000000 	stcne	0, cr0, [r0, #-0]
    1b64:	00000336 	andeq	r0, r0, r6, lsr r3
    1b68:	40000960 	andmi	r0, r0, r0, ror #18
    1b6c:	4000096c 	andmi	r0, r0, ip, ror #18
    1b70:	44157901 	ldrmi	r7, [r5], #-2305	; 0x901
    1b74:	b1000003 	tstlt	r0, r3
    1b78:	00000012 	andeq	r0, r0, r2, lsl r0
    1b7c:	c01a0000 	andsgt	r0, sl, r0
    1b80:	e4000000 	str	r0, [r0], #-0
    1b84:	b0400009 	sublt	r0, r0, r9
    1b88:	01000003 	tsteq	r0, r3
    1b8c:	000702a1 	andeq	r0, r7, r1, lsr #5
    1b90:	00e72600 	rsceq	r2, r7, r0, lsl #12
    1b94:	dc260000 	stcle	0, cr0, [r6], #-0
    1b98:	26000000 	strcs	r0, [r0], -r0
    1b9c:	000000d1 	ldrdeq	r0, [r0], -r1
    1ba0:	0003c824 	andeq	ip, r3, r4, lsr #16
    1ba4:	00f22500 	rscseq	r2, r2, r0, lsl #10
    1ba8:	57010000 	strpl	r0, [r1, -r0]
    1bac:	0002f91b 	andeq	pc, r2, fp, lsl r9	; <UNPREDICTABLE>
    1bb0:	0009e400 	andeq	lr, r9, r0, lsl #8
    1bb4:	0009e840 	andeq	lr, r9, r0, asr #16
    1bb8:	ca770140 	bgt	1dc20c0 <LOADER_PHYS_START-0x3e23df40>
    1bbc:	15000006 	strne	r0, [r0, #-6]
    1bc0:	0000030b 	andeq	r0, r0, fp, lsl #6
    1bc4:	000012c7 	andeq	r1, r0, r7, asr #5
    1bc8:	008a1b00 	addeq	r1, sl, r0, lsl #22
    1bcc:	09e80000 	stmibeq	r8!, {}^	; <UNPREDICTABLE>
    1bd0:	0a004000 	beq	11bd8 <LOADER_PHYS_START-0x3ffee428>
    1bd4:	77014000 	strvc	r4, [r1, -r0]
    1bd8:	000006e7 	andeq	r0, r0, r7, ror #13
    1bdc:	00009b15 	andeq	r9, r0, r5, lsl fp
    1be0:	0012eb00 	andseq	lr, r2, r0, lsl #22
    1be4:	361d0000 	ldrcc	r0, [sp], -r0
    1be8:	38000003 	stmdacc	r0, {r0, r1}
    1bec:	4040000a 	submi	r0, r0, sl
    1bf0:	0140000a 	cmpeq	r0, sl
    1bf4:	03441579 	movteq	r1, #17785	; 0x4579
    1bf8:	13090000 	movwne	r0, #36864	; 0x9000
    1bfc:	00000000 	andeq	r0, r0, r0
    1c00:	03362700 	teqeq	r6, #0
    1c04:	0a700000 	beq	1c01c0c <LOADER_PHYS_START-0x3e3fe3f4>
    1c08:	03e04000 	mvneq	r4, #0
    1c0c:	01010000 	mrseq	r0, (UNDEF: 1)
    1c10:	00072001 	andeq	r2, r7, r1
    1c14:	03441500 	movteq	r1, #17664	; 0x4500
    1c18:	131f0000 	tstne	pc, #0
    1c1c:	1a000000 	bne	1c24 <LOADER_PHYS_START-0x3fffe3dc>
    1c20:	000000c0 	andeq	r0, r0, r0, asr #1
    1c24:	40000a8c 	andmi	r0, r0, ip, lsl #21
    1c28:	000003f8 	strdeq	r0, [r0], -r8
    1c2c:	07a3c401 	streq	ip, [r3, r1, lsl #8]!
    1c30:	e7260000 	str	r0, [r6, -r0]!
    1c34:	26000000 	strcs	r0, [r0], -r0
    1c38:	000000dc 	ldrdeq	r0, [r0], -ip
    1c3c:	0000d126 	andeq	sp, r0, r6, lsr #2
    1c40:	04202400 	strteq	r2, [r0], #-1024	; 0x400
    1c44:	f2250000 	vhadd.s32	d0, d5, d0
    1c48:	01000000 	mrseq	r0, (UNDEF: 0)
    1c4c:	02f91a57 	rscseq	r1, r9, #356352	; 0x57000
    1c50:	0a8c0000 	beq	fe301c58 <restore_guest_end+0x8dc01c58>
    1c54:	04484000 	strbeq	r4, [r8], #-0
    1c58:	77010000 	strvc	r0, [r1, -r0]
    1c5c:	0000076b 	andeq	r0, r0, fp, ror #14
    1c60:	00030b15 	andeq	r0, r3, r5, lsl fp
    1c64:	00133500 	andseq	r3, r3, r0, lsl #10
    1c68:	8a1b0000 	bhi	6c1c70 <LOADER_PHYS_START-0x3f93e390>
    1c6c:	9c000000 	stcls	0, cr0, [r0], {-0}
    1c70:	b440000a 	strblt	r0, [r0], #-10
    1c74:	0140000a 	cmpeq	r0, sl
    1c78:	00078877 	andeq	r8, r7, r7, ror r8
    1c7c:	009b1500 	addseq	r1, fp, r0, lsl #10
    1c80:	13590000 	cmpne	r9, #0
    1c84:	1d000000 	stcne	0, cr0, [r0, #-0]
    1c88:	00000336 	andeq	r0, r0, r6, lsr r3
    1c8c:	40000ad8 	ldrdmi	r0, [r0], -r8
    1c90:	40000ae0 	andmi	r0, r0, r0, ror #21
    1c94:	44157901 	ldrmi	r7, [r5], #-2305	; 0x901
    1c98:	82000003 	andhi	r0, r0, #3
    1c9c:	00000013 	andeq	r0, r0, r3, lsl r0
    1ca0:	c01a0000 	andsgt	r0, sl, r0
    1ca4:	f0000000 			; <UNDEFINED> instruction: 0xf0000000
    1ca8:	6040000a 	subvs	r0, r0, sl
    1cac:	01000004 	tsteq	r0, r4
    1cb0:	000826ea 	andeq	r2, r8, sl, ror #13
    1cb4:	00e72600 	rsceq	r2, r7, r0, lsl #12
    1cb8:	dc260000 	stcle	0, cr0, [r6], #-0
    1cbc:	26000000 	strcs	r0, [r0], -r0
    1cc0:	000000d1 	ldrdeq	r0, [r0], -r1
    1cc4:	00047824 	andeq	r7, r4, r4, lsr #16
    1cc8:	00f22500 	rscseq	r2, r2, r0, lsl #10
    1ccc:	51010000 	mrspl	r0, (UNDEF: 1)
    1cd0:	0002f91b 	andeq	pc, r2, fp, lsl r9	; <UNPREDICTABLE>
    1cd4:	000af000 	andeq	pc, sl, r0
    1cd8:	000af440 	andeq	pc, sl, r0, asr #8
    1cdc:	ee770140 	rpwsm	f0, f7, f0
    1ce0:	15000007 	strne	r0, [r0, #-7]
    1ce4:	0000030b 	andeq	r0, r0, fp, lsl #6
    1ce8:	00001398 	muleq	r0, r8, r3
    1cec:	008a1b00 	addeq	r1, sl, r0, lsl #22
    1cf0:	0af40000 	beq	ffd01cf8 <restore_guest_end+0x8f601cf8>
    1cf4:	0b0c4000 	bleq	311cfc <LOADER_PHYS_START-0x3fcee304>
    1cf8:	77014000 	strvc	r4, [r1, -r0]
    1cfc:	0000080b 	andeq	r0, r0, fp, lsl #16
    1d00:	00009b15 	andeq	r9, r0, r5, lsl fp
    1d04:	0013bc00 	andseq	fp, r3, r0, lsl #24
    1d08:	361d0000 	ldrcc	r0, [sp], -r0
    1d0c:	24000003 	strcs	r0, [r0], #-3
    1d10:	2c40000b 	mcrrcs	0, 0, r0, r0, cr11
    1d14:	0140000b 	cmpeq	r0, fp
    1d18:	03441579 	movteq	r1, #17785	; 0x4579
    1d1c:	13cf0000 	bicne	r0, pc, #0
    1d20:	00000000 	andeq	r0, r0, r0
    1d24:	01241b00 	teqeq	r4, r0, lsl #22
    1d28:	0b380000 	bleq	e01d30 <LOADER_PHYS_START-0x3f1fe2d0>
    1d2c:	0b7c4000 	bleq	1f11d34 <LOADER_PHYS_START-0x3e0ee2cc>
    1d30:	eb014000 	bl	51d38 <LOADER_PHYS_START-0x3ffae2c8>
    1d34:	000008c2 	andeq	r0, r0, r2, asr #17
    1d38:	00015626 	andeq	r5, r1, r6, lsr #12
    1d3c:	01602600 	cmneq	r0, r0, lsl #12
    1d40:	4b260000 	blmi	981d48 <LOADER_PHYS_START-0x3f67e2b8>
    1d44:	26000001 	strcs	r0, [r0], -r1
    1d48:	00000140 	andeq	r0, r0, r0, asr #2
    1d4c:	00013526 	andeq	r3, r1, r6, lsr #10
    1d50:	0b382800 	bleq	e0bd58 <LOADER_PHYS_START-0x3f1f42a8>
    1d54:	0b7c4000 	bleq	1f11d5c <LOADER_PHYS_START-0x3e0ee2a4>
    1d58:	6b194000 	blvs	651d60 <LOADER_PHYS_START-0x3f9ae2a0>
    1d5c:	e5000001 	str	r0, [r0, #-1]
    1d60:	19000013 	stmdbne	r0, {r0, r1, r4}
    1d64:	00000174 	andeq	r0, r0, r4, ror r1
    1d68:	0000141a 	andeq	r1, r0, sl, lsl r4
    1d6c:	00008a1a 	andeq	r8, r0, sl, lsl sl
    1d70:	000b3800 	andeq	r3, fp, r0, lsl #16
    1d74:	00049040 	andeq	r9, r4, r0, asr #32
    1d78:	8a440100 	bhi	1102180 <LOADER_PHYS_START-0x3eefde80>
    1d7c:	15000008 	strne	r0, [r0, #-8]
    1d80:	0000009b 	muleq	r0, fp, r0
    1d84:	00001438 	andeq	r1, r0, r8, lsr r4
    1d88:	03361a00 	teqeq	r6, #0
    1d8c:	0b540000 	bleq	1501d94 <LOADER_PHYS_START-0x3eafe26c>
    1d90:	04a84000 	strteq	r4, [r8], #0
    1d94:	4a010000 	bmi	41d9c <LOADER_PHYS_START-0x3ffbe264>
    1d98:	000008a7 	andeq	r0, r0, r7, lsr #17
    1d9c:	00034415 	andeq	r4, r3, r5, lsl r4
    1da0:	00146100 	andseq	r6, r4, r0, lsl #2
    1da4:	f91d0000 			; <UNDEFINED> instruction: 0xf91d0000
    1da8:	64000002 	strvs	r0, [r0], #-2
    1dac:	6840000b 	stmdavs	r0, {r0, r1, r3}^
    1db0:	0140000b 	cmpeq	r0, fp
    1db4:	030b1544 	movweq	r1, #46404	; 0xb544
    1db8:	14930000 	ldrne	r0, [r3], #0
    1dbc:	00000000 	andeq	r0, r0, r0
    1dc0:	00c01c00 	sbceq	r1, r0, r0, lsl #24
    1dc4:	0b980000 	bleq	fe601dcc <restore_guest_end+0x8df01dcc>
    1dc8:	04c04000 	strbeq	r4, [r0], #0
    1dcc:	af010000 	svcge	0x00010000
    1dd0:	0000e726 	andeq	lr, r0, r6, lsr #14
    1dd4:	00dc2600 	sbcseq	r2, ip, r0, lsl #12
    1dd8:	d1260000 	teqle	r6, r0
    1ddc:	24000000 	strcs	r0, [r0], #-0
    1de0:	000004d8 	ldrdeq	r0, [r0], -r8
    1de4:	0000f225 	andeq	pc, r0, r5, lsr #4
    1de8:	1b570100 	blne	15c21f0 <LOADER_PHYS_START-0x3ea3de10>
    1dec:	000002f9 	strdeq	r0, [r0], -r9
    1df0:	40000b98 	mulmi	r0, r8, fp
    1df4:	40000b9c 	mulmi	r0, ip, fp
    1df8:	09097701 	stmdbeq	r9, {r0, r8, r9, sl, ip, sp, lr}
    1dfc:	0b150000 	bleq	541e04 <LOADER_PHYS_START-0x3fabe1fc>
    1e00:	b7000003 	strlt	r0, [r0, -r3]
    1e04:	00000014 	andeq	r0, r0, r4, lsl r0
    1e08:	00008a1b 	andeq	r8, r0, fp, lsl sl
    1e0c:	000b9c00 	andeq	r9, fp, r0, lsl #24
    1e10:	000bb440 	andeq	fp, fp, r0, asr #8
    1e14:	26770140 	ldrbtcs	r0, [r7], -r0, asr #2
    1e18:	15000009 	strne	r0, [r0, #-9]
    1e1c:	0000009b 	muleq	r0, fp, r0
    1e20:	000014cd 	andeq	r1, r0, sp, asr #9
    1e24:	03361d00 	teqeq	r6, #0
    1e28:	0bec0000 	bleq	ffb01e30 <restore_guest_end+0x8f401e30>
    1e2c:	0bf44000 	bleq	ffd11e34 <restore_guest_end+0x8f611e34>
    1e30:	79014000 	stmdbvc	r1, {lr}
    1e34:	00034415 	andeq	r4, r3, r5, lsl r4
    1e38:	0014eb00 	andseq	lr, r4, r0, lsl #22
	...
    1e44:	0002a100 	andeq	sl, r2, r0, lsl #2
    1e48:	dd000200 	sfmle	f0, 4, [r0, #-0]
    1e4c:	04000009 	streq	r0, [r0], #-9
    1e50:	00004c01 	andeq	r4, r0, r1, lsl #24
    1e54:	05670100 	strbeq	r0, [r7, #-256]!	; 0x100
    1e58:	00580000 	subseq	r0, r8, r0
    1e5c:	0c600000 	stcleq	0, cr0, [r0], #-0
    1e60:	0e784000 	cdpeq	0, 7, cr4, cr8, cr0, {0}
    1e64:	074a4000 	strbeq	r4, [sl, -r0]
    1e68:	ee020000 	cdp	0, 0, cr0, cr2, cr0, {0}
    1e6c:	02000005 	andeq	r0, r0, #5
    1e70:	00003008 	andeq	r3, r0, r8
    1e74:	36040300 	strcc	r0, [r4], -r0, lsl #6
    1e78:	04000000 	streq	r0, [r0], #-0
    1e7c:	00004201 	andeq	r4, r0, r1, lsl #4
    1e80:	00420500 	subeq	r0, r2, r0, lsl #10
    1e84:	03000000 	movweq	r0, #0
    1e88:	00004804 	andeq	r4, r0, r4, lsl #16
    1e8c:	004d0600 	subeq	r0, sp, r0, lsl #12
    1e90:	01070000 	mrseq	r0, (UNDEF: 7)
    1e94:	00003108 	andeq	r3, r0, r8, lsl #2
    1e98:	059e0200 	ldreq	r0, [lr, #512]	; 0x200
    1e9c:	09020000 	stmdbeq	r2, {}	; <UNPREDICTABLE>
    1ea0:	0000005f 	andeq	r0, r0, pc, asr r0
    1ea4:	00650403 	rsbeq	r0, r5, r3, lsl #8
    1ea8:	01040000 	mrseq	r0, (UNDEF: 4)
    1eac:	00000071 	andeq	r0, r0, r1, ror r0
    1eb0:	00004805 	andeq	r4, r0, r5, lsl #16
    1eb4:	04080000 	streq	r0, [r8], #-0
    1eb8:	746e6905 	strbtvc	r6, [lr], #-2309	; 0x905
    1ebc:	020a0200 	andeq	r0, sl, #0
    1ec0:	05030000 	streq	r0, [r3, #-0]
    1ec4:	00000083 	andeq	r0, r0, r3, lsl #1
    1ec8:	1b070407 	blne	1c2eec <LOADER_PHYS_START-0x3fe3d114>
    1ecc:	07000000 	streq	r0, [r0, -r0]
    1ed0:	00c70702 	sbceq	r0, r7, r2, lsl #14
    1ed4:	08070000 	stmdaeq	r7, {}	; <UNPREDICTABLE>
    1ed8:	00001107 	andeq	r1, r0, r7, lsl #2
    1edc:	08010700 	stmdaeq	r1, {r8, r9, sl}
    1ee0:	00000028 	andeq	r0, r0, r8, lsr #32
    1ee4:	0005bc09 	andeq	fp, r5, r9, lsl #24
    1ee8:	09010400 	stmdbeq	r1, {sl}
    1eec:	000000b8 	strheq	r0, [r0], -r8
    1ef0:	00054b0a 	andeq	r4, r5, sl, lsl #22
    1ef4:	470a0a00 	strmi	r0, [sl, -r0, lsl #20]
    1ef8:	10000005 	andne	r0, r0, r5
    1efc:	05590b00 	ldrbeq	r0, [r9, #-2816]	; 0xb00
    1f00:	15010000 	strne	r0, [r1, #-0]
    1f04:	01160101 	tsteq	r6, r1, lsl #2
    1f08:	760c0000 	strvc	r0, [ip], -r0
    1f0c:	78150100 	ldmdavc	r5, {r8}
    1f10:	0d000000 	stceq	0, cr0, [r0, #-0]
    1f14:	000005bc 			; <UNDEFINED> instruction: 0x000005bc
    1f18:	009f1501 	addseq	r1, pc, r1, lsl #10
    1f1c:	110d0000 	mrsne	r0, (UNDEF: 13)
    1f20:	01000008 	tsteq	r0, r8
    1f24:	00004d15 	andeq	r4, r0, r5, lsl sp
    1f28:	05870e00 	streq	r0, [r7, #3584]	; 0xe00
    1f2c:	17010000 	strne	r0, [r1, -r0]
    1f30:	00000116 	andeq	r0, r0, r6, lsl r1
    1f34:	0100730f 	tsteq	r0, pc, lsl #6
    1f38:	00012618 	andeq	r2, r1, r8, lsl r6
    1f3c:	02a60e00 	adceq	r0, r6, #0
    1f40:	19010000 	stmdbne	r1, {}	; <UNPREDICTABLE>
    1f44:	00000083 	andeq	r0, r0, r3, lsl #1
    1f48:	0100630f 	tsteq	r0, pc, lsl #6
    1f4c:	0000831a 	andeq	r8, r0, sl, lsl r3
    1f50:	00690f00 	rsbeq	r0, r9, r0, lsl #30
    1f54:	00711b01 	rsbseq	r1, r1, r1, lsl #22
    1f58:	10000000 	andne	r0, r0, r0
    1f5c:	0000004d 	andeq	r0, r0, sp, asr #32
    1f60:	00000126 	andeq	r0, r0, r6, lsr #2
    1f64:	00008311 	andeq	r8, r0, r1, lsl r3
    1f68:	03000b00 	movweq	r0, #2816	; 0xb00
    1f6c:	00004d04 	andeq	r4, r0, r4, lsl #26
    1f70:	00b81200 	adcseq	r1, r8, r0, lsl #4
    1f74:	0c600000 	stcleq	0, cr0, [r0], #-0
    1f78:	0d304000 	ldceq	0, cr4, [r0, #-0]
    1f7c:	15014000 	strne	r4, [r1, #-0]
    1f80:	01c40000 	biceq	r0, r4, r0
    1f84:	c5130000 	ldrgt	r0, [r3, #-0]
    1f88:	2d000000 	stccs	0, cr0, [r0, #-0]
    1f8c:	13000015 	movwne	r0, #21
    1f90:	000000ce 	andeq	r0, r0, lr, asr #1
    1f94:	00001561 	andeq	r1, r0, r1, ror #10
    1f98:	0000d913 	andeq	sp, r0, r3, lsl r9
    1f9c:	00159500 	andseq	r9, r5, r0, lsl #10
    1fa0:	00e41400 	rsceq	r1, r4, r0, lsl #8
    1fa4:	ef140000 	svc	0x00140000
    1fa8:	15000000 	strne	r0, [r0, #-0]
    1fac:	000000f8 	strdeq	r0, [r0], -r8
    1fb0:	0103160f 	tsteq	r3, pc, lsl #12
    1fb4:	15c90000 	strbne	r0, [r9]
    1fb8:	0c140000 	ldceq	0, cr0, [r4], {-0}
    1fbc:	17000001 	strne	r0, [r0, -r1]
    1fc0:	000000b8 	strheq	r0, [r0], -r8
    1fc4:	40000c84 	andmi	r0, r0, r4, lsl #25
    1fc8:	000004f0 	strdeq	r0, [r0], -r0	; <UNPREDICTABLE>
    1fcc:	c5131501 	ldrgt	r1, [r3, #-1281]	; 0x501
    1fd0:	e7000000 	str	r0, [r0, -r0]
    1fd4:	18000015 	stmdane	r0, {r0, r2, r4}
    1fd8:	00000508 	andeq	r0, r0, r8, lsl #10
    1fdc:	0000e419 	andeq	lr, r0, r9, lsl r4
    1fe0:	5c910200 	lfmpl	f0, 4, [r1], {0}
    1fe4:	0000ef16 	andeq	lr, r0, r6, lsl pc
    1fe8:	00162600 	andseq	r2, r6, r0, lsl #12
    1fec:	00f81400 	rscseq	r1, r8, r0, lsl #8
    1ff0:	03140000 	tsteq	r4, #0
    1ff4:	14000001 	strne	r0, [r0], #-1
    1ff8:	0000010c 	andeq	r0, r0, ip, lsl #2
    1ffc:	0000d91a 	andeq	sp, r0, sl, lsl r9
    2000:	00ce1a00 	sbceq	r1, lr, r0, lsl #20
    2004:	00000000 	andeq	r0, r0, r0
    2008:	91011b00 	tstls	r1, r0, lsl #22
    200c:	01000005 	tsteq	r0, r5
    2010:	00710137 	rsbseq	r0, r1, r7, lsr r1
    2014:	0d300000 	ldceq	0, cr0, [r0, #-0]
    2018:	0e584000 	cdpeq	0, 5, cr4, cr8, cr0, {0}
    201c:	166b4000 	strbtne	r4, [fp], -r0
    2020:	02170000 	andseq	r0, r7, #0
    2024:	861c0000 	ldrhi	r0, [ip], -r0
    2028:	01000004 	tsteq	r0, r4
    202c:	00004237 	andeq	r4, r0, r7, lsr r2
    2030:	00168b00 	andseq	r8, r6, r0, lsl #22
    2034:	70611d00 	rsbvc	r1, r1, r0, lsl #26
    2038:	17370100 	ldrne	r0, [r7, -r0, lsl #2]!
    203c:	a9000002 	stmdbge	r0, {r1}
    2040:	1e000016 	mcrne	0, 0, r0, cr0, cr6, {0}
    2044:	39010070 	stmdbcc	r1, {r4, r5, r6}
    2048:	00000042 	andeq	r0, r0, r2, asr #32
    204c:	00001765 	andeq	r1, r0, r5, ror #14
    2050:	0005530e 	andeq	r5, r5, lr, lsl #6
    2054:	333a0100 	teqcc	sl, #0
    2058:	00000002 	andeq	r0, r0, r2
    205c:	00047c1f 	andeq	r7, r4, pc, lsl ip
    2060:	00040400 	andeq	r0, r4, r0, lsl #8
    2064:	00000231 	andeq	r0, r0, r1, lsr r2
    2068:	00047720 	andeq	r7, r4, r0, lsr #14
    206c:	00023100 	andeq	r3, r2, r0, lsl #2
    2070:	00230200 	eoreq	r0, r3, r0, lsl #4
    2074:	04210001 	strteq	r0, [r1], #-1
    2078:	16070407 	strne	r0, [r7], -r7, lsl #8
    207c:	22000000 	andcs	r0, r0, #0
    2080:	0005c601 	andeq	ip, r5, r1, lsl #12
    2084:	015a0100 	cmpeq	sl, r0, lsl #2
    2088:	40000e58 	andmi	r0, r0, r8, asr lr
    208c:	40000e68 	andmi	r0, r0, r8, ror #28
    2090:	5e007d02 	cdppl	13, 0, cr7, cr0, cr2, {0}
    2094:	23000002 	movwcs	r0, #2
    2098:	5a010073 	bpl	4226c <LOADER_PHYS_START-0x3ffbdd94>
    209c:	00000025 	andeq	r0, r0, r5, lsr #32
    20a0:	22005001 	andcs	r5, r0, #1
    20a4:	0005ac01 	andeq	sl, r5, r1, lsl #24
    20a8:	015f0100 	cmpeq	pc, r0, lsl #2
    20ac:	40000e68 	andmi	r0, r0, r8, ror #28
    20b0:	40000e78 	andmi	r0, r0, r8, ror lr
    20b4:	82007d02 	andhi	r7, r0, #128	; 0x80
    20b8:	23000002 	movwcs	r0, #2
    20bc:	5f010063 	svcpl	0x00010063
    20c0:	00000054 	andeq	r0, r0, r4, asr r0
    20c4:	24005001 	strcs	r5, [r0], #-1
    20c8:	000005d6 	ldrdeq	r0, [r0], -r6
    20cc:	00250e01 	eoreq	r0, r5, r1, lsl #28
    20d0:	03050000 	movweq	r0, #20480	; 0x5000
    20d4:	400039f8 	strdmi	r3, [r0], -r8
    20d8:	0005e224 	andeq	lr, r5, r4, lsr #4
    20dc:	540f0100 	strpl	r0, [pc], #-256	; 20e4 <LOADER_PHYS_START-0x3fffdf1c>
    20e0:	05000000 	streq	r0, [r0, #-0]
    20e4:	0039fc03 	eorseq	pc, r9, r3, lsl #24
    20e8:	05fc0040 	ldrbeq	r0, [ip, #64]!	; 0x40
    20ec:	00020000 	andeq	r0, r2, r0
    20f0:	00000b98 	muleq	r0, r8, fp
    20f4:	004c0104 	subeq	r0, ip, r4, lsl #2
    20f8:	b0010000 	andlt	r0, r1, r0
    20fc:	58000006 	stmdapl	r0, {r1, r2}
    2100:	78000000 	stmdavc	r0, {}	; <UNPREDICTABLE>
    2104:	d040000e 	suble	r0, r0, lr
    2108:	42400013 	submi	r0, r0, #19
    210c:	02000008 	andeq	r0, r0, #8
    2110:	00000602 	andeq	r0, r0, r2, lsl #12
    2114:	0030d404 	eorseq	sp, r0, r4, lsl #8
    2118:	04030000 	streq	r0, [r3], #-0
    211c:	00001b07 	andeq	r1, r0, r7, lsl #22
    2120:	07020300 	streq	r0, [r2, -r0, lsl #6]
    2124:	000000c7 	andeq	r0, r0, r7, asr #1
    2128:	69050404 	stmdbvs	r5, {r2, sl}
    212c:	0500746e 	streq	r7, [r0, #-1134]	; 0x46e
    2130:	00004b04 	andeq	r4, r0, r4, lsl #22
    2134:	00500600 	subseq	r0, r0, r0, lsl #12
    2138:	01030000 	mrseq	r0, (UNDEF: 3)
    213c:	00003108 	andeq	r3, r0, r8, lsl #2
    2140:	08010300 	stmdaeq	r1, {r8, r9}
    2144:	00000028 	andeq	r0, r0, r8, lsr #32
    2148:	00065907 	andeq	r5, r6, r7, lsl #18
    214c:	01030100 	mrseq	r0, (UNDEF: 19)
    2150:	000000a3 	andeq	r0, r0, r3, lsr #1
    2154:	0000a301 	andeq	sl, r0, r1, lsl #6
    2158:	06180800 	ldreq	r0, [r8], -r0, lsl #16
    215c:	03010000 	movweq	r0, #4096	; 0x1000
    2160:	000000a3 	andeq	r0, r0, r3, lsr #1
    2164:	0005fc08 	andeq	pc, r5, r8, lsl #24
    2168:	a5030100 	strge	r0, [r3, #-256]	; 0x100
    216c:	09000000 	stmdbeq	r0, {}	; <UNPREDICTABLE>
    2170:	006e5f5f 	rsbeq	r5, lr, pc, asr pc
    2174:	00250301 	eoreq	r0, r5, r1, lsl #6
    2178:	640a0000 	strvs	r0, [sl], #-0
    217c:	ac050100 	stfges	f0, [r5], {-0}
    2180:	0a000000 	beq	2188 <LOADER_PHYS_START-0x3fffde78>
    2184:	05010073 	streq	r0, [r1, #-115]	; 0x73
    2188:	000000ac 	andeq	r0, r0, ip, lsr #1
    218c:	05040b00 	streq	r0, [r4, #-2816]	; 0xb00
    2190:	0000ab04 	andeq	sl, r0, r4, lsl #22
    2194:	04050c00 	streq	r0, [r5], #-3072	; 0xc00
    2198:	00000057 	andeq	r0, r0, r7, asr r0
    219c:	00068d07 	andeq	r8, r6, r7, lsl #26
    21a0:	010c0100 	mrseq	r0, (UNDEF: 28)
    21a4:	000000a3 	andeq	r0, r0, r3, lsr #1
    21a8:	0000f701 	andeq	pc, r0, r1, lsl #14
    21ac:	06180800 	ldreq	r0, [r8], -r0, lsl #16
    21b0:	0c010000 	stceq	0, cr0, [r1], {-0}
    21b4:	000000a3 	andeq	r0, r0, r3, lsr #1
    21b8:	0005fc08 	andeq	pc, r5, r8, lsl #24
    21bc:	a50c0100 	strge	r0, [ip, #-256]	; 0x100
    21c0:	09000000 	stmdbeq	r0, {}	; <UNPREDICTABLE>
    21c4:	006e5f5f 	rsbeq	r5, lr, pc, asr pc
    21c8:	00250c01 	eoreq	r0, r5, r1, lsl #24
    21cc:	640a0000 	strvs	r0, [sl], #-0
    21d0:	ac0e0100 	stfges	f0, [lr], {-0}
    21d4:	0a000000 	beq	21dc <LOADER_PHYS_START-0x3fffde24>
    21d8:	0e010073 	mcreq	0, 0, r0, cr1, cr3, {3}
    21dc:	000000ac 	andeq	r0, r0, ip, lsr #1
    21e0:	a1010d00 	tstge	r1, r0, lsl #26
    21e4:	02000006 	andeq	r0, r0, #6
    21e8:	00a30131 	adceq	r0, r3, r1, lsr r1
    21ec:	0e780000 	cdpeq	0, 7, cr0, cr8, cr0, {0}
    21f0:	0e9c4000 	cdpeq	0, 9, cr4, cr12, cr0, {0}
    21f4:	7d024000 	stcvc	0, cr4, [r2, #-0]
    21f8:	00018000 	andeq	r8, r1, r0
    21fc:	06180e00 	ldreq	r0, [r8], -r0, lsl #28
    2200:	16010000 	strne	r0, [r1], -r0
    2204:	000000a3 	andeq	r0, r0, r3, lsr #1
    2208:	fc0f5001 	stc2	0, cr5, [pc], {1}
    220c:	01000005 	tsteq	r0, r5
    2210:	0000a516 	andeq	sl, r0, r6, lsl r5
    2214:	0017aa00 	andseq	sl, r7, r0, lsl #20
    2218:	5f5f1000 	svcpl	0x005f1000
    221c:	1601006e 	strne	r0, [r1], -lr, rrx
    2220:	00000025 	andeq	r0, r0, r5, lsr #32
    2224:	5e115201 	cdppl	2, 1, cr5, cr1, cr1, {0}
    2228:	78000000 	stmdavc	r0, {}	; <UNPREDICTABLE>
    222c:	9840000e 	stmdals	r0, {r1, r2, r3}^
    2230:	0140000e 	cmpeq	r0, lr
    2234:	00851218 	addeq	r1, r5, r8, lsl r2
    2238:	17c80000 	strbne	r0, [r8, r0]
    223c:	7a130000 	bvc	4c2244 <LOADER_PHYS_START-0x3fb3ddbc>
    2240:	01000000 	mrseq	r0, (UNDEF: 0)
    2244:	006f1351 	rsbeq	r1, pc, r1, asr r3	; <UNPREDICTABLE>
    2248:	50010000 	andpl	r0, r1, r0
    224c:	000e7814 	andeq	r7, lr, r4, lsl r8
    2250:	000e9840 	andeq	r9, lr, r0, asr #16
    2254:	00901540 	addseq	r1, r0, r0, asr #10
    2258:	17dd0000 	ldrbne	r0, [sp, r0]
    225c:	99150000 	ldmdbls	r5, {}	; <UNPREDICTABLE>
    2260:	f0000000 			; <UNDEFINED> instruction: 0xf0000000
    2264:	00000017 	andeq	r0, r0, r7, lsl r0
    2268:	01160000 	tsteq	r6, r0
    226c:	00000610 	andeq	r0, r0, r0, lsl r6
    2270:	a3013802 	movwge	r3, #6146	; 0x1802
    2274:	9c000000 	stcls	0, cr0, [r0], {-0}
    2278:	0440000e 	strbeq	r0, [r0], #-14
    227c:	0340000f 	movteq	r0, #15
    2280:	51000018 	tstpl	r0, r8, lsl r0
    2284:	0e000002 	cdpeq	0, 0, cr0, cr0, cr2, {0}
    2288:	00000618 	andeq	r0, r0, r8, lsl r6
    228c:	00a31b01 	adceq	r1, r3, r1, lsl #22
    2290:	50010000 	andpl	r0, r1, r0
    2294:	0005fc0f 	andeq	pc, r5, pc, lsl #24
    2298:	a51b0100 	ldrge	r0, [fp, #-256]	; 0x100
    229c:	23000000 	movwcs	r0, #0
    22a0:	17000018 	smladne	r0, r8, r0, r0
    22a4:	006e5f5f 	rsbeq	r5, lr, pc, asr pc
    22a8:	00251b01 	eoreq	r1, r5, r1, lsl #22
    22ac:	18410000 	stmdane	r1, {}^	; <UNPREDICTABLE>
    22b0:	5e180000 	cdppl	0, 1, cr0, cr8, cr0, {0}
    22b4:	a8000000 	stmdage	r0, {}	; <UNPREDICTABLE>
    22b8:	c840000e 	stmdagt	r0, {r1, r2, r3}^
    22bc:	0140000e 	cmpeq	r0, lr
    22c0:	00020b20 	andeq	r0, r2, r0, lsr #22
    22c4:	00851200 	addeq	r1, r5, r0, lsl #4
    22c8:	18770000 	ldmdane	r7!, {}^	; <UNPREDICTABLE>
    22cc:	7a190000 	bvc	6422d4 <LOADER_PHYS_START-0x3f9bdd2c>
    22d0:	19000000 	stmdbne	r0, {}	; <UNPREDICTABLE>
    22d4:	0000006f 	andeq	r0, r0, pc, rrx
    22d8:	000ea814 	andeq	sl, lr, r4, lsl r8
    22dc:	000ec840 	andeq	ip, lr, r0, asr #16
    22e0:	00901540 	addseq	r1, r0, r0, asr #10
    22e4:	188c0000 	stmne	ip, {}	; <UNPREDICTABLE>
    22e8:	99150000 	ldmdbls	r5, {}	; <UNPREDICTABLE>
    22ec:	9f000000 	svcls	0x00000000
    22f0:	00000018 	andeq	r0, r0, r8, lsl r0
    22f4:	00b21100 	adcseq	r1, r2, r0, lsl #2
    22f8:	0ed00000 	cdpeq	0, 13, cr0, cr0, cr0, {0}
    22fc:	0f044000 	svceq	0x00044000
    2300:	1e014000 	cdpne	0, 0, cr4, cr1, cr0, {0}
    2304:	0000d912 	andeq	sp, r0, r2, lsl r9
    2308:	0018b200 	andseq	fp, r8, r0, lsl #4
    230c:	00ce1200 	sbceq	r1, lr, r0, lsl #4
    2310:	18c70000 	stmiane	r7, {}^	; <UNPREDICTABLE>
    2314:	c3130000 	tstgt	r3, #0
    2318:	01000000 	mrseq	r0, (UNDEF: 0)
    231c:	0ed01450 	mrceq	4, 6, r1, cr0, cr0, {2}
    2320:	0f044000 	svceq	0x00044000
    2324:	e4154000 	ldr	r4, [r5], #-0
    2328:	da000000 	ble	2330 <LOADER_PHYS_START-0x3fffdcd0>
    232c:	15000018 	strne	r0, [r0, #-24]
    2330:	000000ed 	andeq	r0, r0, sp, ror #1
    2334:	000018f4 	strdeq	r1, [r0], -r4
    2338:	0d000000 	stceq	0, cr0, [r0, #-0]
    233c:	00065201 	andeq	r5, r6, r1, lsl #4
    2340:	014d0200 	mrseq	r0, (UNDEF: 109)
    2344:	000000a3 	andeq	r0, r0, r3, lsr #1
    2348:	40000f04 	andmi	r0, r0, r4, lsl #30
    234c:	40000f24 	andmi	r0, r0, r4, lsr #30
    2350:	a5007d02 	strge	r7, [r0, #-3330]	; 0xd02
    2354:	17000002 	strne	r0, [r0, -r2]
    2358:	38010073 	stmdacc	r1, {r0, r1, r4, r5, r6}
    235c:	000000a3 	andeq	r0, r0, r3, lsr #1
    2360:	0000190e 	andeq	r1, r0, lr, lsl #18
    2364:	01006317 	tsteq	r0, r7, lsl r3
    2368:	00003e38 	andeq	r3, r0, r8, lsr lr
    236c:	00192c00 	andseq	r2, r9, r0, lsl #24
    2370:	03150f00 	tsteq	r5, #0
    2374:	38010000 	stmdacc	r1, {}	; <UNPREDICTABLE>
    2378:	00000025 	andeq	r0, r0, r5, lsr #32
    237c:	0000193f 	andeq	r1, r0, pc, lsr r9
    2380:	0073781a 	rsbseq	r7, r3, sl, lsl r8
    2384:	02a53a01 	adceq	r3, r5, #4096	; 0x1000
    2388:	195f0000 	ldmdbne	pc, {}^	; <UNPREDICTABLE>
    238c:	05000000 	streq	r0, [r0, #-0]
    2390:	00005004 	andeq	r5, r0, r4
    2394:	44010d00 	strmi	r0, [r1], #-3328	; 0xd00
    2398:	02000006 	andeq	r0, r0, #6
    239c:	02a50167 	adceq	r0, r5, #-1073741799	; 0xc0000019
    23a0:	0f240000 	svceq	0x00240000
    23a4:	0f644000 	svceq	0x00644000
    23a8:	7d024000 	stcvc	0, cr4, [r2, #-0]
    23ac:	0002f300 	andeq	pc, r2, r0, lsl #6
    23b0:	061a0f00 	ldreq	r0, [sl], -r0, lsl #30
    23b4:	81010000 	mrshi	r0, (UNDEF: 1)
    23b8:	000002a5 	andeq	r0, r0, r5, lsr #5
    23bc:	0000197d 	andeq	r1, r0, sp, ror r9
    23c0:	63727317 	cmnvs	r2, #1543503872	; 0x5c000000
    23c4:	45810100 	strmi	r0, [r1, #256]	; 0x100
    23c8:	9b000000 	blls	23d0 <LOADER_PHYS_START-0x3fffdc30>
    23cc:	1a000019 	bne	2438 <LOADER_PHYS_START-0x3fffdbc8>
    23d0:	83010069 	movwhi	r0, #4201	; 0x1069
    23d4:	00000030 	andeq	r0, r0, r0, lsr r0
    23d8:	000019b9 			; <UNDEFINED> instruction: 0x000019b9
    23dc:	4b010d00 	blmi	457e4 <LOADER_PHYS_START-0x3ffba81c>
    23e0:	02000006 	andeq	r0, r0, #6
    23e4:	02a5018e 	adceq	r0, r5, #-2147483613	; 0x80000023
    23e8:	0f640000 	svceq	0x00640000
    23ec:	0fc04000 	svceq	0x00c04000
    23f0:	7d024000 	stcvc	0, cr4, [r2, #-0]
    23f4:	00032e00 	andeq	r2, r3, r0, lsl #28
    23f8:	061a0f00 	ldreq	r0, [sl], -r0, lsl #30
    23fc:	b5010000 	strlt	r0, [r1, #-0]
    2400:	000002a5 	andeq	r0, r0, r5, lsr #5
    2404:	000019e4 	andeq	r1, r0, r4, ror #19
    2408:	63727317 	cmnvs	r2, #1543503872	; 0x5c000000
    240c:	45b50100 	ldrmi	r0, [r5, #256]!	; 0x100
    2410:	4f000000 	svcmi	0x00000000
    2414:	0000001a 	andeq	r0, r0, sl, lsl r0
    2418:	061f0116 			; <UNDEFINED> instruction: 0x061f0116
    241c:	5f030000 	svcpl	0x00030000
    2420:	0000a301 	andeq	sl, r0, r1, lsl #6
    2424:	000fc000 	andeq	ip, pc, r0
    2428:	00101c40 	andseq	r1, r0, r0, asr #24
    242c:	001a6240 	andseq	r6, sl, r0, asr #4
    2430:	00037f00 	andeq	r7, r3, r0, lsl #30
    2434:	00731700 	rsbseq	r1, r3, r0, lsl #14
    2438:	00a52301 	adceq	r2, r5, r1, lsl #6
    243c:	1a820000 	bne	fe082444 <restore_guest_end+0x8d982444>
    2440:	63100000 	tstvs	r0, #0
    2444:	3e230100 	sufccs	f0, f3, f0
    2448:	01000000 	mrseq	r0, (UNDEF: 0)
    244c:	006e1751 	rsbeq	r1, lr, r1, asr r7
    2450:	00252301 	eoreq	r2, r5, r1, lsl #6
    2454:	1aab0000 	bne	feac245c <restore_guest_end+0x8e3c245c>
    2458:	5f1a0000 	svcpl	0x001a0000
    245c:	25010073 	strcs	r0, [r1, #-115]	; 0x73
    2460:	0000037f 	andeq	r0, r0, pc, ror r3
    2464:	00001ac9 	andeq	r1, r0, r9, asr #21
    2468:	85040500 	strhi	r0, [r4, #-1280]	; 0x500
    246c:	06000003 	streq	r0, [r0], -r3
    2470:	00000057 	andeq	r0, r0, r7, asr r0
    2474:	062d011b 			; <UNDEFINED> instruction: 0x062d011b
    2478:	8f030000 	svchi	0x00030000
    247c:	00250101 	eoreq	r0, r5, r1, lsl #2
    2480:	101c0000 	andsne	r0, ip, r0
    2484:	10484000 	subne	r4, r8, r0
    2488:	7d024000 	stcvc	0, cr4, [r2, #-0]
    248c:	0003c300 	andeq	ip, r3, r0, lsl #6
    2490:	00731700 	rsbseq	r1, r3, r0, lsl #14
    2494:	00453001 	subeq	r3, r5, r1
    2498:	1af20000 	bne	ffc824a0 <restore_guest_end+0x8f5824a0>
    249c:	731a0000 	tstvc	sl, #0
    24a0:	32010063 	andcc	r0, r1, #99	; 0x63
    24a4:	00000045 	andeq	r0, r0, r5, asr #32
    24a8:	00001b10 	andeq	r1, r0, r0, lsl fp
    24ac:	09011600 	stmdbeq	r1, {r9, sl, ip}
    24b0:	03000006 	movweq	r0, #6
    24b4:	003e0144 	eorseq	r0, lr, r4, asr #2
    24b8:	10480000 	subne	r0, r8, r0
    24bc:	10c04000 	sbcne	r4, r0, r0
    24c0:	1b464000 	blne	11924c8 <LOADER_PHYS_START-0x3ee6db38>
    24c4:	04260000 	strteq	r0, [r6], #-0
    24c8:	70170000 	andsvc	r0, r7, r0
    24cc:	40010031 	andmi	r0, r1, r1, lsr r0
    24d0:	000000a5 	andeq	r0, r0, r5, lsr #1
    24d4:	00001b66 	andeq	r1, r0, r6, ror #22
    24d8:	00327010 	eorseq	r7, r2, r0, lsl r0
    24dc:	00a54001 	adceq	r4, r5, r1
    24e0:	51010000 	mrspl	r0, (UNDEF: 1)
    24e4:	01006e17 	tsteq	r0, r7, lsl lr
    24e8:	00002540 	andeq	r2, r0, r0, asr #10
    24ec:	001b9a00 	andseq	r9, fp, r0, lsl #20
    24f0:	705f1a00 	subsvc	r1, pc, r0, lsl #20
    24f4:	42010031 	andmi	r0, r1, #49	; 0x31
    24f8:	0000037f 	andeq	r0, r0, pc, ror r3
    24fc:	00001bd2 	ldrdeq	r1, [r0], -r2
    2500:	32705f1a 	rsbscc	r5, r0, #104	; 0x68
    2504:	7f430100 	svcvc	0x00430100
    2508:	f0000003 			; <UNDEFINED> instruction: 0xf0000003
    250c:	0000001b 	andeq	r0, r0, fp, lsl r0
    2510:	069a010d 	ldreq	r0, [sl], sp, lsl #2
    2514:	8f030000 	svchi	0x00030000
    2518:	00003e01 	andeq	r3, r0, r1, lsl #28
    251c:	0010c000 	andseq	ip, r0, r0
    2520:	00114440 	andseq	r4, r1, r0, asr #8
    2524:	007d0240 	rsbseq	r0, sp, r0, asr #4
    2528:	0000045d 	andeq	r0, r0, sp, asr r4
    252c:	00317317 	eorseq	r7, r1, r7, lsl r3
    2530:	00455001 	subeq	r5, r5, r1
    2534:	1c0e0000 	stcne	0, cr0, [lr], {-0}
    2538:	73100000 	tstvc	r0, #0
    253c:	50010032 	andpl	r0, r1, r2, lsr r0
    2540:	00000045 	andeq	r0, r0, r5, asr #32
    2544:	16005101 	strne	r5, [r0], -r1, lsl #2
    2548:	0006a801 	andeq	sl, r6, r1, lsl #16
    254c:	01920300 	orrseq	r0, r2, r0, lsl #6
    2550:	0000003e 	andeq	r0, r0, lr, lsr r0
    2554:	40001144 	andmi	r1, r0, r4, asr #2
    2558:	4000121c 	andmi	r1, r0, ip, lsl r2
    255c:	00001c21 	andeq	r1, r0, r1, lsr #24
    2560:	000004a4 	andeq	r0, r0, r4, lsr #9
    2564:	00317317 	eorseq	r7, r1, r7, lsl r3
    2568:	00456301 	subeq	r6, r5, r1, lsl #6
    256c:	1c410000 	marne	acc0, r0, r1
    2570:	73170000 	tstvc	r7, #0
    2574:	63010032 	movwvs	r0, #4146	; 0x1032
    2578:	00000045 	andeq	r0, r0, r5, asr #32
    257c:	00001c5f 	andeq	r1, r0, pc, asr ip
    2580:	01006e17 	tsteq	r0, r7, lsl lr
    2584:	00002563 	andeq	r2, r0, r3, ror #10
    2588:	001c7d00 	andseq	r7, ip, r0, lsl #26
    258c:	010d0000 	mrseq	r0, (UNDEF: 13)
    2590:	00000626 	andeq	r0, r0, r6, lsr #12
    2594:	a501eb03 	strge	lr, [r1, #-2819]	; 0xb03
    2598:	1c000002 	stcne	0, cr0, [r0], {2}
    259c:	60400012 	subvs	r0, r0, r2, lsl r0
    25a0:	02400012 	subeq	r0, r0, #18
    25a4:	04e7007d 	strbteq	r0, [r7], #125	; 0x7d
    25a8:	73170000 	tstvc	r7, #0
    25ac:	45750100 	ldrbmi	r0, [r5, #-256]!	; 0x100
    25b0:	bc000000 	stclt	0, cr0, [r0], {-0}
    25b4:	1000001c 	andne	r0, r0, ip, lsl r0
    25b8:	75010063 	strvc	r0, [r1, #-99]	; 0x63
    25bc:	0000003e 	andeq	r0, r0, lr, lsr r0
    25c0:	5f1a5101 	svcpl	0x001a5101
    25c4:	77010073 	smlsdxvc	r1, r3, r0, r0
    25c8:	0000037f 	andeq	r0, r0, pc, ror r3
    25cc:	00001cda 	ldrdeq	r1, [r0], -sl
    25d0:	34011600 	strcc	r1, [r1], #-1536	; 0x600
    25d4:	01000006 	tsteq	r0, r6
    25d8:	0030018b 	eorseq	r0, r0, fp, lsl #3
    25dc:	12600000 	rsbne	r0, r0, #0
    25e0:	13144000 	tstne	r4, #0
    25e4:	1d104000 	ldcne	0, cr4, [r0, #-0]
    25e8:	05320000 	ldreq	r0, [r2, #-0]!
    25ec:	73170000 	tstvc	r7, #0
    25f0:	01006372 	tsteq	r0, r2, ror r3
    25f4:	0002a58b 	andeq	sl, r2, fp, lsl #11
    25f8:	001d3000 	andseq	r3, sp, r0
    25fc:	61761a00 	cmnvs	r6, r0, lsl #20
    2600:	8d01006c 	stchi	0, cr0, [r1, #-432]	; 0xfffffe50
    2604:	00000030 	andeq	r0, r0, r0, lsr r0
    2608:	00001d59 	andeq	r1, r0, r9, asr sp
    260c:	736f701a 	cmnvc	pc, #26
    2610:	3e8e0100 	rmfcce	f0, f6, f0
    2614:	9a000000 	bls	261c <LOADER_PHYS_START-0x3fffd9e4>
    2618:	0000001d 	andeq	r0, r0, sp, lsl r0
    261c:	0668011c 			; <UNDEFINED> instruction: 0x0668011c
    2620:	a0010000 	andge	r0, r1, r0
    2624:	00131401 	andseq	r1, r3, r1, lsl #8
    2628:	00137c40 	andseq	r7, r3, r0, asr #24
    262c:	001ddc40 	andseq	sp, sp, r0, asr #24
    2630:	00059500 	andeq	r9, r5, r0, lsl #10
    2634:	73641000 	cmnvc	r4, #0
    2638:	a0010074 	andge	r0, r1, r4, ror r0
    263c:	000002a5 	andeq	r0, r0, r5, lsr #5
    2640:	73105001 	tstvc	r0, #1
    2644:	01006372 	tsteq	r0, r2, ror r3
    2648:	000030a0 	andeq	r3, r0, r0, lsr #1
    264c:	1a510100 	bne	1442a54 <LOADER_PHYS_START-0x3ebbd5ac>
    2650:	00657469 	rsbeq	r7, r5, r9, ror #8
    2654:	003ea201 	eorseq	sl, lr, r1, lsl #4
    2658:	1dfc0000 	ldclne	0, cr0, [ip]
    265c:	701a0000 	andsvc	r0, sl, r0
    2660:	0100736f 	tsteq	r0, pc, ror #6
    2664:	00003ea2 	andeq	r3, r0, r2, lsr #29
    2668:	001e1000 	andseq	r1, lr, r0
    266c:	06781d00 	ldrbteq	r1, [r8], -r0, lsl #26
    2670:	a3010000 	movwge	r0, #4096	; 0x1000
    2674:	000005a5 	andeq	r0, r0, r5, lsr #11
    2678:	32380305 	eorscc	r0, r8, #335544320	; 0x14000000
    267c:	1e004000 	cdpne	0, 0, cr4, cr0, cr0, {0}
    2680:	00000050 	andeq	r0, r0, r0, asr r0
    2684:	000005a5 	andeq	r0, r0, r5, lsr #11
    2688:	0000301f 	andeq	r3, r0, pc, lsl r0
    268c:	06001000 	streq	r1, [r0], -r0
    2690:	00000595 	muleq	r0, r5, r5
    2694:	06810120 	streq	r0, [r1], r0, lsr #2
    2698:	c3010000 	movwgt	r0, #4096	; 0x1000
    269c:	00003e01 	andeq	r3, r0, r1, lsl #28
    26a0:	00137c00 	andseq	r7, r3, r0, lsl #24
    26a4:	0013d040 	andseq	sp, r3, r0, asr #32
    26a8:	007d0240 	rsbseq	r0, sp, r0, asr #4
    26ac:	63727317 	cmnvs	r2, #1543503872	; 0x5c000000
    26b0:	a5c30100 	strbge	r0, [r3, #256]	; 0x100
    26b4:	2f000002 	svccs	0x00000002
    26b8:	1a00001e 	bne	2738 <LOADER_PHYS_START-0x3fffd8c8>
    26bc:	006c6176 	rsbeq	r6, ip, r6, ror r1
    26c0:	003ec501 	eorseq	ip, lr, r1, lsl #10
    26c4:	1e4d0000 	cdpne	0, 4, cr0, cr13, cr0, {0}
    26c8:	701a0000 	andsvc	r0, sl, r0
    26cc:	0100736f 	tsteq	r0, pc, ror #6
    26d0:	00003ec5 	andeq	r3, r0, r5, asr #29
    26d4:	001e7800 	andseq	r7, lr, r0, lsl #16
    26d8:	04dd2100 	ldrbeq	r2, [sp], #256	; 0x100
    26dc:	c5010000 	strgt	r0, [r1, #-0]
    26e0:	0000003e 	andeq	r0, r0, lr, lsr r0
    26e4:	00001e78 	andeq	r1, r0, r8, ror lr
    26e8:	00ff0000 	rscseq	r0, pc, r0
    26ec:	00020000 	andeq	r0, r2, r0
    26f0:	00000d64 	andeq	r0, r0, r4, ror #26
    26f4:	004c0104 	subeq	r0, ip, r4, lsl #2
    26f8:	e2010000 	and	r0, r1, #0
    26fc:	58000006 	stmdapl	r0, {r1, r2}
    2700:	d0000000 	andle	r0, r0, r0
    2704:	e4400013 	strb	r0, [r0], #-19
    2708:	c0400013 	subgt	r0, r0, r3, lsl r0
    270c:	0200000a 	andeq	r0, r0, #10
    2710:	00000711 	andeq	r0, r0, r1, lsl r7
    2714:	5b03013c 	blpl	c2c0c <LOADER_PHYS_START-0x3ff3d3f4>
    2718:	03000000 	movweq	r0, #0
    271c:	0000070c 	andeq	r0, r0, ip, lsl #14
    2720:	005b0401 	subseq	r0, fp, r1, lsl #8
    2724:	23020000 	movwcs	r0, #8192	; 0x2000
    2728:	63700400 	cmnvs	r0, #0
    272c:	5b050100 	blpl	142b34 <LOADER_PHYS_START-0x3febd4cc>
    2730:	02000000 	andeq	r0, r0, #0
    2734:	67040423 	strvs	r0, [r4, -r3, lsr #8]
    2738:	01007270 	tsteq	r0, r0, ror r2
    273c:	00006206 	andeq	r6, r0, r6, lsl #4
    2740:	08230200 	stmdaeq	r3!, {r9}
    2744:	07040500 	streq	r0, [r4, -r0, lsl #10]
    2748:	0000001b 	andeq	r0, r0, fp, lsl r0
    274c:	00005b06 	andeq	r5, r0, r6, lsl #22
    2750:	00007200 	andeq	r7, r0, r0, lsl #4
    2754:	005b0700 	subseq	r0, fp, r0, lsl #14
    2758:	000c0000 	andeq	r0, ip, r0
    275c:	06d00108 	ldrbeq	r0, [r0], r8, lsl #2
    2760:	0a010000 	beq	42768 <LOADER_PHYS_START-0x3ffbd898>
    2764:	0013d001 	andseq	sp, r3, r1
    2768:	0013d440 	andseq	sp, r3, r0, asr #8
    276c:	007d0240 	rsbseq	r0, sp, r0, asr #4
    2770:	00000098 	muleq	r0, r8, r0
    2774:	00071609 	andeq	r1, r7, r9, lsl #12
    2778:	980a0100 	stmdals	sl, {r8}
    277c:	01000000 	mrseq	r0, (UNDEF: 0)
    2780:	040a0050 	streq	r0, [sl], #-80	; 0x50
    2784:	00000025 	andeq	r0, r0, r5, lsr #32
    2788:	07350108 	ldreq	r0, [r5, -r8, lsl #2]!
    278c:	0e010000 	cdpeq	0, 0, cr0, cr1, cr0, {0}
    2790:	0013d401 	andseq	sp, r3, r1, lsl #8
    2794:	0013d840 	andseq	sp, r3, r0, asr #16
    2798:	007d0240 	rsbseq	r0, sp, r0, asr #4
    279c:	000000c4 	andeq	r0, r0, r4, asr #1
    27a0:	00071609 	andeq	r1, r7, r9, lsl #12
    27a4:	980e0100 	stmdals	lr, {r8}
    27a8:	01000000 	mrseq	r0, (UNDEF: 0)
    27ac:	01080050 	qaddeq	r0, r0, r8
    27b0:	0000071b 	andeq	r0, r0, fp, lsl r7
    27b4:	d8011201 	stmdale	r1, {r0, r9, ip}
    27b8:	e4400013 	strb	r0, [r0], #-19
    27bc:	02400013 	subeq	r0, r0, #19
    27c0:	00fb007d 	rscseq	r0, fp, sp, ror r0
    27c4:	160b0000 	strne	r0, [fp], -r0
    27c8:	01000007 	tsteq	r0, r7
    27cc:	00009812 	andeq	r9, r0, r2, lsl r8
    27d0:	001ea200 	andseq	sl, lr, r0, lsl #4
    27d4:	27010c00 	strcs	r0, [r1, -r0, lsl #24]
    27d8:	01000007 	tsteq	r0, r7
    27dc:	0000fb14 	andeq	pc, r0, r4, lsl fp	; <UNPREDICTABLE>
    27e0:	000d0100 	andeq	r0, sp, r0, lsl #2
    27e4:	05040e00 	streq	r0, [r4, #-3584]	; 0xe00
    27e8:	00746e69 	rsbseq	r6, r4, r9, ror #28
    27ec:	00045100 	andeq	r5, r4, r0, lsl #2
    27f0:	21000200 	mrscs	r0, R8_usr
    27f4:	0400000e 	streq	r0, [r0], #-14
    27f8:	00004c01 	andeq	r4, r0, r1, lsl #24
    27fc:	07e10100 	strbeq	r0, [r1, r0, lsl #2]!
    2800:	00580000 	subseq	r0, r8, r0
    2804:	13e40000 	mvnne	r0, #0
    2808:	17f84000 	ldrbne	r4, [r8, r0]!
    280c:	0b214000 	bleq	852814 <LOADER_PHYS_START-0x3f7ad7ec>
    2810:	04020000 	streq	r0, [r2], #-0
    2814:	746e6905 	strbtvc	r6, [lr], #-2309	; 0x905
    2818:	020a0300 	andeq	r0, sl, #0
    281c:	05030000 	streq	r0, [r3, #-0]
    2820:	00000037 	andeq	r0, r0, r7, lsr r0
    2824:	1b070404 	blne	1c383c <LOADER_PHYS_START-0x3fe3c7c4>
    2828:	04000000 	streq	r0, [r0], #-0
    282c:	00c70702 	sbceq	r0, r7, r2, lsl #14
    2830:	08040000 	stmdaeq	r4, {}	; <UNPREDICTABLE>
    2834:	00001107 	andeq	r1, r0, r7, lsl #2
    2838:	01b30300 			; <UNDEFINED> instruction: 0x01b30300
    283c:	08030000 	stmdaeq	r3, {}	; <UNPREDICTABLE>
    2840:	00000057 	andeq	r0, r0, r7, asr r0
    2844:	28080104 	stmdacs	r8, {r2, r8}
    2848:	05000000 	streq	r0, [r0, #-0]
    284c:	000008d5 	ldrdeq	r0, [r0], -r5
    2850:	95090404 	strls	r0, [r9, #-1028]	; 0x404
    2854:	06000000 	streq	r0, [r0], -r0
    2858:	00000799 	muleq	r0, r9, r7
    285c:	08960600 	ldmeq	r6, {r9, sl}
    2860:	067f0000 	ldrbteq	r0, [pc], -r0
    2864:	000008b0 			; <UNDEFINED> instruction: 0x000008b0
    2868:	0871067e 	ldmdaeq	r1!, {r1, r2, r3, r4, r5, r6, r9, sl}^
    286c:	067d0000 	ldrbteq	r0, [sp], -r0
    2870:	000007c5 	andeq	r0, r0, r5, asr #15
    2874:	0751067c 			; <UNDEFINED> instruction: 0x0751067c
    2878:	067b0000 	ldrbteq	r0, [fp], -r0
    287c:	0000085d 	andeq	r0, r0, sp, asr r8
    2880:	2803007a 	stmdacs	r3, {r1, r3, r4, r5, r6}
    2884:	04000008 	streq	r0, [r0], #-8
    2888:	00005e11 	andeq	r5, r0, r1, lsl lr
    288c:	08360300 	ldmdaeq	r6!, {r8, r9}
    2890:	0e050000 	cdpeq	0, 0, cr0, cr5, cr0, {0}
    2894:	000000ab 	andeq	r0, r0, fp, lsr #1
    2898:	00b10407 	adcseq	r0, r1, r7, lsl #8
    289c:	01080000 	mrseq	r0, (UNDEF: 8)
    28a0:	000000c7 	andeq	r0, r0, r7, asr #1
    28a4:	00002509 	andeq	r2, r0, r9, lsl #10
    28a8:	00c70900 	sbceq	r0, r7, r0, lsl #18
    28ac:	c7090000 	strgt	r0, [r9, -r0]
    28b0:	00000000 	andeq	r0, r0, r0
    28b4:	670b040a 	strvs	r0, [fp, -sl, lsl #8]
    28b8:	b0006369 	andlt	r6, r0, r9, ror #6
    28bc:	3a2d0101 	bcc	b42cc8 <LOADER_PHYS_START-0x3f4bd338>
    28c0:	0c000001 	stceq	0, cr0, [r0], {1}
    28c4:	0000081f 	andeq	r0, r0, pc, lsl r8
    28c8:	002c2e01 	eoreq	r2, ip, r1, lsl #28
    28cc:	23020000 	movwcs	r0, #8192	; 0x2000
    28d0:	07490c00 	strbeq	r0, [r9, -r0, lsl #24]
    28d4:	2f010000 	svccs	0x00010000
    28d8:	0000013a 	andeq	r0, r0, sl, lsr r1
    28dc:	0c042302 	stceq	3, cr2, [r4], {2}
    28e0:	00000741 	andeq	r0, r0, r1, asr #14
    28e4:	013a3001 	teqeq	sl, r1
    28e8:	23020000 	movwcs	r0, #8192	; 0x2000
    28ec:	0abe0c08 	beq	fef85914 <restore_guest_end+0x8e885914>
    28f0:	31010000 	mrscc	r0, (UNDEF: 1)
    28f4:	0000002c 	andeq	r0, r0, ip, lsr #32
    28f8:	0c0c2302 	stceq	3, cr2, [ip], {2}
    28fc:	000008d0 	ldrdeq	r0, [r0], -r0	; <UNPREDICTABLE>
    2900:	002c3201 	eoreq	r3, ip, r1, lsl #4
    2904:	23020000 	movwcs	r0, #8192	; 0x2000
    2908:	08480c10 	stmdaeq	r8, {r4, sl, fp}^
    290c:	33010000 	movwcc	r0, #4096	; 0x1000
    2910:	00000145 	andeq	r0, r0, r5, asr #2
    2914:	0c142302 	ldceq	3, cr2, [r4], {2}
    2918:	0000077d 	andeq	r0, r0, sp, ror r7
    291c:	002c3401 	eoreq	r3, ip, r1, lsl #8
    2920:	23030000 	movwcs	r0, #12288	; 0x3000
    2924:	070003ac 	streq	r0, [r0, -ip, lsr #7]
    2928:	00014004 	andeq	r4, r1, r4
    292c:	002c0d00 	eoreq	r0, ip, r0, lsl #26
    2930:	a00e0000 	andge	r0, lr, r0
    2934:	55000000 	strpl	r0, [r0, #-0]
    2938:	0f000001 	svceq	0x00000001
    293c:	00000037 	andeq	r0, r0, r7, lsr r0
    2940:	f2100065 	vhadd.s16	q0, q0, <illegal reg q10.5>
    2944:	01000008 	tsteq	r0, r8
    2948:	6e010139 	mcrvs	1, 0, r0, cr1, cr9, {1}
    294c:	11000001 	tstne	r0, r1
    2950:	00000851 	andeq	r0, r0, r1, asr r8
    2954:	016e3b01 	cmneq	lr, r1, lsl #22
    2958:	07000000 	streq	r0, [r0, -r0]
    295c:	00017404 	andeq	r7, r1, r4, lsl #8
    2960:	004c0d00 	subeq	r0, ip, r0, lsl #26
    2964:	16120000 	ldrne	r0, [r2], -r0
    2968:	01000008 	tsteq	r0, r8
    296c:	0095017d 	addseq	r0, r5, sp, ror r1
    2970:	b9010000 	stmdblt	r1, {}	; <UNPREDICTABLE>
    2974:	13000001 	movwne	r0, #1
    2978:	0000080e 	andeq	r0, r0, lr, lsl #16
    297c:	01b97d01 			; <UNDEFINED> instruction: 0x01b97d01
    2980:	58110000 	ldmdapl	r1, {}	; <UNPREDICTABLE>
    2984:	01000008 	tsteq	r0, r8
    2988:	00002c7f 	andeq	r2, r0, pc, ror ip
    298c:	07671100 	strbeq	r1, [r7, -r0, lsl #2]!
    2990:	80010000 	andhi	r0, r1, r0
    2994:	00000095 	muleq	r0, r5, r0
    2998:	07c01114 	bfieq	r1, r4, (invalid: 2:0)
    299c:	82010000 	andhi	r0, r1, #0
    29a0:	0000002c 	andeq	r0, r0, ip, lsr #32
    29a4:	04070000 	streq	r0, [r7], #-0
    29a8:	0000002c 	andeq	r0, r0, ip, lsr #32
    29ac:	0008e112 	andeq	lr, r8, r2, lsl r1
    29b0:	01150200 	tsteq	r5, r0, lsl #4
    29b4:	0000002c 	andeq	r0, r0, ip, lsr #32
    29b8:	0001de03 	andeq	sp, r1, r3, lsl #28
    29bc:	c0111400 	andsgt	r1, r1, r0, lsl #8
    29c0:	02000007 	andeq	r0, r0, #7
    29c4:	00002c17 	andeq	r2, r0, r7, lsl ip
    29c8:	15000000 	strne	r0, [r0, #-0]
    29cc:	00076e01 	andeq	r6, r7, r1, lsl #28
    29d0:	019e0100 	orrseq	r0, lr, r0, lsl #2
    29d4:	00000095 	muleq	r0, r5, r0
    29d8:	400013e4 	andmi	r1, r0, r4, ror #7
    29dc:	40001410 	andmi	r1, r0, r0, lsl r4
    29e0:	0a007d02 	beq	21df0 <LOADER_PHYS_START-0x3ffde210>
    29e4:	16000002 	strne	r0, [r0], -r2
    29e8:	00717269 	rsbseq	r7, r1, r9, ror #4
    29ec:	002c9e01 	eoreq	r9, ip, r1, lsl #28
    29f0:	1ec00000 	cdpne	0, 12, cr0, cr0, cr0, {0}
    29f4:	15000000 	strne	r0, [r0, #-0]
    29f8:	00078901 	andeq	r8, r7, r1, lsl #18
    29fc:	01a40100 			; <UNDEFINED> instruction: 0x01a40100
    2a00:	00000095 	muleq	r0, r5, r0
    2a04:	40001410 	andmi	r1, r0, r0, lsl r4
    2a08:	4000143c 	andmi	r1, r0, ip, lsr r4
    2a0c:	36007d02 	strcc	r7, [r0], -r2, lsl #26
    2a10:	16000002 	strne	r0, [r0], -r2
    2a14:	00717269 	rsbseq	r7, r1, r9, ror #4
    2a18:	002ca401 	eoreq	sl, ip, r1, lsl #8
    2a1c:	1ed30000 	cdpne	0, 13, cr0, cr3, cr0, {0}
    2a20:	15000000 	strne	r0, [r0, #-0]
    2a24:	00088201 	andeq	r8, r8, r1, lsl #4
    2a28:	01aa0100 			; <UNDEFINED> instruction: 0x01aa0100
    2a2c:	00000095 	muleq	r0, r5, r0
    2a30:	4000143c 	andmi	r1, r0, ip, lsr r4
    2a34:	40001468 	andmi	r1, r0, r8, ror #8
    2a38:	8d007d02 	stchi	13, cr7, [r0, #-8]
    2a3c:	16000002 	strne	r0, [r0], -r2
    2a40:	00717269 	rsbseq	r7, r1, r9, ror #4
    2a44:	0025aa01 	eoreq	sl, r5, r1, lsl #20
    2a48:	1ee60000 	cdpne	0, 14, cr0, cr6, cr0, {0}
    2a4c:	99170000 	ldmdbls	r7, {}	; <UNPREDICTABLE>
    2a50:	01000014 	tsteq	r0, r4, lsl r0
    2a54:	0000a0aa 	andeq	sl, r0, sl, lsr #1
    2a58:	18510100 	ldmdane	r1, {r8}^
    2a5c:	000002e5 	andeq	r0, r0, r5, ror #5
    2a60:	00c7ab01 	sbceq	sl, r7, r1, lsl #22
    2a64:	1f1a0000 	svcne	0x001a0000
    2a68:	67190000 	ldrvs	r0, [r9, -r0]
    2a6c:	01000007 	tsteq	r0, r7
    2a70:	000095ad 	andeq	r9, r0, sp, lsr #11
    2a74:	001f3800 	andseq	r3, pc, r0, lsl #16
    2a78:	ad100000 	ldcge	0, cr0, [r0, #-0]
    2a7c:	01000007 	tsteq	r0, r7
    2a80:	c401014f 	strgt	r0, [r1], #-335	; 0x14f
    2a84:	11000002 	tstne	r0, r2
    2a88:	00000858 	andeq	r0, r0, r8, asr r8
    2a8c:	002c5101 	eoreq	r5, ip, r1, lsl #2
    2a90:	b61a0000 	ldrlt	r0, [sl], -r0
    2a94:	11000002 	tstne	r0, r2
    2a98:	000007c0 	andeq	r0, r0, r0, asr #15
    2a9c:	002c5301 	eoreq	r5, ip, r1, lsl #6
    2aa0:	14000000 	strne	r0, [r0], #-0
    2aa4:	00044711 	andeq	r4, r4, r1, lsl r7
    2aa8:	2c580100 	ldfcse	f0, [r8], {-0}
    2aac:	00000000 	andeq	r0, r0, r0
    2ab0:	05011b00 	streq	r1, [r1, #-2816]	; 0xb00
    2ab4:	01000008 	tsteq	r0, r8
    2ab8:	009501b5 			; <UNDEFINED> instruction: 0x009501b5
    2abc:	14680000 	strbtne	r0, [r8], #-0
    2ac0:	17344000 	ldrne	r4, [r4, -r0]!
    2ac4:	1f714000 	svcne	0x00714000
    2ac8:	03aa0000 			; <UNDEFINED> instruction: 0x03aa0000
    2acc:	67190000 	ldrvs	r0, [r9, -r0]
    2ad0:	01000007 	tsteq	r0, r7
    2ad4:	000095b7 			; <UNDEFINED> instruction: 0x000095b7
    2ad8:	001f9100 	andseq	r9, pc, r0, lsl #2
    2adc:	00691c00 	rsbeq	r1, r9, r0, lsl #24
    2ae0:	0025b801 	eoreq	fp, r5, r1, lsl #16
    2ae4:	1fbf0000 	svcne	0x00bf0000
    2ae8:	791d0000 	ldmdbvc	sp, {}	; <UNPREDICTABLE>
    2aec:	84000001 	strhi	r0, [r0], #-1
    2af0:	20400014 	subcs	r0, r0, r4, lsl r0
    2af4:	01000005 	tsteq	r0, r5
    2af8:	000345bd 			; <UNDEFINED> instruction: 0x000345bd
    2afc:	018a1e00 	orreq	r1, sl, r0, lsl #28
    2b00:	00000000 	andeq	r0, r0, r0
    2b04:	481f1048 	ldmdami	pc, {r3, r6, ip}	; <UNPREDICTABLE>
    2b08:	20000005 	andcs	r0, r0, r5
    2b0c:	00000195 	muleq	r0, r5, r1
    2b10:	00002003 	andeq	r2, r0, r3
    2b14:	0001a020 	andeq	sl, r1, r0, lsr #32
    2b18:	00202100 	eoreq	r2, r0, r0, lsl #2
    2b1c:	14842100 	strne	r2, [r4], #256	; 0x100
    2b20:	14884000 	strne	r4, [r8], #0
    2b24:	ac204000 	stcge	0, cr4, [r0], #-0
    2b28:	03000001 	movweq	r0, #1
    2b2c:	00000020 	andeq	r0, r0, r0, lsr #32
    2b30:	8d220000 	stchi	0, cr0, [r2, #-0]
    2b34:	64000002 	strvs	r0, [r0], #-2
    2b38:	34400015 	strbcc	r0, [r0], #-21
    2b3c:	01400017 	cmpeq	r0, r7, lsl r0
    2b40:	156421c3 	strbne	r2, [r4, #-451]!	; 0x1c3
    2b44:	17344000 	ldrne	r4, [r4, -r0]!
    2b48:	9a234000 	bls	8d2b50 <LOADER_PHYS_START-0x3f72d4b0>
    2b4c:	01000002 	tsteq	r0, r2
    2b50:	15642456 	strbne	r2, [r4, #-1110]!	; 0x456
    2b54:	15684000 	strbne	r4, [r8, #-0]!
    2b58:	03794000 	cmneq	r9, #0
    2b5c:	aa230000 	bge	8c2b64 <LOADER_PHYS_START-0x3f73d49c>
    2b60:	01000002 	tsteq	r0, r2
    2b64:	90210056 	eorls	r0, r1, r6, asr r0
    2b68:	34400015 	strbcc	r0, [r0], #-21
    2b6c:	25400017 	strbcs	r0, [r0, #-23]
    2b70:	000002b7 			; <UNDEFINED> instruction: 0x000002b7
    2b74:	00015526 	andeq	r5, r1, r6, lsr #10
    2b78:	00159400 	andseq	r9, r5, r0, lsl #8
    2b7c:	00057040 	andeq	r7, r5, r0, asr #32
    2b80:	1f780100 	svcne	0x00780100
    2b84:	00000588 	andeq	r0, r0, r8, lsl #11
    2b88:	00016220 	andeq	r6, r1, r0, lsr #4
    2b8c:	00205c00 	eoreq	r5, r0, r0, lsl #24
    2b90:	00000000 	andeq	r0, r0, r0
    2b94:	27000000 	strcs	r0, [r0, -r0]
    2b98:	00072701 	andeq	r2, r7, r1, lsl #14
    2b9c:	01d00100 	bicseq	r0, r0, r0, lsl #2
    2ba0:	40001734 	andmi	r1, r0, r4, lsr r7
    2ba4:	400017f8 	strdmi	r1, [r0], -r8
    2ba8:	0000208c 	andeq	r2, r0, ip, lsl #1
    2bac:	0000043d 	andeq	r0, r0, sp, lsr r4
    2bb0:	71696616 	cmnvc	r9, r6, lsl r6
    2bb4:	25d00100 	ldrbcs	r0, [r0, #256]	; 0x100
    2bb8:	b8000000 	stmdalt	r0, {}	; <UNPREDICTABLE>
    2bbc:	18000020 	stmdane	r0, {r5}
    2bc0:	000002df 	ldrdeq	r0, [r0], -pc	; <UNPREDICTABLE>
    2bc4:	00c7d001 	sbceq	sp, r7, r1
    2bc8:	20d60000 	sbcscs	r0, r6, r0
    2bcc:	691c0000 	ldmdbvs	ip, {}	; <UNPREDICTABLE>
    2bd0:	01007261 	tsteq	r0, r1, ror #4
    2bd4:	00002cd7 	ldrdeq	r2, [r0], -r7
    2bd8:	0020f400 	eoreq	pc, r0, r0, lsl #8
    2bdc:	72692800 	rsbvc	r2, r9, #0
    2be0:	d8010071 	stmdale	r1, {r0, r4, r5, r6}
    2be4:	0000002c 	andeq	r0, r0, ip, lsr #32
    2be8:	11295401 	teqne	r9, r1, lsl #8
    2bec:	01000007 	tsteq	r0, r7
    2bf0:	00071619 	andeq	r1, r7, r9, lsl r6
    2bf4:	3dd90100 	ldfcce	f0, [r9]
    2bf8:	07000004 	streq	r0, [r0, -r4]
    2bfc:	2a000021 	bcs	2c88 <LOADER_PHYS_START-0x3fffd378>
    2c00:	00757063 	rsbseq	r7, r5, r3, rrx
    2c04:	002cdb01 	eoreq	sp, ip, r1, lsl #22
    2c08:	bf220000 	svclt	0x00220000
    2c0c:	3c000001 	stccc	0, cr0, [r0], {1}
    2c10:	40400017 	submi	r0, r0, r7, lsl r0
    2c14:	01400017 	cmpeq	r0, r7, lsl r0
    2c18:	173c21db 			; <UNDEFINED> instruction: 0x173c21db
    2c1c:	17404000 	strbne	r4, [r0, -r0]
    2c20:	d1254000 	teqle	r5, r0
    2c24:	00000001 	andeq	r0, r0, r1
    2c28:	04070000 	streq	r0, [r7], #-0
    2c2c:	000003fd 	strdeq	r0, [r0], -sp
    2c30:	0007dc2b 	andeq	sp, r7, fp, lsr #24
    2c34:	c9370100 	ldmdbgt	r7!, {r8}
    2c38:	05000000 	streq	r0, [r0, #-0]
    2c3c:	003a0003 	eorseq	r0, sl, r3
    2c40:	00930040 	addseq	r0, r3, r0, asr #32
    2c44:	00020000 	andeq	r0, r2, r0
    2c48:	00001045 	andeq	r1, r0, r5, asr #32
    2c4c:	004c0104 	subeq	r0, ip, r4, lsl #2
    2c50:	13010000 	movwne	r0, #4096	; 0x1000
    2c54:	58000009 	stmdapl	r0, {r0, r3}
    2c58:	f8000000 			; <UNDEFINED> instruction: 0xf8000000
    2c5c:	0c400017 	mcrreq	0, 1, r0, r0, cr7
    2c60:	8c400018 	mcrrhi	0, 1, r0, r0, cr8
    2c64:	0200000c 	andeq	r0, r0, #12
    2c68:	6e690504 	cdpvs	5, 6, cr0, cr9, cr4, {0}
    2c6c:	0a030074 	beq	c2e44 <LOADER_PHYS_START-0x3ff3d1bc>
    2c70:	02000002 	andeq	r0, r0, #2
    2c74:	00003705 	andeq	r3, r0, r5, lsl #14
    2c78:	07040400 	streq	r0, [r4, -r0, lsl #8]
    2c7c:	0000001b 	andeq	r0, r0, fp, lsl r0
    2c80:	c7070204 	strgt	r0, [r7, -r4, lsl #4]
    2c84:	04000000 	streq	r0, [r0], #-0
    2c88:	00110708 	andseq	r0, r1, r8, lsl #14
    2c8c:	01040000 	mrseq	r0, (UNDEF: 4)
    2c90:	00002808 	andeq	r2, r0, r8, lsl #16
    2c94:	07010500 	streq	r0, [r1, -r0, lsl #10]
    2c98:	01000009 	tsteq	r0, r9
    2c9c:	17f80108 	ldrbne	r0, [r8, r8, lsl #2]!
    2ca0:	180c4000 	stmdane	ip, {lr}
    2ca4:	7d024000 	stcvc	0, cr4, [r2, #-0]
    2ca8:	00007900 	andeq	r7, r0, r0, lsl #18
    2cac:	04470600 	strbeq	r0, [r7], #-1536	; 0x600
    2cb0:	08010000 	stmdaeq	r1, {}	; <UNPREDICTABLE>
    2cb4:	0000002c 	andeq	r0, r0, ip, lsr #32
    2cb8:	07005001 	streq	r5, [r0, -r1]
    2cbc:	00000811 	andeq	r0, r0, r1, lsl r8
    2cc0:	008b0601 	addeq	r0, fp, r1, lsl #12
    2cc4:	05010000 	streq	r0, [r1, #-0]
    2cc8:	0039b803 	eorseq	fp, r9, r3, lsl #16
    2ccc:	91040840 	tstls	r4, r0, asr #16
    2cd0:	09000000 	stmdbeq	r0, {}	; <UNPREDICTABLE>
    2cd4:	0000002c 	andeq	r0, r0, ip, lsr #32
    2cd8:	00058000 	andeq	r8, r5, r0
    2cdc:	c3000200 	movwgt	r0, #512	; 0x200
    2ce0:	04000010 	streq	r0, [r0], #-16
    2ce4:	00004c01 	andeq	r4, r0, r1, lsl #24
    2ce8:	0af20100 	beq	ffc830f0 <restore_guest_end+0x8f5830f0>
    2cec:	00580000 	subseq	r0, r8, r0
    2cf0:	180c0000 	stmdane	ip, {}	; <UNPREDICTABLE>
    2cf4:	191c4000 	ldmdbne	ip, {lr}
    2cf8:	0d124000 	ldceq	0, cr4, [r2, #-0]
    2cfc:	04020000 	streq	r0, [r2], #-0
    2d00:	746e6905 	strbtvc	r6, [lr], #-2309	; 0x905
    2d04:	020a0300 	andeq	r0, sl, #0
    2d08:	05020000 	streq	r0, [r2, #-0]
    2d0c:	00000037 	andeq	r0, r0, r7, lsr r0
    2d10:	1b070404 	blne	1c3d28 <LOADER_PHYS_START-0x3fe3c2d8>
    2d14:	03000000 	movweq	r0, #0
    2d18:	00000b29 	andeq	r0, r0, r9, lsr #22
    2d1c:	00490602 	subeq	r0, r9, r2, lsl #12
    2d20:	02040000 	andeq	r0, r4, #0
    2d24:	0000c707 	andeq	ip, r0, r7, lsl #14
    2d28:	07080400 	streq	r0, [r8, -r0, lsl #8]
    2d2c:	00000011 	andeq	r0, r0, r1, lsl r0
    2d30:	0001b303 	andeq	fp, r1, r3, lsl #6
    2d34:	62080200 	andvs	r0, r8, #0
    2d38:	04000000 	streq	r0, [r0], #-0
    2d3c:	00280801 	eoreq	r0, r8, r1, lsl #16
    2d40:	cd050000 	stcgt	0, cr0, [r5, #-0]
    2d44:	0800000a 	stmdaeq	r0, {r1, r3}
    2d48:	00921701 	addseq	r1, r2, r1, lsl #14
    2d4c:	c8060000 	stmdagt	r6, {}	; <UNPREDICTABLE>
    2d50:	0100000a 	tsteq	r0, sl
    2d54:	00002c18 	andeq	r2, r0, r8, lsl ip
    2d58:	00230200 	eoreq	r0, r3, r0, lsl #4
    2d5c:	67617407 	strbvs	r7, [r1, -r7, lsl #8]!
    2d60:	2c190100 	ldfcss	f0, [r9], {-0}
    2d64:	02000000 	andeq	r0, r0, #0
    2d68:	05000423 	streq	r0, [r0, #-1059]	; 0x423
    2d6c:	00000963 	andeq	r0, r0, r3, ror #18
    2d70:	c91b010c 	ldmdbgt	fp, {r2, r3, r8}
    2d74:	06000000 	streq	r0, [r0], -r0
    2d78:	00000553 	andeq	r0, r0, r3, asr r5
    2d7c:	002c1c01 	eoreq	r1, ip, r1, lsl #24
    2d80:	23020000 	movwcs	r0, #8192	; 0x2000
    2d84:	095a0600 	ldmdbeq	sl, {r9, sl}^
    2d88:	1d010000 	stcne	0, cr0, [r1, #-0]
    2d8c:	0000002c 	andeq	r0, r0, ip, lsr #32
    2d90:	06042302 	streq	r2, [r4], -r2, lsl #6
    2d94:	000009c9 	andeq	r0, r0, r9, asr #19
    2d98:	002c1e01 	eoreq	r1, ip, r1, lsl #28
    2d9c:	23020000 	movwcs	r0, #8192	; 0x2000
    2da0:	b6050008 	strlt	r0, [r5], -r8
    2da4:	08000009 	stmdaeq	r0, {r0, r3}
    2da8:	00f22001 	rscseq	r2, r2, r1
    2dac:	c8060000 	stmdagt	r6, {}	; <UNPREDICTABLE>
    2db0:	0100000a 	tsteq	r0, sl
    2db4:	00002c21 	andeq	r2, r0, r1, lsr #24
    2db8:	00230200 	eoreq	r0, r3, r0, lsl #4
    2dbc:	0012a106 	andseq	sl, r2, r6, lsl #2
    2dc0:	2c220100 	stfcss	f0, [r2], #-0
    2dc4:	02000000 	andeq	r0, r0, #0
    2dc8:	05000423 	streq	r0, [r0, #-1059]	; 0x423
    2dcc:	0000094c 	andeq	r0, r0, ip, asr #18
    2dd0:	1b240108 	blne	9031f8 <LOADER_PHYS_START-0x3f6fce08>
    2dd4:	07000001 	streq	r0, [r0, -r1]
    2dd8:	00776f6c 	rsbseq	r6, r7, ip, ror #30
    2ddc:	002c2501 	eoreq	r2, ip, r1, lsl #10
    2de0:	23020000 	movwcs	r0, #8192	; 0x2000
    2de4:	0a560600 	beq	15845ec <LOADER_PHYS_START-0x3ea7ba14>
    2de8:	26010000 	strcs	r0, [r1], -r0
    2dec:	0000002c 	andeq	r0, r0, ip, lsr #32
    2df0:	00042302 	andeq	r2, r4, r2, lsl #6
    2df4:	000b3f05 	andeq	r3, fp, r5, lsl #30
    2df8:	28010400 	stmdacs	r1, {sl}
    2dfc:	00000136 	andeq	r0, r0, r6, lsr r1
    2e00:	76657207 	strbtvc	r7, [r5], -r7, lsl #4
    2e04:	2c290100 	stfcss	f0, [r9], #-0
    2e08:	02000000 	andeq	r0, r0, #0
    2e0c:	05000023 	streq	r0, [r0, #-35]	; 0x23
    2e10:	00000a8a 	andeq	r0, r0, sl, lsl #21
    2e14:	512b0101 	teqpl	fp, r1, lsl #2
    2e18:	06000001 	streq	r0, [r0], -r1
    2e1c:	00000a8f 	andeq	r0, r0, pc, lsl #21
    2e20:	01512c01 	cmpeq	r1, r1, lsl #24
    2e24:	23020000 	movwcs	r0, #8192	; 0x2000
    2e28:	61080000 	mrsvs	r0, (UNDEF: 8)
    2e2c:	61000001 	tstvs	r0, r1
    2e30:	09000001 	stmdbeq	r0, {r0}
    2e34:	00000037 	andeq	r0, r0, r7, lsr r0
    2e38:	01040000 	mrseq	r0, (UNDEF: 4)
    2e3c:	00003108 	andeq	r3, r0, r8, lsl #2
    2e40:	0a010500 	beq	44248 <LOADER_PHYS_START-0x3ffbbdb8>
    2e44:	010c0000 	mrseq	r0, (UNDEF: 12)
    2e48:	00019f2e 	andeq	r9, r1, lr, lsr #30
    2e4c:	05530600 	ldrbeq	r0, [r3, #-1536]	; 0x600
    2e50:	2f010000 	svccs	0x00010000
    2e54:	0000002c 	andeq	r0, r0, ip, lsr #32
    2e58:	06002302 	streq	r2, [r0], -r2, lsl #6
    2e5c:	00000ac8 	andeq	r0, r0, r8, asr #21
    2e60:	002c3001 	eoreq	r3, ip, r1
    2e64:	23020000 	movwcs	r0, #8192	; 0x2000
    2e68:	12a10604 	adcne	r0, r1, #4194304	; 0x400000
    2e6c:	31010000 	mrscc	r0, (UNDEF: 1)
    2e70:	0000002c 	andeq	r0, r0, ip, lsr #32
    2e74:	00082302 	andeq	r2, r8, r2, lsl #6
    2e78:	00099405 	andeq	r9, r9, r5, lsl #8
    2e7c:	33010c00 	movwcc	r0, #7168	; 0x1c00
    2e80:	00000226 	andeq	r0, r0, r6, lsr #4
    2e84:	01007807 	tsteq	r0, r7, lsl #16
    2e88:	00005734 	andeq	r5, r0, r4, lsr r7
    2e8c:	00230200 	eoreq	r0, r3, r0, lsl #4
    2e90:	01007907 	tsteq	r0, r7, lsl #18
    2e94:	00005735 	andeq	r5, r0, r5, lsr r7
    2e98:	01230200 	teqeq	r3, r0, lsl #4
    2e9c:	000a7706 	andeq	r7, sl, r6, lsl #14
    2ea0:	3e360100 	rsfccs	f0, f6, f0
    2ea4:	02000000 	andeq	r0, r0, #0
    2ea8:	89060223 	stmdbhi	r6, {r0, r1, r5, r9}
    2eac:	01000009 	tsteq	r0, r9
    2eb0:	00005737 	andeq	r5, r0, r7, lsr r7
    2eb4:	04230200 	strteq	r0, [r3], #-512	; 0x200
    2eb8:	000a1f06 	andeq	r1, sl, r6, lsl #30
    2ebc:	57380100 	ldrpl	r0, [r8, -r0, lsl #2]!
    2ec0:	02000000 	andeq	r0, r0, #0
    2ec4:	3f060523 	svccc	0x00060523
    2ec8:	01000009 	tsteq	r0, r9
    2ecc:	00003e39 	andeq	r3, r0, r9, lsr lr
    2ed0:	06230200 	strteq	r0, [r3], -r0, lsl #4
    2ed4:	000ab806 	andeq	fp, sl, r6, lsl #16
    2ed8:	573a0100 	ldrpl	r0, [sl, -r0, lsl #2]!
    2edc:	02000000 	andeq	r0, r0, #0
    2ee0:	75060823 	strvc	r0, [r6, #-2083]	; 0x823
    2ee4:	0100000b 	tsteq	r0, fp
    2ee8:	0000573b 	andeq	r5, r0, fp, lsr r7
    2eec:	09230200 	stmdbeq	r3!, {r9}
    2ef0:	000b3206 	andeq	r3, fp, r6, lsl #4
    2ef4:	3e3c0100 	rsfcce	f0, f4, f0
    2ef8:	02000000 	andeq	r0, r0, #0
    2efc:	05000a23 	streq	r0, [r0, #-2595]	; 0xa23
    2f00:	00000b68 	andeq	r0, r0, r8, ror #22
    2f04:	4f3e0108 	svcmi	0x003e0108
    2f08:	06000002 	streq	r0, [r0], -r2
    2f0c:	000012a1 	andeq	r1, r0, r1, lsr #5
    2f10:	002c3f01 	eoreq	r3, ip, r1, lsl #30
    2f14:	23020000 	movwcs	r0, #8192	; 0x2000
    2f18:	0ac80600 	beq	ff204720 <restore_guest_end+0x8eb04720>
    2f1c:	40010000 	andmi	r0, r1, r0
    2f20:	0000002c 	andeq	r0, r0, ip, lsr #32
    2f24:	00042302 	andeq	r2, r4, r2, lsl #6
    2f28:	00096d05 	andeq	r6, r9, r5, lsl #26
    2f2c:	42011800 	andmi	r1, r1, #0
    2f30:	00000320 	andeq	r0, r0, r0, lsr #6
    2f34:	000b8106 	andeq	r8, fp, r6, lsl #2
    2f38:	3e430100 	dvfccs	f0, f3, f0
    2f3c:	02000000 	andeq	r0, r0, #0
    2f40:	4b060023 	blmi	182fd4 <LOADER_PHYS_START-0x3fe7d02c>
    2f44:	0100000a 	tsteq	r0, sl
    2f48:	00003e44 	andeq	r3, r0, r4, asr #28
    2f4c:	02230200 	eoreq	r0, r3, #0
    2f50:	000a9706 	andeq	r9, sl, r6, lsl #14
    2f54:	3e450100 	dvfccs	f0, f5, f0
    2f58:	02000000 	andeq	r0, r0, #0
    2f5c:	d1060423 	tstle	r6, r3, lsr #8
    2f60:	01000009 	tsteq	r0, r9
    2f64:	00003e46 	andeq	r3, r0, r6, asr #28
    2f68:	06230200 	strteq	r0, [r3], -r0, lsl #4
    2f6c:	000b2006 	andeq	r2, fp, r6
    2f70:	2c470100 	stfcse	f0, [r7], {-0}
    2f74:	02000000 	andeq	r0, r0, #0
    2f78:	c4060823 	strgt	r0, [r6], #-2083	; 0x823
    2f7c:	0100000a 	tsteq	r0, sl
    2f80:	00002c48 	andeq	r2, r0, r8, asr #24
    2f84:	0c230200 	sfmeq	f0, 4, [r3], #-0
    2f88:	000a2a06 	andeq	r2, sl, r6, lsl #20
    2f8c:	57490100 	strbpl	r0, [r9, -r0, lsl #2]
    2f90:	02000000 	andeq	r0, r0, #0
    2f94:	17061023 	strne	r1, [r6, -r3, lsr #32]
    2f98:	0100000a 	tsteq	r0, sl
    2f9c:	0000574a 	andeq	r5, r0, sl, asr #14
    2fa0:	11230200 	teqne	r3, r0, lsl #4
    2fa4:	0009e006 	andeq	lr, r9, r6
    2fa8:	574b0100 	strbpl	r0, [fp, -r0, lsl #2]
    2fac:	02000000 	andeq	r0, r0, #0
    2fb0:	bf061223 	svclt	0x00061223
    2fb4:	01000009 	tsteq	r0, r9
    2fb8:	0000574c 	andeq	r5, r0, ip, asr #14
    2fbc:	13230200 	teqne	r3, #0
    2fc0:	000ad906 	andeq	sp, sl, r6, lsl #18
    2fc4:	574d0100 	strbpl	r0, [sp, -r0, lsl #2]
    2fc8:	02000000 	andeq	r0, r0, #0
    2fcc:	6e061423 	cdpvs	4, 0, cr1, cr6, cr3, {1}
    2fd0:	0100000a 	tsteq	r0, sl
    2fd4:	0000574e 	andeq	r5, r0, lr, asr #14
    2fd8:	15230200 	strne	r0, [r3, #-512]!	; 0x200
    2fdc:	0009f706 	andeq	pc, r9, r6, lsl #14
    2fe0:	574f0100 	strbpl	r0, [pc, -r0, lsl #2]
    2fe4:	02000000 	andeq	r0, r0, #0
    2fe8:	0e061623 	cfmadd32eq	mvax1, mvfx1, mvfx6, mvfx3
    2fec:	0100000a 	tsteq	r0, sl
    2ff0:	00005750 	andeq	r5, r0, r0, asr r7
    2ff4:	17230200 	strne	r0, [r3, -r0, lsl #4]!
    2ff8:	01180a00 	tsteq	r8, r0, lsl #20
    2ffc:	00038c54 	andeq	r8, r3, r4, asr ip
    3000:	09680b00 	stmdbeq	r8!, {r8, r9, fp}^
    3004:	55010000 	strpl	r0, [r1, #-0]
    3008:	00000092 	muleq	r0, r2, r0
    300c:	6d656d0c 	stclvs	13, cr6, [r5, #-48]!	; 0xffffffd0
    3010:	c9560100 	ldmdbgt	r6, {r8}^
    3014:	0b000000 	bleq	301c <LOADER_PHYS_START-0x3fffcfe4>
    3018:	00000999 	muleq	r0, r9, r9
    301c:	019f5701 	orrseq	r5, pc, r1, lsl #14
    3020:	060b0000 	streq	r0, [fp], -r0
    3024:	0100000a 	tsteq	r0, sl
    3028:	00016858 	andeq	r6, r1, r8, asr r8
    302c:	0b6d0b00 	bleq	1b45c34 <LOADER_PHYS_START-0x3e4ba3cc>
    3030:	59010000 	stmdbpl	r1, {}	; <UNPREDICTABLE>
    3034:	00000226 	andeq	r0, r0, r6, lsr #4
    3038:	0009510b 	andeq	r5, r9, fp, lsl #2
    303c:	f25a0100 	vrhadd.s16	d16, d10, d0
    3040:	0b000000 	bleq	3048 <LOADER_PHYS_START-0x3fffcfb8>
    3044:	00000b44 	andeq	r0, r0, r4, asr #22
    3048:	011b5b01 	tsteq	fp, r1, lsl #22
    304c:	720b0000 	andvc	r0, fp, #0
    3050:	01000009 	tsteq	r0, r9
    3054:	00024f5c 	andeq	r4, r2, ip, asr pc
    3058:	0a8f0b00 	beq	fe3c5c60 <restore_guest_end+0x8dcc5c60>
    305c:	5d010000 	stcpl	0, cr0, [r1, #-0]
    3060:	00000136 	andeq	r0, r0, r6, lsr r1
    3064:	09b10500 	ldmibeq	r1!, {r8, sl}
    3068:	01200000 	teqeq	r0, r0
    306c:	0003b352 	andeq	fp, r3, r2, asr r3
    3070:	64680700 	strbtvs	r0, [r8], #-1792	; 0x700
    3074:	53010072 	movwpl	r0, #4210	; 0x1072
    3078:	00000069 	andeq	r0, r0, r9, rrx
    307c:	07002302 	streq	r2, [r0, -r2, lsl #6]
    3080:	5e010075 	mcrpl	0, 0, r0, cr1, cr5, {3}
    3084:	00000320 	andeq	r0, r0, r0, lsr #6
    3088:	00082302 	andeq	r2, r8, r2, lsl #6
    308c:	000aa10d 	andeq	sl, sl, sp, lsl #2
    3090:	01650100 	cmneq	r5, r0, lsl #2
    3094:	0003d701 	andeq	sp, r3, r1, lsl #14
    3098:	109b0e00 	addsne	r0, fp, r0, lsl #28
    309c:	65010000 	strvs	r0, [r1, #-0]
    30a0:	000003d7 	ldrdeq	r0, [r0], -r7
    30a4:	00095a0e 	andeq	r5, r9, lr, lsl #20
    30a8:	d9650100 	stmdble	r5!, {r8}^
    30ac:	00000003 	andeq	r0, r0, r3
    30b0:	0404040f 	streq	r0, [r4], #-1039	; 0x40f
    30b4:	00053205 	andeq	r3, r5, r5, lsl #4
    30b8:	0a5b1000 	beq	16c70c0 <LOADER_PHYS_START-0x3e938f40>
    30bc:	75010000 	strvc	r0, [r1, #-0]
    30c0:	a30d0101 	movwge	r0, #53505	; 0xd101
    30c4:	01000009 	tsteq	r0, r9
    30c8:	0d01018a 	stfeqs	f0, [r1, #-552]	; 0xfffffdd8
    30cc:	0e000004 	cdpeq	0, 0, cr0, cr0, cr4, {0}
    30d0:	000012a1 	andeq	r1, r0, r1, lsr #5
    30d4:	002c8a01 	eoreq	r8, ip, r1, lsl #20
    30d8:	6c110000 	ldcvs	0, cr0, [r1], {-0}
    30dc:	01006e65 	tsteq	r0, r5, ror #28
    30e0:	00002c8a 	andeq	r2, r0, sl, lsl #25
    30e4:	8b0d0000 	blhi	3430ec <LOADER_PHYS_START-0x3fcbcf14>
    30e8:	0100000b 	tsteq	r0, fp
    30ec:	3101017d 	tstcc	r1, sp, ror r1
    30f0:	0e000004 	cdpeq	0, 0, cr0, cr0, cr4, {0}
    30f4:	00000a92 	muleq	r0, r2, sl
    30f8:	04317d01 	ldrteq	r7, [r1], #-3329	; 0xd01
    30fc:	b0120000 	andslt	r0, r2, r0
    3100:	0100000a 	tsteq	r0, sl
    3104:	0000257f 	andeq	r2, r0, pc, ror r5
    3108:	04130000 	ldreq	r0, [r3], #-0
    310c:	00000437 	andeq	r0, r0, r7, lsr r4
    3110:	00016114 	andeq	r6, r1, r4, lsl r1
    3114:	097b1000 	ldmdbeq	fp!, {ip}^
    3118:	9d010000 	stcls	0, cr0, [r1, #-0]
    311c:	01150101 	tsteq	r5, r1, lsl #2
    3120:	00000a33 	andeq	r0, r0, r3, lsr sl
    3124:	0c01b001 	stceq	0, cr11, [r1], {1}
    3128:	f0400018 			; <UNDEFINED> instruction: 0xf0400018
    312c:	25400018 	strbcs	r0, [r0, #-24]
    3130:	17000021 	strne	r0, [r0, -r1, lsr #32]
    3134:	16000005 	strne	r0, [r0], -r5
    3138:	00637273 	rsbeq	r7, r3, r3, ror r2
    313c:	002cb001 	eoreq	fp, ip, r1
    3140:	21450000 	mrscs	r0, (UNDEF: 69)
    3144:	eb170000 	bl	5c314c <LOADER_PHYS_START-0x3fa3ceb4>
    3148:	01000009 	tsteq	r0, r9
    314c:	000517b2 			; <UNDEFINED> instruction: 0x000517b2
    3150:	f4030600 	vst1.8	{d0-d2}, [r3], r0
    3154:	9f400032 	svcls	0x00400032
    3158:	0003b318 	andeq	fp, r3, r8, lsl r3
    315c:	00181000 	andseq	r1, r8, r0
    3160:	0005a040 	andeq	sl, r5, r0, asr #32
    3164:	a3d50100 	bicsge	r0, r5, #0
    3168:	19000004 	stmdbne	r0, {r2}
    316c:	000003cb 	andeq	r0, r0, fp, asr #7
    3170:	c01a1000 	andsgt	r1, sl, r0
    3174:	63000003 	movwvs	r0, #3
    3178:	00000021 	andeq	r0, r0, r1, lsr #32
    317c:	0003e918 	andeq	lr, r3, r8, lsl r9
    3180:	00182000 	andseq	r2, r8, r0
    3184:	0005e840 	andeq	lr, r5, r0, asr #16
    3188:	c9d80100 	ldmibgt	r8, {r8}^
    318c:	1b000004 	blne	31a4 <LOADER_PHYS_START-0x3fffce5c>
    3190:	00000401 	andeq	r0, r0, r1, lsl #8
    3194:	20000000 	andcs	r0, r0, r0
    3198:	0003f61a 	andeq	pc, r3, sl, lsl r6	; <UNPREDICTABLE>
    319c:	00218100 	eoreq	r8, r1, r0, lsl #2
    31a0:	e01c0000 	ands	r0, ip, r0
    31a4:	24000003 	strcs	r0, [r0], #-3
    31a8:	20400018 	subcs	r0, r0, r8, lsl r0
    31ac:	01000006 	tsteq	r0, r6
    31b0:	040d18d7 	streq	r1, [sp], #-2263	; 0x8d7
    31b4:	18280000 	stmdane	r8!, {}	; <UNPREDICTABLE>
    31b8:	06584000 	ldrbeq	r4, [r8], -r0
    31bc:	e1010000 	mrs	r0, (UNDEF: 1)
    31c0:	00000507 	andeq	r0, r0, r7, lsl #10
    31c4:	00041a1d 	andeq	r1, r4, sp, lsl sl
    31c8:	f4030600 	vst1.8	{d0-d2}, [r3], r0
    31cc:	9f400032 	svcls	0x00400032
    31d0:	0006701e 	andeq	r7, r6, lr, lsl r0
    31d4:	04251f00 	strteq	r1, [r5], #-3840	; 0xf00
    31d8:	21940000 	orrscs	r0, r4, r0
    31dc:	00000000 	andeq	r0, r0, r0
    31e0:	00043c20 	andeq	r3, r4, r0, lsr #24
    31e4:	0018d800 	andseq	sp, r8, r0, lsl #16
    31e8:	0018e440 	andseq	lr, r8, r0, asr #8
    31ec:	00e30140 	rsceq	r0, r3, r0, asr #2
    31f0:	01610413 	cmneq	r1, r3, lsl r4
    31f4:	01210000 	teqeq	r1, r0
    31f8:	00000b4d 	andeq	r0, r0, sp, asr #22
    31fc:	5401e601 	strpl	lr, [r1], #-1537	; 0x601
    3200:	f0000005 			; <UNDEFINED> instruction: 0xf0000005
    3204:	1c400018 	mcrrne	0, 1, r0, r0, cr8
    3208:	b4400019 	strblt	r0, [r0], #-25
    320c:	54000021 	strpl	r0, [r0], #-33	; 0x21
    3210:	22000005 	andcs	r0, r0, #5
    3214:	40001908 	andmi	r1, r0, r8, lsl #18
    3218:	4000191c 	andmi	r1, r0, ip, lsl r9
    321c:	025d0123 	subseq	r0, sp, #-1073741816	; 0xc0000008
    3220:	eb010000 	bl	43228 <LOADER_PHYS_START-0x3ffbcdd8>
    3224:	00000025 	andeq	r0, r0, r5, lsr #32
    3228:	00002401 	andeq	r2, r0, r1, lsl #8
    322c:	2c041300 	stccs	3, cr1, [r4], {-0}
    3230:	17000000 	strne	r0, [r0, -r0]
    3234:	00000a82 	andeq	r0, r0, r2, lsl #21
    3238:	056b6101 	strbeq	r6, [fp, #-257]!	; 0x101
    323c:	03050000 	movweq	r0, #20480	; 0x5000
    3240:	40003bb4 			; <UNDEFINED> instruction: 0x40003bb4
    3244:	038c0413 	orreq	r0, ip, #318767104	; 0x13000000
    3248:	e3250000 	teq	r5, #0
    324c:	0100000a 	tsteq	r0, sl
    3250:	00055463 	andeq	r5, r5, r3, ror #8
    3254:	03050100 	movweq	r0, #20736	; 0x5100
    3258:	40003bb0 			; <UNDEFINED> instruction: 0x40003bb0
    325c:	0001f100 	andeq	pc, r1, r0, lsl #2
    3260:	9f000200 	svcls	0x00000200
    3264:	04000012 	streq	r0, [r0], #-18
    3268:	00004c01 	andeq	r4, r0, r1, lsl #24
    326c:	0c0e0100 	stfeqs	f0, [lr], {-0}
    3270:	00580000 	subseq	r0, r8, r0
    3274:	191c0000 	ldmdbne	ip, {}	; <UNPREDICTABLE>
    3278:	19f44000 	ldmibne	r4!, {lr}^
    327c:	0dff4000 	ldcleq	0, cr4, [pc]	; 3284 <LOADER_PHYS_START-0x3fffcd7c>
    3280:	04020000 	streq	r0, [r2], #-0
    3284:	746e6905 	strbtvc	r6, [lr], #-2309	; 0x905
    3288:	020a0300 	andeq	r0, sl, #0
    328c:	05030000 	streq	r0, [r3, #-0]
    3290:	00000037 	andeq	r0, r0, r7, lsr r0
    3294:	1b070404 	blne	1c42ac <LOADER_PHYS_START-0x3fe3bd54>
    3298:	04000000 	streq	r0, [r0], #-0
    329c:	00c70702 	sbceq	r0, r7, r2, lsl #14
    32a0:	08040000 	stmdaeq	r4, {}	; <UNPREDICTABLE>
    32a4:	00001107 	andeq	r1, r0, r7, lsl #2
    32a8:	08010400 	stmdaeq	r1, {sl}
    32ac:	00000028 	andeq	r0, r0, r8, lsr #32
    32b0:	0bd00105 	bleq	ff4036cc <restore_guest_end+0x8ed036cc>
    32b4:	1c010000 	stcne	0, cr0, [r1], {-0}
    32b8:	00a40101 	adceq	r0, r4, r1, lsl #2
    32bc:	e7060000 	str	r0, [r6, -r0]
    32c0:	0100000b 	tsteq	r0, fp
    32c4:	0000a41c 	andeq	sl, r0, ip, lsl r4
    32c8:	0bfa0600 	bleq	ffe84ad0 <restore_guest_end+0x8f784ad0>
    32cc:	1c010000 	stcne	0, cr0, [r1], {-0}
    32d0:	000000a4 	andeq	r0, r0, r4, lsr #1
    32d4:	000bde06 	andeq	sp, fp, r6, lsl #28
    32d8:	a41c0100 	ldrge	r0, [ip], #-256	; 0x100
    32dc:	07000000 	streq	r0, [r0, -r0]
    32e0:	00637273 	rsbeq	r7, r3, r3, ror r2
    32e4:	00a41e01 	adceq	r1, r4, r1, lsl #28
    32e8:	65070000 	strvs	r0, [r7, #-0]
    32ec:	0100646e 	tsteq	r0, lr, ror #8
    32f0:	0000a41f 	andeq	sl, r0, pc, lsl r4
    32f4:	73640700 	cmnvc	r4, #0
    32f8:	20010074 	andcs	r0, r1, r4, ror r0
    32fc:	000000a4 	andeq	r0, r0, r4, lsr #1
    3300:	2c040800 	stccs	8, cr0, [r4], {-0}
    3304:	09000000 	stmdbeq	r0, {}	; <UNPREDICTABLE>
    3308:	00000053 	andeq	r0, r0, r3, asr r0
    330c:	4000191c 	andmi	r1, r0, ip, lsl r9
    3310:	40001938 	andmi	r1, r0, r8, lsr r9
    3314:	ef007d02 	svc	0x00007d02
    3318:	0a000000 	beq	3320 <LOADER_PHYS_START-0x3fffcce0>
    331c:	00000061 	andeq	r0, r0, r1, rrx
    3320:	000021d4 	ldrdeq	r2, [r0], -r4
    3324:	00006c0b 	andeq	r6, r0, fp, lsl #24
    3328:	0a510100 	beq	1443730 <LOADER_PHYS_START-0x3ebbc8d0>
    332c:	00000077 	andeq	r0, r0, r7, ror r0
    3330:	000021e7 	andeq	r2, r0, r7, ror #3
    3334:	0000820c 	andeq	r8, r0, ip, lsl #4
    3338:	0021fa00 	eoreq	pc, r1, r0, lsl #20
    333c:	008d0d00 	addeq	r0, sp, r0, lsl #26
    3340:	51010000 	mrspl	r0, (UNDEF: 1)
    3344:	0000980d 	andeq	r9, r0, sp, lsl #16
    3348:	00520100 	subseq	r0, r2, r0, lsl #2
    334c:	0b9d010e 	bleq	fe74378c <restore_guest_end+0x8e04378c>
    3350:	25010000 	strcs	r0, [r1, #-0]
    3354:	00193801 	andseq	r3, r9, r1, lsl #16
    3358:	0019f440 	andseq	pc, r9, r0, asr #8
    335c:	00220d40 	eoreq	r0, r2, r0, asr #26
    3360:	0001c000 	andeq	ip, r1, r0
    3364:	0bbb0f00 	bleq	feec6f6c <restore_guest_end+0x8e7c6f6c>
    3368:	25010000 	strcs	r0, [r1, #-0]
    336c:	0000002c 	andeq	r0, r0, ip, lsr #32
    3370:	0000222d 	andeq	r2, r0, sp, lsr #4
    3374:	025d0110 	subseq	r0, sp, #4
    3378:	27010000 	strcs	r0, [r1, -r0]
    337c:	00000025 	andeq	r0, r0, r5, lsr #32
    3380:	00012a01 	andeq	r2, r1, r1, lsl #20
    3384:	12001100 	andne	r1, r0, #0
    3388:	00000bc9 	andeq	r0, r0, r9, asr #23
    338c:	002c2901 	eoreq	r2, ip, r1, lsl #18
    3390:	224b0000 	subcs	r0, fp, #0
    3394:	70070000 	andvc	r0, r7, r0
    3398:	2a010063 	bcs	4352c <LOADER_PHYS_START-0x3ffbcad4>
    339c:	0000002c 	andeq	r0, r0, ip, lsr #32
    33a0:	00005313 	andeq	r5, r0, r3, lsl r3
    33a4:	00195000 	andseq	r5, r9, r0
    33a8:	00068840 	andeq	r8, r6, r0, asr #16
    33ac:	7f360100 	svcvc	0x00360100
    33b0:	14000001 	strne	r0, [r0], #-1
    33b4:	00000077 	andeq	r0, r0, r7, ror r0
    33b8:	00006c14 	andeq	r6, r0, r4, lsl ip
    33bc:	00611400 	rsbeq	r1, r1, r0, lsl #8
    33c0:	a0150000 	andsge	r0, r5, r0
    33c4:	16000006 	strne	r0, [r0], -r6
    33c8:	00000082 	andeq	r0, r0, r2, lsl #1
    33cc:	0000980c 	andeq	r9, r0, ip, lsl #16
    33d0:	00225e00 	eoreq	r5, r2, r0, lsl #28
    33d4:	008d1600 	addeq	r1, sp, r0, lsl #12
    33d8:	00000000 	andeq	r0, r0, r0
    33dc:	00005317 	andeq	r5, r0, r7, lsl r3
    33e0:	00198c00 	andseq	r8, r9, r0, lsl #24
    33e4:	0019ac40 	andseq	sl, r9, r0, asr #24
    33e8:	0a3c0140 	beq	f038f0 <LOADER_PHYS_START-0x3f0fc710>
    33ec:	00000077 	andeq	r0, r0, r7, ror r0
    33f0:	00002271 	andeq	r2, r0, r1, ror r2
    33f4:	00006c14 	andeq	r6, r0, r4, lsl ip
    33f8:	00611400 	rsbeq	r1, r1, r0, lsl #8
    33fc:	8c180000 	ldchi	0, cr0, [r8], {-0}
    3400:	ac400019 	mcrrge	0, 1, r0, r0, cr9
    3404:	16400019 			; <UNDEFINED> instruction: 0x16400019
    3408:	00000082 	andeq	r0, r0, r2, lsl #1
    340c:	0000980c 	andeq	r9, r0, ip, lsl #16
    3410:	00228900 	eoreq	r8, r2, r0, lsl #18
    3414:	008d1600 	addeq	r1, sp, r0, lsl #12
    3418:	00000000 	andeq	r0, r0, r0
    341c:	0baf1900 	bleq	febc9824 <restore_guest_end+0x8e4c9824>
    3420:	16020000 	strne	r0, [r2], -r0
    3424:	0000002c 	andeq	r0, r0, ip, lsr #32
    3428:	f0190101 			; <UNDEFINED> instruction: 0xf0190101
    342c:	0200000b 	andeq	r0, r0, #11
    3430:	00002c17 	andeq	r2, r0, r7, lsl ip
    3434:	19010100 	stmdbne	r1, {r8}
    3438:	00000c43 	andeq	r0, r0, r3, asr #24
    343c:	002c1802 	eoreq	r1, ip, r2, lsl #16
    3440:	01010000 	mrseq	r0, (UNDEF: 1)
    3444:	000c0319 	andeq	r0, ip, r9, lsl r3
    3448:	2c190200 	lfmcs	f0, 4, [r9], {-0}
    344c:	01000000 	mrseq	r0, (UNDEF: 0)
    3450:	01c30001 	biceq	r0, r3, r1
    3454:	00020000 	andeq	r0, r2, r0
    3458:	000013db 	ldrdeq	r1, [r0], -fp
    345c:	004c0104 	subeq	r0, ip, r4, lsl #2
    3460:	68010000 	stmdavs	r1, {}	; <UNPREDICTABLE>
    3464:	5800000c 	stmdapl	r0, {r2, r3}
    3468:	f4000000 	vst4.8	{d0-d3}, [r0], r0
    346c:	c0400019 	subgt	r0, r0, r9, lsl r0
    3470:	d240001a 	suble	r0, r0, #26
    3474:	0200000e 	andeq	r0, r0, #14
    3478:	6e690504 	cdpvs	5, 6, cr0, cr9, cr4, {0}
    347c:	04030074 	streq	r0, [r3], #-116	; 0x74
    3480:	00001b07 	andeq	r1, r0, r7, lsl #22
    3484:	07020300 	streq	r0, [r2, -r0, lsl #6]
    3488:	000000c7 	andeq	r0, r0, r7, asr #1
    348c:	11070803 	tstne	r7, r3, lsl #16
    3490:	03000000 	movweq	r0, #0
    3494:	00280801 	eoreq	r0, r8, r1, lsl #16
    3498:	01030000 	mrseq	r0, (UNDEF: 3)
    349c:	00003108 	andeq	r3, r0, r8, lsl #2
    34a0:	0ea20400 	cdpeq	4, 10, cr0, cr2, cr0, {0}
    34a4:	01040000 	mrseq	r0, (UNDEF: 4)
    34a8:	00007a08 	andeq	r7, r0, r8, lsl #20
    34ac:	0e0f0500 	cfsh32eq	mvfx0, mvfx15, #0
    34b0:	05000000 	streq	r0, [r0, #-0]
    34b4:	00000f7a 	andeq	r0, r0, sl, ror pc
    34b8:	0c500501 	cfldr64eq	mvdx0, [r0], {1}
    34bc:	06020000 	streq	r0, [r2], -r0
    34c0:	00424447 	subeq	r4, r2, r7, asr #8
    34c4:	0f190503 	svceq	0x00190503
    34c8:	00040000 	andeq	r0, r4, r0
    34cc:	646d6307 	strbtvs	r6, [sp], #-775	; 0x307
    34d0:	11010800 	tstne	r1, r0, lsl #16
    34d4:	000000a3 	andeq	r0, r0, r3, lsr #1
    34d8:	00000008 	andeq	r0, r0, r8
    34dc:	a3120100 	tstge	r2, #0
    34e0:	02000000 	andeq	r0, r0, #0
    34e4:	a2080023 	andge	r0, r8, #35	; 0x23
    34e8:	0100000e 	tsteq	r0, lr
    34ec:	00004f13 	andeq	r4, r0, r3, lsl pc
    34f0:	04230200 	strteq	r0, [r3], #-512	; 0x200
    34f4:	48040900 	stmdami	r4, {r8, fp}
    34f8:	0a000000 	beq	3500 <LOADER_PHYS_START-0x3fffcb00>
    34fc:	00000ca8 	andeq	r0, r0, r8, lsr #25
    3500:	4f012201 	svcmi	0x00012201
    3504:	01000000 	mrseq	r0, (UNDEF: 0)
    3508:	000000e0 	andeq	r0, r0, r0, ror #1
    350c:	0000000b 	andeq	r0, r0, fp
    3510:	a3220100 	teqge	r2, #0
    3514:	0c000000 	stceq	0, cr0, [r0], {-0}
    3518:	24010069 	strcs	r0, [r1], #-105	; 0x69
    351c:	00000025 	andeq	r0, r0, r5, lsr #32
    3520:	9a010e0d 	bls	46d5c <LOADER_PHYS_START-0x3ffb92a4>
    3524:	01000006 	tsteq	r0, r6
    3528:	00002527 	andeq	r2, r0, r7, lsr #10
    352c:	000f0100 	andeq	r0, pc, r0, lsl #2
    3530:	9b0a0000 	blls	283538 <LOADER_PHYS_START-0x3fd7cac8>
    3534:	0100000c 	tsteq	r0, ip
    3538:	004f0138 	subeq	r0, pc, r8, lsr r1	; <UNPREDICTABLE>
    353c:	08010000 	stmdaeq	r1, {}	; <UNPREDICTABLE>
    3540:	0b000001 	bleq	354c <LOADER_PHYS_START-0x3fffcab4>
    3544:	00000000 	andeq	r0, r0, r0
    3548:	00a33801 	adceq	r3, r3, r1, lsl #16
    354c:	700c0000 	andvc	r0, ip, r0
    3550:	0100736f 	tsteq	r0, pc, ror #6
    3554:	0000253a 	andeq	r2, r0, sl, lsr r5
    3558:	58100000 	ldmdapl	r0, {}	; <UNPREDICTABLE>
    355c:	0100000c 	tsteq	r0, ip
    3560:	1101012f 	tstne	r1, pc, lsr #2
    3564:	000c8e01 	andeq	r8, ip, r1, lsl #28
    3568:	01450100 	mrseq	r0, (UNDEF: 85)
    356c:	400019f4 	strdmi	r1, [r0], -r4
    3570:	40001ac0 	andmi	r1, r0, r0, asr #21
    3574:	000022ac 	andeq	r2, r0, ip, lsr #5
    3578:	000001a0 	andeq	r0, r0, r0, lsr #3
    357c:	646d6312 	strbtvs	r6, [sp], #-786	; 0x312
    3580:	a3450100 	movtge	r0, #20736	; 0x5100
    3584:	cc000000 	stcgt	0, cr0, [r0], {-0}
    3588:	13000022 	movwne	r0, #34	; 0x22
    358c:	000000e0 	andeq	r0, r0, r0, ror #1
    3590:	400019fc 	strdmi	r1, [r0], -ip
    3594:	000006b8 			; <UNDEFINED> instruction: 0x000006b8
    3598:	01904701 	orrseq	r4, r0, r1, lsl #14
    359c:	f1140000 			; <UNDEFINED> instruction: 0xf1140000
    35a0:	df000000 	svcle	0x00000000
    35a4:	15000022 	strne	r0, [r0, #-34]	; 0x22
    35a8:	000006d8 	ldrdeq	r0, [r0], -r8
    35ac:	0000fc16 	andeq	pc, r0, r6, lsl ip	; <UNPREDICTABLE>
    35b0:	0022f200 	eoreq	pc, r2, r0, lsl #4
    35b4:	00a91700 	adceq	r1, r9, r0, lsl #14
    35b8:	1a200000 	bne	8035c0 <LOADER_PHYS_START-0x3f7fca40>
    35bc:	06f84000 	ldrbteq	r4, [r8], r0
    35c0:	3f010000 	svccc	0x00010000
    35c4:	0000ba18 	andeq	fp, r0, r8, lsl sl
    35c8:	15540100 	ldrbne	r0, [r4, #-256]	; 0x100
    35cc:	00000718 	andeq	r0, r0, r8, lsl r7
    35d0:	0000c516 	andeq	ip, r0, r6, lsl r5
    35d4:	00230600 	eoreq	r0, r3, r0, lsl #12
    35d8:	07381900 	ldreq	r1, [r8, -r0, lsl #18]!
    35dc:	00000000 	andeq	r0, r0, r0
    35e0:	081a0000 	ldmdaeq	sl, {}	; <UNPREDICTABLE>
    35e4:	80000001 	andhi	r0, r0, r1
    35e8:	5840001a 	stmdapl	r0, {r1, r3, r4}^
    35ec:	01000007 	tsteq	r0, r7
    35f0:	7a1b0054 	bvc	6c3748 <LOADER_PHYS_START-0x3f93c8b8>
    35f4:	b0000000 	andlt	r0, r0, r0
    35f8:	1c000001 	stcne	0, cr0, [r0], {1}
    35fc:	0000002c 	andeq	r0, r0, ip, lsr #32
    3600:	321d0003 	andscc	r0, sp, #3
    3604:	0100000d 	tsteq	r0, sp
    3608:	0001c117 	andeq	ip, r1, r7, lsl r1
    360c:	0c030500 	cfstr32eq	mvfx0, [r3], {-0}
    3610:	1e400030 	mcrne	0, 2, r0, cr0, cr0, {1}
    3614:	000001a0 	andeq	r0, r0, r0, lsr #3
    3618:	0007a300 	andeq	sl, r7, r0, lsl #6
    361c:	4a000200 	bmi	3e24 <LOADER_PHYS_START-0x3fffc1dc>
    3620:	04000015 	streq	r0, [r0], #-21
    3624:	00004c01 	andeq	r4, r0, r1, lsl #24
    3628:	0f260100 	svceq	0x00260100
    362c:	00580000 	subseq	r0, r8, r0
    3630:	1ac00000 	bne	ff003638 <restore_guest_end+0x8e903638>
    3634:	1f104000 	svcne	0x00104000
    3638:	0f554000 	svceq	0x00554000
    363c:	04020000 	streq	r0, [r2], #-0
    3640:	746e6905 	strbtvc	r6, [lr], #-2309	; 0x905
    3644:	020a0300 	andeq	r0, sl, #0
    3648:	05030000 	streq	r0, [r3, #-0]
    364c:	00000037 	andeq	r0, r0, r7, lsr r0
    3650:	1b070404 	blne	1c4668 <LOADER_PHYS_START-0x3fe3b998>
    3654:	04000000 	streq	r0, [r0], #-0
    3658:	00c70702 	sbceq	r0, r7, r2, lsl #14
    365c:	08040000 	stmdaeq	r4, {}	; <UNPREDICTABLE>
    3660:	00001107 	andeq	r1, r0, r7, lsl #2
    3664:	08010400 	stmdaeq	r1, {sl}
    3668:	00000028 	andeq	r0, r0, r8, lsr #32
    366c:	31080104 	tstcc	r8, r4, lsl #2
    3670:	05000000 	streq	r0, [r0, #-0]
    3674:	00000e97 	muleq	r0, r7, lr
    3678:	c12b0104 	teqgt	fp, r4, lsl #2
    367c:	06000000 	streq	r0, [r0], -r0
    3680:	00000cfc 	strdeq	r0, [r0], -ip
    3684:	0d4e0600 	stcleq	6, cr0, [lr, #-0]
    3688:	06010000 	streq	r0, [r1], -r0
    368c:	00000faf 	andeq	r0, r0, pc, lsr #31
    3690:	0e340602 	cfmsuba32eq	mvax0, mvax0, mvfx4, mvfx2
    3694:	06030000 	streq	r0, [r3], -r0
    3698:	0000100b 	andeq	r1, r0, fp
    369c:	0e040604 	cfmadd32eq	mvax0, mvfx0, mvfx4, mvfx4
    36a0:	06050000 	streq	r0, [r5], -r0
    36a4:	00000cec 	andeq	r0, r0, ip, ror #25
    36a8:	0ef70606 	cdpeq	6, 15, cr0, cr7, cr6, {0}
    36ac:	06070000 	streq	r0, [r7], -r0
    36b0:	00000d76 	andeq	r0, r0, r6, ror sp
    36b4:	0fe00608 	svceq	0x00e00608
    36b8:	06090000 	streq	r0, [r9], -r0
    36bc:	00000f6d 	andeq	r0, r0, sp, ror #30
    36c0:	0eb5060a 	cdpeq	6, 11, cr0, cr5, cr10, {0}
    36c4:	060b0000 	streq	r0, [fp], -r0
    36c8:	00000e20 	andeq	r0, r0, r0, lsr #28
    36cc:	0dcc060c 	stcleq	6, cr0, [ip, #48]	; 0x30
    36d0:	060d0000 	streq	r0, [sp], -r0
    36d4:	00000f0e 	andeq	r0, r0, lr, lsl #30
    36d8:	4305000e 	movwmi	r0, #20494	; 0x500e
    36dc:	0400000d 	streq	r0, [r0], #-13
    36e0:	00da3d01 	sbcseq	r3, sl, r1, lsl #26
    36e4:	b9060000 	stmdblt	r6, {}	; <UNPREDICTABLE>
    36e8:	0000000d 	andeq	r0, r0, sp
    36ec:	000ee606 	andeq	lr, lr, r6, lsl #12
    36f0:	07007f00 	streq	r7, [r0, -r0, lsl #30]
    36f4:	00000e58 	andeq	r0, r0, r8, asr lr
    36f8:	03420108 	movteq	r0, #8456	; 0x2108
    36fc:	08000001 	stmdaeq	r0, {r0}
    3700:	00000000 	andeq	r0, r0, r0
    3704:	01034301 	tsteq	r3, r1, lsl #6
    3708:	23020000 	movwcs	r0, #8192	; 0x2000
    370c:	0ea20800 	cdpeq	8, 10, cr0, cr2, cr0, {0}
    3710:	44010000 	strmi	r0, [r1], #-0
    3714:	0000005a 	andeq	r0, r0, sl, asr r0
    3718:	00042302 	andeq	r2, r4, r2, lsl #6
    371c:	00530409 	subseq	r0, r3, r9, lsl #8
    3720:	ec070000 	stc	0, cr0, [r7], {-0}
    3724:	0200000d 	andeq	r0, r0, #13
    3728:	01327b01 	teqeq	r2, r1, lsl #22
    372c:	df080000 	svcle	0x00080000
    3730:	0100000c 	tsteq	r0, ip
    3734:	00004c7c 	andeq	r4, r0, ip, ror ip
    3738:	00230200 	eoreq	r0, r3, r0, lsl #4
    373c:	000eda08 	andeq	sp, lr, r8, lsl #20
    3740:	4c7d0100 	ldfmie	f0, [sp], #-0
    3744:	02000000 	andeq	r0, r0, #0
    3748:	0a000123 	beq	3bdc <LOADER_PHYS_START-0x3fffc424>
    374c:	00000e8c 	andeq	r0, r0, ip, lsl #29
    3750:	5a01d701 	bpl	7935c <LOADER_PHYS_START-0x3ff86ca4>
    3754:	01000000 	mrseq	r0, (UNDEF: 0)
    3758:	00000169 	andeq	r0, r0, r9, ror #2
    375c:	0000000b 	andeq	r0, r0, fp
    3760:	03d70100 	bicseq	r0, r7, #0
    3764:	0c000001 	stceq	0, cr0, [r0], {1}
    3768:	d9010069 	stmdble	r1, {r0, r3, r5, r6}
    376c:	00000025 	andeq	r0, r0, r5, lsr #32
    3770:	9a010e0d 	bls	46fac <LOADER_PHYS_START-0x3ffb9054>
    3774:	01000006 	tsteq	r0, r6
    3778:	000025dc 	ldrdeq	r2, [r0], -ip
    377c:	000f0100 	andeq	r0, pc, r0, lsl #2
    3780:	dc100000 	ldcle	0, cr0, [r0], {-0}
    3784:	0100000d 	tsteq	r0, sp
    3788:	11010159 	tstne	r1, r9, asr r1
    378c:	00000fbf 			; <UNDEFINED> instruction: 0x00000fbf
    3790:	01018b01 	tsteq	r1, r1, lsl #22
    3794:	000001a0 	andeq	r0, r0, r0, lsr #3
    3798:	000f210b 	andeq	r2, pc, fp, lsl #2
    379c:	a08b0100 	addge	r0, fp, r0, lsl #2
    37a0:	0b000001 	bleq	37ac <LOADER_PHYS_START-0x3fffc854>
    37a4:	00000f8a 	andeq	r0, r0, sl, lsl #31
    37a8:	00258b01 	eoreq	r8, r5, r1, lsl #22
    37ac:	760c0000 	strvc	r0, [ip], -r0
    37b0:	8d010061 	stchi	0, cr0, [r1, #-388]	; 0xfffffe7c
    37b4:	0000002c 	andeq	r0, r0, ip, lsr #32
    37b8:	03040900 	movweq	r0, #18688	; 0x4900
    37bc:	11000001 	tstne	r0, r1
    37c0:	00001019 	andeq	r1, r0, r9, lsl r0
    37c4:	01018201 	tsteq	r1, r1, lsl #4
    37c8:	000001d4 	ldrdeq	r0, [r0], -r4
    37cc:	000f210b 	andeq	r2, pc, fp, lsl #2
    37d0:	a0820100 	addge	r0, r2, r0, lsl #2
    37d4:	0b000001 	bleq	37e0 <LOADER_PHYS_START-0x3fffc820>
    37d8:	00000f8a 	andeq	r0, r0, sl, lsl #31
    37dc:	00258201 	eoreq	r8, r5, r1, lsl #4
    37e0:	760c0000 	strvc	r0, [ip], -r0
    37e4:	84010061 	strhi	r0, [r1], #-97	; 0x61
    37e8:	0000002c 	andeq	r0, r0, ip, lsr #32
    37ec:	0d0b1100 	stfeqs	f1, [fp, #-0]
    37f0:	94010000 	strls	r0, [r1], #-0
    37f4:	02020101 	andeq	r0, r2, #1073741824	; 0x40000000
    37f8:	210b0000 	mrscs	r0, (UNDEF: 11)
    37fc:	0100000f 	tsteq	r0, pc
    3800:	0001a094 	muleq	r1, r4, r0
    3804:	0f8a0b00 	svceq	0x008a0b00
    3808:	94010000 	strls	r0, [r1], #-0
    380c:	00000025 	andeq	r0, r0, r5, lsr #32
    3810:	0061760c 	rsbeq	r7, r1, ip, lsl #12
    3814:	002c9601 	eoreq	r9, ip, r1, lsl #12
    3818:	10000000 	andne	r0, r0, r0
    381c:	00000f8f 	andeq	r0, r0, pc, lsl #31
    3820:	0101ab01 	tsteq	r1, r1, lsl #22
    3824:	000d5f11 	andeq	r5, sp, r1, lsl pc
    3828:	019c0100 	orrseq	r0, ip, r0, lsl #2
    382c:	00023901 	andeq	r3, r2, r1, lsl #18
    3830:	0f210b00 	svceq	0x00210b00
    3834:	9c010000 	stcls	0, cr0, [r1], {-0}
    3838:	000001a0 	andeq	r0, r0, r0, lsr #3
    383c:	000f8a0b 	andeq	r8, pc, fp, lsl #20
    3840:	259c0100 	ldrcs	r0, [ip, #256]	; 0x100
    3844:	0c000000 	stceq	0, cr0, [r0], {-0}
    3848:	01006176 	tsteq	r0, r6, ror r1
    384c:	00002c9e 	muleq	r0, lr, ip
    3850:	ca100000 	bgt	403858 <LOADER_PHYS_START-0x3fbfc7a8>
    3854:	0100000c 	tsteq	r0, ip
    3858:	100101b9 			; <UNDEFINED> instruction: 0x100101b9
    385c:	00000da5 	andeq	r0, r0, r5, lsr #27
    3860:	0101a501 	tsteq	r1, r1, lsl #10
    3864:	0d910112 	ldfeqs	f0, [r1, #72]	; 0x48
    3868:	be010000 	cdplt	0, 0, cr0, cr1, cr0, {0}
    386c:	45130101 	ldrmi	r0, [r3, #-257]	; 0x101
    3870:	0100000e 	tsteq	r0, lr
    3874:	00c1016a 	sbceq	r0, r1, sl, ror #2
    3878:	1ac00000 	bne	ff003880 <restore_guest_end+0x8e903880>
    387c:	1b304000 	blne	c13884 <LOADER_PHYS_START-0x3f3ec77c>
    3880:	23254000 	teqcs	r5, #0
    3884:	02cd0000 	sbceq	r0, sp, #0
    3888:	21140000 	tstcs	r4, r0
    388c:	0100000f 	tsteq	r0, pc
    3890:	0001a06a 	andeq	sl, r1, sl, rrx
    3894:	00234500 	eoreq	r4, r3, r0, lsl #10
    3898:	0f8a1400 	svceq	0x008a1400
    389c:	6a010000 	bvs	438a4 <LOADER_PHYS_START-0x3ffbc75c>
    38a0:	00000025 	andeq	r0, r0, r5, lsr #32
    38a4:	00002358 	andeq	r2, r0, r8, asr r3
    38a8:	00617615 	rsbeq	r7, r1, r5, lsl r6
    38ac:	02cd6a01 	sbceq	r6, sp, #4096	; 0x1000
    38b0:	236b0000 	cmncs	fp, #0
    38b4:	69160000 	ldmdbvs	r6, {}	; <UNPREDICTABLE>
    38b8:	256c0100 	strbcs	r0, [ip, #-256]!	; 0x100
    38bc:	89000000 	stmdbhi	r0, {}	; <UNPREDICTABLE>
    38c0:	17000023 	strne	r0, [r0, -r3, lsr #32]
    38c4:	00063401 	andeq	r3, r6, r1, lsl #8
    38c8:	25730100 	ldrbcs	r0, [r3, #-256]!	; 0x100
    38cc:	01000000 	mrseq	r0, (UNDEF: 0)
    38d0:	000002bd 			; <UNDEFINED> instruction: 0x000002bd
    38d4:	6918000f 	ldmdbvs	r8, {r0, r1, r2, r3}
    38d8:	1c000001 	stcne	0, cr0, [r0], {1}
    38dc:	2440001b 	strbcs	r0, [r0], #-27
    38e0:	0140001b 	cmpeq	r0, fp, lsl r0
    38e4:	04090075 	streq	r0, [r9], #-117	; 0x75
    38e8:	0000002c 	andeq	r0, r0, ip, lsr #32
    38ec:	0fce0119 	svceq	0x00ce0119
    38f0:	af010000 	svcge	0x00010000
    38f4:	001b3001 	andseq	r3, fp, r1
    38f8:	001b4440 	andseq	r4, fp, r0, asr #8
    38fc:	007d0240 	rsbseq	r0, sp, r0, asr #4
    3900:	000002f8 	strdeq	r0, [r0], -r8
    3904:	0061761a 	rsbeq	r7, r1, sl, lsl r6
    3908:	002caf01 	eoreq	sl, ip, r1, lsl #30
    390c:	50010000 	andpl	r0, r1, r0
    3910:	9d011b00 	vstrls	d1, [r1, #-0]
    3914:	0100000f 	tsteq	r0, pc
    3918:	1b4401b4 	blne	1103ff0 <LOADER_PHYS_START-0x3eefc010>
    391c:	1b684000 	blne	1a13924 <LOADER_PHYS_START-0x3e5ec6dc>
    3920:	23a84000 			; <UNDEFINED> instruction: 0x23a84000
    3924:	4b1c0000 	blmi	70392c <LOADER_PHYS_START-0x3f8fc6d4>
    3928:	68000002 	stmdavs	r0, {r1}
    392c:	7c40001b 	mcrrvc	0, 1, r0, r0, cr11
    3930:	0240001b 	subeq	r0, r0, #27
    3934:	540a007d 	strpl	r0, [sl], #-125	; 0x7d
    3938:	0100000e 	tsteq	r0, lr
    393c:	005a01e2 	subseq	r0, sl, r2, ror #3
    3940:	71010000 	mrsvc	r0, (UNDEF: 1)
    3944:	0b000003 	bleq	3958 <LOADER_PHYS_START-0x3fffc6a8>
    3948:	00000000 	andeq	r0, r0, r0
    394c:	0103e301 	tsteq	r3, r1, lsl #6
    3950:	210b0000 	mrscs	r0, (UNDEF: 11)
    3954:	0100000f 	tsteq	r0, pc
    3958:	0001a0e3 	andeq	sl, r1, r3, ror #1
    395c:	0f880b00 	svceq	0x00880b00
    3960:	e3010000 	movw	r0, #4096	; 0x1000
    3964:	00000371 	andeq	r0, r0, r1, ror r3
    3968:	736f700c 	cmnvc	pc, #12
    396c:	25e50100 	strbcs	r0, [r5, #256]!	; 0x100
    3970:	1d000000 	stcne	0, cr0, [r0, #-0]
    3974:	00000f8a 	andeq	r0, r0, sl, lsl #31
    3978:	0025e501 	eoreq	lr, r5, r1, lsl #10
    397c:	630c0000 	movwvs	r0, #49152	; 0xc000
    3980:	0100746e 	tsteq	r0, lr, ror #8
    3984:	000025e5 	andeq	r2, r0, r5, ror #11
    3988:	04090000 	streq	r0, [r9], #-0
    398c:	00000025 	andeq	r0, r0, r5, lsr #32
    3990:	000e7511 	andeq	r7, lr, r1, lsl r5
    3994:	01c30100 	biceq	r0, r3, r0, lsl #2
    3998:	0003db01 	andeq	sp, r3, r1, lsl #22
    399c:	0f210b00 	svceq	0x00210b00
    39a0:	c3010000 	movwgt	r0, #4096	; 0x1000
    39a4:	000001a0 	andeq	r0, r0, r0, lsr #3
    39a8:	000f8a0b 	andeq	r8, pc, fp, lsl #20
    39ac:	25c30100 	strbcs	r0, [r3, #256]	; 0x100
    39b0:	0c000000 	stceq	0, cr0, [r0], {-0}
    39b4:	01006176 	tsteq	r0, r6, ror r1
    39b8:	00002cc5 	andeq	r2, r0, r5, asr #25
    39bc:	6e630c00 	cdpvs	12, 6, cr0, cr3, cr0, {0}
    39c0:	c5010074 	strgt	r0, [r1, #-116]	; 0x74
    39c4:	0000002c 	andeq	r0, r0, ip, lsr #32
    39c8:	0100690c 	tsteq	r0, ip, lsl #18
    39cc:	00002cc5 	andeq	r2, r0, r5, asr #25
    39d0:	81011700 	tsthi	r1, r0, lsl #14
    39d4:	01000006 	tsteq	r0, r6
    39d8:	000025ca 	andeq	r2, r0, sl, asr #11
    39dc:	03cb0100 	biceq	r0, fp, #0
    39e0:	000f0000 	andeq	r0, pc, r0
    39e4:	0634010e 	ldrteq	r0, [r4], -lr, lsl #2
    39e8:	73010000 	movwvc	r0, #4096	; 0x1000
    39ec:	00000025 	andeq	r0, r0, r5, lsr #32
    39f0:	00000f01 	andeq	r0, r0, r1, lsl #30
    39f4:	0e58011e 	mrceq	1, 2, r0, cr8, cr14, {0}
    39f8:	fe010000 	cdp2	0, 0, cr0, cr1, cr0, {0}
    39fc:	00002501 	andeq	r2, r0, r1, lsl #10
    3a00:	001b7c00 	andseq	r7, fp, r0, lsl #24
    3a04:	001f1040 	andseq	r1, pc, r0, asr #32
    3a08:	0023c840 	eoreq	ip, r3, r0, asr #16
    3a0c:	00064d00 	andeq	r4, r6, r0, lsl #26
    3a10:	0f7f1f00 	svceq	0x007f1f00
    3a14:	00010000 	andeq	r0, r1, r0
    3a18:	00064d01 	andeq	r4, r6, r1, lsl #26
    3a1c:	ffd00000 			; <UNDEFINED> instruction: 0xffd00000
    3a20:	0000203f 	andeq	r2, r0, pc, lsr r0
    3a24:	01010000 	mrseq	r0, (UNDEF: 1)
    3a28:	00065801 	andeq	r5, r6, r1, lsl #16
    3a2c:	dc910300 	ldcle	3, cr0, [r1], {0}
    3a30:	0f21207c 	svceq	0x0021207c
    3a34:	02010000 	andeq	r0, r1, #0
    3a38:	00066801 	andeq	r6, r6, r1, lsl #16
    3a3c:	dc910300 	ldcle	3, cr0, [r1], {0}
    3a40:	0f8a217e 	svceq	0x008a217e
    3a44:	03010000 	movweq	r0, #4096	; 0x1000
    3a48:	00002501 	andeq	r2, r0, r1, lsl #10
    3a4c:	0023f500 	eoreq	pc, r3, r0, lsl #10
    3a50:	0d8b2200 	sfmeq	f2, 4, [fp]
    3a54:	06010000 	streq	r0, [r1], -r0
    3a58:	00067801 	andeq	r7, r6, r1, lsl #16
    3a5c:	031d2300 	tsteq	sp, #0
    3a60:	1bb40000 	blne	fed03a68 <restore_guest_end+0x8e603a68>
    3a64:	07704000 	ldrbeq	r4, [r0, -r0]!
    3a68:	0e010000 	cdpeq	0, 0, cr0, cr1, cr0, {0}
    3a6c:	0004c601 	andeq	ip, r4, r1, lsl #12
    3a70:	03442400 	movteq	r2, #17408	; 0x4400
    3a74:	f2060000 	vhadd.s8	d0, d6, d0
    3a78:	00003a41 	andeq	r3, r0, r1, asr #20
    3a7c:	03392400 	teqeq	r9, #0
    3a80:	91040000 	mrsls	r0, (UNDEF: 4)
    3a84:	259f7ed4 	ldrcs	r7, [pc, #3796]	; 4960 <LOADER_PHYS_START-0x3fffb6a0>
    3a88:	0000032e 	andeq	r0, r0, lr, lsr #6
    3a8c:	00002408 	andeq	r2, r0, r8, lsl #8
    3a90:	00078826 	andeq	r8, r7, r6, lsr #16
    3a94:	034f2700 	movteq	r2, #63232	; 0xf700
    3a98:	24500000 	ldrbcs	r0, [r0], #-0
    3a9c:	5a270000 	bpl	9c3aa4 <LOADER_PHYS_START-0x3f63c55c>
    3aa0:	7b000003 	blvc	3ab4 <LOADER_PHYS_START-0x3fffc54c>
    3aa4:	27000024 	strcs	r0, [r0, -r4, lsr #32]
    3aa8:	00000365 	andeq	r0, r0, r5, ror #6
    3aac:	000024a6 	andeq	r2, r0, r6, lsr #9
    3ab0:	00013228 	andeq	r3, r1, r8, lsr #4
    3ab4:	001c8400 	andseq	r8, ip, r0, lsl #8
    3ab8:	0007a040 	andeq	sl, r7, r0, asr #32
    3abc:	25fa0100 	ldrbcs	r0, [sl, #256]!	; 0x100
    3ac0:	00000143 	andeq	r0, r0, r3, asr #2
    3ac4:	000024d1 	ldrdeq	r2, [r0], -r1
    3ac8:	0007b826 	andeq	fp, r7, r6, lsr #16
    3acc:	014e2700 	cmpeq	lr, r0, lsl #14
    3ad0:	24f10000 	ldrbtcs	r0, [r1], #0
    3ad4:	d0290000 	eorle	r0, r9, r0
    3ad8:	00000007 	andeq	r0, r0, r7
    3adc:	23000000 	movwcs	r0, #0
    3ae0:	00000377 	andeq	r0, r0, r7, ror r3
    3ae4:	40001ca8 	andmi	r1, r0, r8, lsr #25
    3ae8:	000007f0 	strdeq	r0, [r0], -r0	; <UNPREDICTABLE>
    3aec:	1d012801 	stcne	8, cr2, [r1, #-4]
    3af0:	25000005 	strcs	r0, [r0, #-5]
    3af4:	0000038f 	andeq	r0, r0, pc, lsl #7
    3af8:	00002510 	andeq	r2, r0, r0, lsl r5
    3afc:	00038425 	andeq	r8, r3, r5, lsr #8
    3b00:	00252300 	eoreq	r2, r5, r0, lsl #6
    3b04:	08082600 	stmdaeq	r8, {r9, sl, sp}
    3b08:	9a270000 	bls	9c3b10 <LOADER_PHYS_START-0x3f63c4f0>
    3b0c:	39000003 	stmdbcc	r0, {r0, r1}
    3b10:	27000025 	strcs	r0, [r0, -r5, lsr #32]
    3b14:	000003a4 	andeq	r0, r0, r4, lsr #7
    3b18:	00002557 	andeq	r2, r0, r7, asr r5
    3b1c:	0003af27 	andeq	sl, r3, r7, lsr #30
    3b20:	00257500 	eoreq	r7, r5, r0, lsl #10
    3b24:	01691800 	cmneq	r9, r0, lsl #16
    3b28:	1ca80000 	stcne	0, cr0, [r8]
    3b2c:	1cb44000 	ldcne	0, cr4, [r4]
    3b30:	d0014000 	andle	r4, r1, r0
    3b34:	4b2a0000 	blmi	a83b3c <LOADER_PHYS_START-0x3f57c4c4>
    3b38:	10000002 	andne	r0, r0, r2
    3b3c:	1c40001d 	mcrrne	0, 1, r0, r0, cr13
    3b40:	0140001d 	cmpeq	r0, sp, lsl r0
    3b44:	422a0134 	eormi	r0, sl, #13
    3b48:	1c000002 	stcne	0, cr0, [r0], {2}
    3b4c:	3840001d 	stmdacc	r0, {r0, r2, r3, r4}^
    3b50:	0140001d 	cmpeq	r0, sp, lsl r0
    3b54:	392a012e 	stmdbcc	sl!, {r1, r2, r3, r5, r8}
    3b58:	cc000002 	stcgt	0, cr0, [r0], {2}
    3b5c:	e040001d 	sub	r0, r0, sp, lsl r0
    3b60:	0140001d 	cmpeq	r0, sp, lsl r0
    3b64:	0b2b0125 	bleq	ac4000 <LOADER_PHYS_START-0x3f53c000>
    3b68:	e0000002 	and	r0, r0, r2
    3b6c:	1440001d 	strbne	r0, [r0], #-29
    3b70:	0140001e 	cmpeq	r0, lr, lsl r0
    3b74:	05860122 	streq	r0, [r6, #290]	; 0x122
    3b78:	23250000 	teqcs	r5, #0
    3b7c:	94000002 	strls	r0, [r0], #-2
    3b80:	25000025 	strcs	r0, [r0, #-37]	; 0x25
    3b84:	00000218 	andeq	r0, r0, r8, lsl r2
    3b88:	000025a7 	andeq	r2, r0, r7, lsr #11
    3b8c:	001de02c 	andseq	lr, sp, ip, lsr #32
    3b90:	001e1440 	andseq	r1, lr, r0, asr #8
    3b94:	022e2d40 	eoreq	r2, lr, #4096	; 0x1000
    3b98:	91020000 	mrsls	r0, (UNDEF: 2)
    3b9c:	2e000054 	mcrcs	0, 0, r0, cr0, cr4, {2}
    3ba0:	00000239 	andeq	r0, r0, r9, lsr r2
    3ba4:	40001e14 	andmi	r1, r0, r4, lsl lr
    3ba8:	00000820 	andeq	r0, r0, r0, lsr #16
    3bac:	2a013101 	bcs	4ffb8 <LOADER_PHYS_START-0x3ffb0048>
    3bb0:	00000202 	andeq	r0, r0, r2, lsl #4
    3bb4:	40001e30 	andmi	r1, r0, r0, lsr lr
    3bb8:	40001e3c 	andmi	r1, r0, ip, lsr lr
    3bbc:	2b011c01 	blcs	4abc8 <LOADER_PHYS_START-0x3ffb5438>
    3bc0:	000001d4 	ldrdeq	r0, [r0], -r4
    3bc4:	40001e3c 	andmi	r1, r0, ip, lsr lr
    3bc8:	40001e70 	andmi	r1, r0, r0, ror lr
    3bcc:	df011901 	svcle	0x00011901
    3bd0:	25000005 	strcs	r0, [r0, #-5]
    3bd4:	000001ec 	andeq	r0, r0, ip, ror #3
    3bd8:	000025bd 			; <UNDEFINED> instruction: 0x000025bd
    3bdc:	0001e125 	andeq	lr, r1, r5, lsr #2
    3be0:	0025d000 	eoreq	sp, r5, r0
    3be4:	1e3c2c00 	cdpne	12, 3, cr2, cr12, cr0, {0}
    3be8:	1e704000 	cdpne	0, 7, cr4, cr0, cr0, {0}
    3bec:	f72d4000 			; <UNDEFINED> instruction: 0xf72d4000
    3bf0:	02000001 	andeq	r0, r0, #1
    3bf4:	00005491 	muleq	r0, r1, r4
    3bf8:	0001a62b 	andeq	sl, r1, fp, lsr #12
    3bfc:	001e7c00 	andseq	r7, lr, r0, lsl #24
    3c00:	001eb040 	andseq	fp, lr, r0, asr #32
    3c04:	01130140 	tsteq	r3, r0, asr #2
    3c08:	00000618 	andeq	r0, r0, r8, lsl r6
    3c0c:	0001be25 	andeq	fp, r1, r5, lsr #28
    3c10:	0025e600 	eoreq	lr, r5, r0, lsl #12
    3c14:	01b32500 			; <UNDEFINED> instruction: 0x01b32500
    3c18:	25f90000 	ldrbcs	r0, [r9, #0]!
    3c1c:	7c2c0000 	stcvc	0, cr0, [ip], #-0
    3c20:	b040001e 	sublt	r0, r0, lr, lsl r0
    3c24:	2d40001e 	stclcs	0, cr0, [r0, #-120]	; 0xffffff88
    3c28:	000001c9 	andeq	r0, r0, r9, asr #3
    3c2c:	00549102 	subseq	r9, r4, r2, lsl #2
    3c30:	01722f00 	cmneq	r2, r0, lsl #30
    3c34:	1eb00000 	cdpne	0, 11, cr0, cr0, cr0, {0}
    3c38:	1f104000 	svcne	0x00104000
    3c3c:	10014000 	andne	r4, r1, r0
    3c40:	018a2401 	orreq	r2, sl, r1, lsl #8
    3c44:	56010000 	strpl	r0, [r1], -r0
    3c48:	00017f24 	andeq	r7, r1, r4, lsr #30
    3c4c:	d4910400 	ldrle	r0, [r1], #1024	; 0x400
    3c50:	b02c9f7e 	eorlt	r9, ip, lr, ror pc
    3c54:	1040001e 	subne	r0, r0, lr, lsl r0
    3c58:	2d40001f 	stclcs	0, cr0, [r0, #-124]	; 0xffffff84
    3c5c:	00000195 	muleq	r0, r5, r1
    3c60:	00549102 	subseq	r9, r4, r2, lsl #2
    3c64:	04090000 	streq	r0, [r9], #-0
    3c68:	00000653 	andeq	r0, r0, r3, asr r6
    3c6c:	00003730 	andeq	r3, r0, r0, lsr r7
    3c70:	00533100 	subseq	r3, r3, r0, lsl #2
    3c74:	06680000 	strbteq	r0, [r8], -r0
    3c78:	37320000 	ldrcc	r0, [r2, -r0]!
    3c7c:	ff000000 			; <UNDEFINED> instruction: 0xff000000
    3c80:	01033100 	mrseq	r3, (UNDEF: 19)
    3c84:	06780000 	ldrbteq	r0, [r8], -r0
    3c88:	37320000 	ldrcc	r0, [r2, -r0]!
    3c8c:	1f000000 	svcne	0x00000000
    3c90:	09040900 	stmdbeq	r4, {r8, fp}
    3c94:	31000001 	tstcc	r0, r1
    3c98:	000000da 	ldrdeq	r0, [r0], -sl
    3c9c:	0000068e 	andeq	r0, r0, lr, lsl #13
    3ca0:	00003732 	andeq	r3, r0, r2, lsr r7
    3ca4:	33000d00 	movwcc	r0, #3328	; 0xd00
    3ca8:	00000d27 	andeq	r0, r0, r7, lsr #26
    3cac:	069f4801 	ldreq	r4, [pc], r1, lsl #16
    3cb0:	03050000 	movweq	r0, #20480	; 0x5000
    3cb4:	4000302c 	andmi	r3, r0, ip, lsr #32
    3cb8:	00067e34 	andeq	r7, r6, r4, lsr lr
    3cbc:	0ff73500 	svceq	0x00f73500
    3cc0:	5b020000 	blpl	83cc8 <LOADER_PHYS_START-0x3ff7c338>
    3cc4:	0000002c 	andeq	r0, r0, ip, lsr #32
    3cc8:	7f360101 	svcvc	0x00360101
    3ccc:	0100000f 	tsteq	r0, pc
    3cd0:	0006c309 	andeq	ip, r6, r9, lsl #6
    3cd4:	03050100 	movweq	r0, #20736	; 0x5100
    3cd8:	400039bc 			; <UNDEFINED> instruction: 0x400039bc
    3cdc:	06c90409 	strbeq	r0, [r9], r9, lsl #8
    3ce0:	2c300000 	ldccs	0, cr0, [r0], #-0
    3ce4:	36000000 	strcc	r0, [r0], -r0
    3ce8:	00000d1c 	andeq	r0, r0, ip, lsl sp
    3cec:	06c30b01 	strbeq	r0, [r3], r1, lsl #22
    3cf0:	05010000 	streq	r0, [r1, #-0]
    3cf4:	0039c803 	eorseq	ip, r9, r3, lsl #16
    3cf8:	10413640 	subne	r3, r1, r0, asr #12
    3cfc:	0d010000 	stceq	0, cr0, [r1, #-0]
    3d00:	000006c3 	andeq	r0, r0, r3, asr #13
    3d04:	cc030501 	cfstr32gt	mvfx0, [r3], {1}
    3d08:	36400039 			; <UNDEFINED> instruction: 0x36400039
    3d0c:	00000df9 	strdeq	r0, [r0], -r9
    3d10:	06c30f01 	strbeq	r0, [r3], r1, lsl #30
    3d14:	05010000 	streq	r0, [r1, #-0]
    3d18:	0039d003 	eorseq	sp, r9, r3
    3d1c:	10393640 	eorsne	r3, r9, r0, asr #12
    3d20:	11010000 	mrsne	r0, (UNDEF: 1)
    3d24:	000006c3 	andeq	r0, r0, r3, asr #13
    3d28:	d4030501 	strle	r0, [r3], #-1281	; 0x501
    3d2c:	36400039 			; <UNDEFINED> instruction: 0x36400039
    3d30:	00000f5c 	andeq	r0, r0, ip, asr pc
    3d34:	06c31301 	strbeq	r1, [r3], r1, lsl #6
    3d38:	05010000 	streq	r0, [r1, #-0]
    3d3c:	0039d803 	eorseq	sp, r9, r3, lsl #16
    3d40:	102a3640 	eorne	r3, sl, r0, asr #12
    3d44:	15010000 	strne	r0, [r1, #-0]
    3d48:	000006c3 	andeq	r0, r0, r3, asr #13
    3d4c:	dc030501 	cfstr32le	mvfx0, [r3], {1}
    3d50:	36400039 			; <UNDEFINED> instruction: 0x36400039
    3d54:	00000ec9 	andeq	r0, r0, r9, asr #29
    3d58:	06c31701 	strbeq	r1, [r3], r1, lsl #14
    3d5c:	05010000 	streq	r0, [r1, #-0]
    3d60:	0039e003 	eorseq	lr, r9, r3
    3d64:	0e143640 	cfmsub32eq	mvax2, mvfx3, mvfx4, mvfx0
    3d68:	19010000 	stmdbne	r1, {}	; <UNPREDICTABLE>
    3d6c:	000006c3 	andeq	r0, r0, r3, asr #13
    3d70:	c0030501 	andgt	r0, r3, r1, lsl #10
    3d74:	36400039 			; <UNDEFINED> instruction: 0x36400039
    3d78:	00000cbc 			; <UNDEFINED> instruction: 0x00000cbc
    3d7c:	06c31b01 	strbeq	r1, [r3], r1, lsl #22
    3d80:	05010000 	streq	r0, [r1, #-0]
    3d84:	0039e403 	eorseq	lr, r9, r3, lsl #8
    3d88:	0e673640 	cdpeq	6, 6, cr3, cr7, cr0, {2}
    3d8c:	1d010000 	stcne	0, cr0, [r1, #-0]
    3d90:	000006c3 	andeq	r0, r0, r3, asr #13
    3d94:	c4030501 	strgt	r0, [r3], #-1281	; 0x501
    3d98:	36400039 			; <UNDEFINED> instruction: 0x36400039
    3d9c:	00000eab 	andeq	r0, r0, fp, lsr #29
    3da0:	06c31f01 	strbeq	r1, [r3], r1, lsl #30
    3da4:	05010000 	streq	r0, [r1, #-0]
    3da8:	0039e803 	eorseq	lr, r9, r3, lsl #16
    3dac:	0d8b3640 	stceq	6, cr3, [fp, #256]	; 0x100
    3db0:	80010000 	andhi	r0, r1, r0
    3db4:	00000109 	andeq	r0, r0, r9, lsl #2
    3db8:	ec030501 	cfstr32	mvfx0, [r3], {1}
    3dbc:	00400039 	subeq	r0, r0, r9, lsr r0
    3dc0:	000009da 	ldrdeq	r0, [r0], -sl
    3dc4:	18310002 	ldmdane	r1!, {r1}
    3dc8:	01040000 	mrseq	r0, (UNDEF: 4)
    3dcc:	0000004c 	andeq	r0, r0, ip, asr #32
    3dd0:	00105601 	andseq	r5, r0, r1, lsl #12
    3dd4:	00005800 	andeq	r5, r0, r0, lsl #16
    3dd8:	001f1000 	andseq	r1, pc, r0
    3ddc:	0027c440 	eoreq	ip, r7, r0, asr #8
    3de0:	0010ca40 	andseq	ip, r0, r0, asr #20
    3de4:	05040200 	streq	r0, [r4, #-512]	; 0x200
    3de8:	00746e69 	rsbseq	r6, r4, r9, ror #28
    3dec:	00020a03 	andeq	r0, r2, r3, lsl #20
    3df0:	37050300 	strcc	r0, [r5, -r0, lsl #6]
    3df4:	04000000 	streq	r0, [r0], #-0
    3df8:	001b0704 	andseq	r0, fp, r4, lsl #14
    3dfc:	02040000 	andeq	r0, r4, #0
    3e00:	0000c707 	andeq	ip, r0, r7, lsl #14
    3e04:	07080400 	streq	r0, [r8, -r0, lsl #8]
    3e08:	00000011 	andeq	r0, r0, r1, lsl r0
    3e0c:	28080104 	stmdacs	r8, {r2, r8}
    3e10:	05000000 	streq	r0, [r0, #-0]
    3e14:	00000063 	andeq	r0, r0, r3, rrx
    3e18:	00000063 	andeq	r0, r0, r3, rrx
    3e1c:	00003706 	andeq	r3, r0, r6, lsl #14
    3e20:	04003100 	streq	r3, [r0], #-256	; 0x100
    3e24:	00310801 	eorseq	r0, r1, r1, lsl #16
    3e28:	11070000 	mrsne	r0, (UNDEF: 7)
    3e2c:	40000007 	andmi	r0, r0, r7
    3e30:	00ad4d02 	adceq	r4, sp, r2, lsl #26
    3e34:	0c080000 	stceq	0, cr0, [r8], {-0}
    3e38:	02000007 	andeq	r0, r0, #7
    3e3c:	00002c4e 	andeq	r2, r0, lr, asr #24
    3e40:	00230200 	eoreq	r0, r3, r0, lsl #4
    3e44:	00637009 	rsbeq	r7, r3, r9
    3e48:	002c4f02 	eoreq	r4, ip, r2, lsl #30
    3e4c:	23020000 	movwcs	r0, #8192	; 0x2000
    3e50:	726c0904 	rsbvc	r0, ip, #65536	; 0x10000
    3e54:	2c500200 	lfmcs	f0, 2, [r0], {-0}
    3e58:	02000000 	andeq	r0, r0, #0
    3e5c:	67090823 	strvs	r0, [r9, -r3, lsr #16]
    3e60:	02007270 	andeq	r7, r0, #7
    3e64:	0000ad51 	andeq	sl, r0, r1, asr sp
    3e68:	0c230200 	sfmeq	f0, 4, [r3], #-0
    3e6c:	002c0500 	eoreq	r0, ip, r0, lsl #10
    3e70:	00bd0000 	adcseq	r0, sp, r0
    3e74:	37060000 	strcc	r0, [r6, -r0]
    3e78:	0c000000 	stceq	0, cr0, [r0], {-0}
    3e7c:	11720a00 	cmnne	r2, r0, lsl #20
    3e80:	0f010000 	svceq	0x00010000
    3e84:	00df0101 	sbcseq	r0, pc, r1, lsl #2
    3e88:	730b0000 	movwvc	r0, #45056	; 0xb000
    3e8c:	df0f0100 	svcle	0x000f0100
    3e90:	0c000000 	stceq	0, cr0, [r0], {-0}
    3e94:	00001176 	andeq	r1, r0, r6, ror r1
    3e98:	00250f01 	eoreq	r0, r5, r1, lsl #30
    3e9c:	0d000000 	stceq	0, cr0, [r0, #-0]
    3ea0:	00006304 	andeq	r6, r0, r4, lsl #6
    3ea4:	65680e00 	strbvs	r0, [r8, #-3584]!	; 0xe00
    3ea8:	20010078 	andcs	r0, r1, r8, ror r0
    3eac:	00002501 	andeq	r2, r0, r1, lsl #10
    3eb0:	01010100 	mrseq	r0, (UNDEF: 17)
    3eb4:	630b0000 	movwvs	r0, #45056	; 0xb000
    3eb8:	20010068 	andcs	r0, r1, r8, rrx
    3ebc:	00000063 	andeq	r0, r0, r3, rrx
    3ec0:	10df0a00 	sbcsne	r0, pc, r0, lsl #20
    3ec4:	e8010000 	stmda	r1, {}	; <UNPREDICTABLE>
    3ec8:	01250101 	teqeq	r5, r1, lsl #2
    3ecc:	fb0c0000 	blx	303ed6 <LOADER_PHYS_START-0x3fcfc12a>
    3ed0:	01000010 	tsteq	r0, r0, lsl r0
    3ed4:	0000dfe8 	andeq	sp, r0, r8, ror #31
    3ed8:	11680c00 	cmnne	r8, r0, lsl #24
    3edc:	e8010000 	stmda	r1, {}	; <UNPREDICTABLE>
    3ee0:	000000df 	ldrdeq	r0, [r0], -pc	; <UNPREDICTABLE>
    3ee4:	11180a00 	tstne	r8, r0, lsl #20
    3ee8:	1a010000 	bne	43ef0 <LOADER_PHYS_START-0x3ffbc110>
    3eec:	01470101 	cmpeq	r7, r1, lsl #2
    3ef0:	6e0b0000 	cdpvs	0, 0, cr0, cr11, cr0, {0}
    3ef4:	251a0100 	ldrcs	r0, [sl, #-256]	; 0x100
    3ef8:	0c000000 	stceq	0, cr0, [r0], {-0}
    3efc:	00001168 	andeq	r1, r0, r8, ror #2
    3f00:	00df1a01 	sbcseq	r1, pc, r1, lsl #20
    3f04:	0f000000 	svceq	0x00000000
    3f08:	0000116e 	andeq	r1, r0, lr, ror #2
    3f0c:	25012a01 	strcs	r2, [r1, #-2561]	; 0xa01
    3f10:	01000000 	mrseq	r0, (UNDEF: 0)
    3f14:	00000162 	andeq	r0, r0, r2, ror #2
    3f18:	0100730b 	tsteq	r0, fp, lsl #6
    3f1c:	0000df2a 	andeq	sp, r0, sl, lsr #30
    3f20:	0f0a0000 	svceq	0x000a0000
    3f24:	01000011 	tsteq	r0, r1, lsl r0
    3f28:	8a010115 	bhi	44384 <LOADER_PHYS_START-0x3ffbbc7c>
    3f2c:	0c000001 	stceq	0, cr0, [r0], {1}
    3f30:	00001168 	andeq	r1, r0, r8, ror #2
    3f34:	00df1501 	sbcseq	r1, pc, r1, lsl #10
    3f38:	01100000 	tsteq	r0, r0
    3f3c:	00000644 	andeq	r0, r0, r4, asr #12
    3f40:	00251601 	eoreq	r1, r5, r1, lsl #12
    3f44:	11010000 	mrsne	r0, (UNDEF: 1)
    3f48:	01120000 	tsteq	r2, r0
    3f4c:	000010ac 	andeq	r1, r0, ip, lsr #1
    3f50:	01014d01 	tsteq	r1, r1, lsl #26
    3f54:	0001bc01 	andeq	fp, r1, r1, lsl #24
    3f58:	006e1300 	rsbeq	r1, lr, r0, lsl #6
    3f5c:	25014d01 	strcs	r4, [r1, #-3329]	; 0xd01
    3f60:	14000000 	strne	r0, [r0], #-0
    3f64:	00001168 	andeq	r1, r0, r8, ror #2
    3f68:	df014d01 	svcle	0x00014d01
    3f6c:	15000000 	strne	r0, [r0, #-0]
    3f70:	000010d8 	ldrdeq	r1, [r0], -r8
    3f74:	25014f01 	strcs	r4, [r1, #-3841]	; 0xf01
    3f78:	00000000 	andeq	r0, r0, r0
    3f7c:	00104b0a 	andseq	r4, r0, sl, lsl #22
    3f80:	01a10100 			; <UNDEFINED> instruction: 0x01a10100
    3f84:	00021801 	andeq	r1, r2, r1, lsl #16
    3f88:	75620b00 	strbvc	r0, [r2, #-2816]!	; 0xb00
    3f8c:	a1010066 	tstge	r1, r6, rrx
    3f90:	000000df 	ldrdeq	r0, [r0], -pc	; <UNPREDICTABLE>
    3f94:	6e656c0b 	cdpvs	12, 6, cr6, cr5, cr11, {0}
    3f98:	25a10100 	strcs	r0, [r1, #256]!	; 0x100
    3f9c:	16000000 	strne	r0, [r0], -r0
    3fa0:	00000315 	andeq	r0, r0, r5, lsl r3
    3fa4:	0025a201 	eoreq	sl, r5, r1, lsl #4
    3fa8:	a3160000 	tstge	r6, #0
    3fac:	01000010 	tsteq	r0, r0, lsl r0
    3fb0:	000025a2 	andeq	r2, r0, r2, lsr #11
    3fb4:	112f1600 	teqne	pc, r0, lsl #12
    3fb8:	a2010000 	andge	r0, r1, #0
    3fbc:	00000025 	andeq	r0, r0, r5, lsr #32
    3fc0:	00686317 	rsbeq	r6, r8, r7, lsl r3
    3fc4:	0025a301 	eoreq	sl, r5, r1, lsl #6
    3fc8:	16180000 	ldrne	r0, [r8], -r0
    3fcc:	000010b9 	strheq	r1, [r0], -r9
    3fd0:	0025c701 	eoreq	ip, r5, r1, lsl #14
    3fd4:	00000000 	andeq	r0, r0, r0
    3fd8:	0010c10a 	andseq	ip, r0, sl, lsl #2
    3fdc:	01550100 	cmpeq	r5, r0, lsl #2
    3fe0:	00025a01 	andeq	r5, r2, r1, lsl #20
    3fe4:	10fb0c00 	rscsne	r0, fp, r0, lsl #24
    3fe8:	55010000 	strpl	r0, [r1, #-0]
    3fec:	000000df 	ldrdeq	r0, [r0], -pc	; <UNPREDICTABLE>
    3ff0:	0011680c 	andseq	r6, r1, ip, lsl #16
    3ff4:	df550100 	svcle	0x00550100
    3ff8:	17000000 	strne	r0, [r0, -r0]
    3ffc:	56010072 			; <UNDEFINED> instruction: 0x56010072
    4000:	00000025 	andeq	r0, r0, r5, lsr #32
    4004:	00071616 	andeq	r1, r7, r6, lsl r6
    4008:	6a580100 	bvs	1604410 <LOADER_PHYS_START-0x3e9fbbf0>
    400c:	17000000 	strne	r0, [r0, -r0]
    4010:	01007073 	tsteq	r0, r3, ror r0
    4014:	00002c59 	andeq	r2, r0, r9, asr ip
    4018:	660a0000 	strvs	r0, [sl], -r0
    401c:	01000011 	tsteq	r0, r1, lsl r0
    4020:	ab010136 	blge	44500 <LOADER_PHYS_START-0x3ffbbb00>
    4024:	0b000002 	bleq	4034 <LOADER_PHYS_START-0x3fffbfcc>
    4028:	00667562 	rsbeq	r7, r6, r2, ror #10
    402c:	00df3601 	sbcseq	r3, pc, r1, lsl #12
    4030:	69170000 	ldmdbvs	r7, {}	; <UNPREDICTABLE>
    4034:	25370100 	ldrcs	r0, [r7, #-256]!	; 0x100
    4038:	17000000 	strne	r0, [r0, -r0]
    403c:	38010070 	stmdacc	r1, {r4, r5, r6}
    4040:	000000df 	ldrdeq	r0, [r0], -pc	; <UNPREDICTABLE>
    4044:	00071616 	andeq	r1, r7, r6, lsl r6
    4048:	6a390100 	bvs	e44450 <LOADER_PHYS_START-0x3f1bbbb0>
    404c:	17000000 	strne	r0, [r0, -r0]
    4050:	01007073 	tsteq	r0, r3, ror r0
    4054:	00002c3a 	andeq	r2, r0, sl, lsr ip
    4058:	01101800 	tsteq	r0, r0, lsl #16
    405c:	00000652 	andeq	r0, r0, r2, asr r6
    4060:	00254b01 	eoreq	r4, r5, r1, lsl #22
    4064:	11010000 	mrsne	r0, (UNDEF: 1)
    4068:	19000000 	stmdbne	r0, {}	; <UNPREDICTABLE>
    406c:	00001100 	andeq	r1, r0, r0, lsl #2
    4070:	01011401 	tsteq	r1, r1, lsl #8
    4074:	00031801 	andeq	r1, r3, r1, lsl #16
    4078:	10fb1400 	rscsne	r1, fp, r0, lsl #8
    407c:	14010000 	strne	r0, [r1], #-0
    4080:	0000df01 	andeq	sp, r0, r1, lsl #30
    4084:	11681400 	cmnne	r8, r0, lsl #8
    4088:	14010000 	strne	r0, [r1], #-0
    408c:	0000df01 	andeq	sp, r0, r1, lsl #30
    4090:	0beb1500 	bleq	ffac9498 <restore_guest_end+0x8f3c9498>
    4094:	15010000 	strne	r0, [r1, #-0]
    4098:	00031801 	andeq	r1, r3, r1, lsl #16
    409c:	656c1a00 	strbvs	r1, [ip, #-2560]!	; 0xa00
    40a0:	1501006e 	strne	r0, [r1, #-110]	; 0x6e
    40a4:	00031801 	andeq	r1, r3, r1, lsl #16
    40a8:	00691a00 	rsbeq	r1, r9, r0, lsl #20
    40ac:	18011501 	stmdane	r1, {r0, r8, sl, ip}
    40b0:	15000003 	strne	r0, [r0, #-3]
    40b4:	00001094 	muleq	r0, r4, r0
    40b8:	18011601 	stmdane	r1, {r0, r9, sl, ip}
    40bc:	1a000003 	bne	40d0 <LOADER_PHYS_START-0x3fffbf30>
    40c0:	00736f70 	rsbseq	r6, r3, r0, ror pc
    40c4:	25011701 	strcs	r1, [r1, #-1793]	; 0x701
    40c8:	15000000 	strne	r0, [r0, #-0]
    40cc:	00000ec9 	andeq	r0, r0, r9, asr #29
    40d0:	1f011801 	svcne	0x00011801
    40d4:	00000003 	andeq	r0, r0, r3
    40d8:	16070404 	strne	r0, [r7], -r4, lsl #8
    40dc:	0d000000 	stceq	0, cr0, [r0, #-0]
    40e0:	00032504 	andeq	r2, r3, r4, lsl #10
    40e4:	002c1b00 	eoreq	r1, ip, r0, lsl #22
    40e8:	e91c0000 	ldmdb	ip, {}	; <UNPREDICTABLE>
    40ec:	01000010 	tsteq	r0, r0, lsl r0
    40f0:	1f10012f 	svcne	0x0010012f
    40f4:	1f544000 	svcne	0x00544000
    40f8:	260f4000 	strcs	r4, [pc], -r0
    40fc:	03880000 	orreq	r0, r8, #0
    4100:	731d0000 	tstvc	sp, #0
    4104:	df2f0100 	svcle	0x002f0100
    4108:	2f000000 	svccs	0x00000000
    410c:	1e000026 	cdpne	0, 0, cr0, cr0, cr6, {1}
    4110:	006c6176 	rsbeq	r6, ip, r6, ror r1
    4114:	03182f01 	tsteq	r8, #4
    4118:	51010000 	mrspl	r0, (UNDEF: 1)
    411c:	0100691f 	tsteq	r0, pc, lsl r9
    4120:	00002530 	andeq	r2, r0, r0, lsr r5
    4124:	00264200 	eoreq	r4, r6, r0, lsl #4
    4128:	00bd2000 	adcseq	r2, sp, r0
    412c:	1f200000 	svcne	0x00200000
    4130:	08384000 	ldmdaeq	r8!, {lr}
    4134:	32010000 	andcc	r0, r1, #0
    4138:	0000d321 	andeq	sp, r0, r1, lsr #6
    413c:	00265600 	eoreq	r5, r6, r0, lsl #12
    4140:	00ca2200 	sbceq	r2, sl, r0, lsl #4
    4144:	00000000 	andeq	r0, r0, r0
    4148:	0000e523 	andeq	lr, r0, r3, lsr #10
    414c:	001f5400 	andseq	r5, pc, r0, lsl #8
    4150:	001f9c40 	andseq	r9, pc, r0, asr #24
    4154:	007d0240 	rsbseq	r0, sp, r0, asr #4
    4158:	000003bf 			; <UNDEFINED> instruction: 0x000003bf
    415c:	0000f621 	andeq	pc, r0, r1, lsr #12
    4160:	00266900 	eoreq	r6, r6, r0, lsl #18
    4164:	00e52000 	rsceq	r2, r5, r0
    4168:	1f700000 	svcne	0x00700000
    416c:	08504000 	ldmdaeq	r0, {lr}^
    4170:	20010000 	andcs	r0, r1, r0
    4174:	0000f621 	andeq	pc, r0, r1, lsr #12
    4178:	00269d00 	eoreq	r9, r6, r0, lsl #26
    417c:	24000000 	strcs	r0, [r0], #-0
    4180:	00113701 	andseq	r3, r1, r1, lsl #14
    4184:	017b0100 	cmneq	fp, r0, lsl #2
    4188:	40001f9c 	mulmi	r0, ip, pc	; <UNPREDICTABLE>
    418c:	40001fc8 	andmi	r1, r0, r8, asr #31
    4190:	000026d7 	ldrdeq	r2, [r0], -r7
    4194:	00000404 	andeq	r0, r0, r4, lsl #8
    4198:	6675621d 			; <UNDEFINED> instruction: 0x6675621d
    419c:	047b0100 	ldrbteq	r0, [fp], #-256	; 0x100
    41a0:	f7000004 			; <UNDEFINED> instruction: 0xf7000004
    41a4:	1d000026 	stcne	0, cr0, [r0, #-152]	; 0xffffff68
    41a8:	006e656c 	rsbeq	r6, lr, ip, ror #10
    41ac:	00257b01 	eoreq	r7, r5, r1, lsl #22
    41b0:	27150000 	ldrcs	r0, [r5, -r0]
    41b4:	691f0000 	ldmdbvs	pc, {}	; <UNPREDICTABLE>
    41b8:	257c0100 	ldrbcs	r0, [ip, #-256]!	; 0x100
    41bc:	33000000 	movwcc	r0, #0
    41c0:	00000027 	andeq	r0, r0, r7, lsr #32
    41c4:	004c040d 	subeq	r0, ip, sp, lsl #8
    41c8:	241c0000 	ldrcs	r0, [ip], #-0
    41cc:	01000011 	tsteq	r0, r1, lsl r0
    41d0:	1fc80181 	svcne	0x00c80181
    41d4:	20884000 	addcs	r4, r8, r0
    41d8:	27524000 	ldrbcs	r4, [r2, -r0]
    41dc:	04880000 	streq	r0, [r8], #0
    41e0:	621d0000 	andsvs	r0, sp, #0
    41e4:	01006675 	tsteq	r0, r5, ror r6
    41e8:	0000df81 	andeq	sp, r0, r1, lsl #31
    41ec:	00277e00 	eoreq	r7, r7, r0, lsl #28
    41f0:	00691f00 	rsbeq	r1, r9, r0, lsl #30
    41f4:	00258201 	eoreq	r8, r5, r1, lsl #4
    41f8:	279c0000 	ldrcs	r0, [ip, r0]
    41fc:	a3250000 	teqge	r5, #0
    4200:	01000010 	tsteq	r0, r0, lsl r0
    4204:	00002582 	andeq	r2, r0, r2, lsl #11
    4208:	0027c700 	eoreq	ip, r7, r0, lsl #14
    420c:	68631f00 	stmdavs	r3!, {r8, r9, sl, fp, ip}^
    4210:	25830100 	strcs	r0, [r3, #256]	; 0x100
    4214:	f2000000 	vhadd.s8	d0, d0, d0
    4218:	26000027 	strcs	r0, [r0], -r7, lsr #32
    421c:	00706d74 	rsbseq	r6, r0, r4, ror sp
    4220:	04888401 	streq	r8, [r8], #1025	; 0x401
    4224:	91020000 	mrsls	r0, (UNDEF: 2)
    4228:	00bd2764 	adcseq	r2, sp, r4, ror #14
    422c:	203c0000 	eorscs	r0, ip, r0
    4230:	20444000 	subcs	r4, r4, r0
    4234:	92014000 	andls	r4, r1, #0
    4238:	0000d322 	andeq	sp, r0, r2, lsr #6
    423c:	00ca2100 	sbceq	r2, sl, r0, lsl #2
    4240:	280b0000 	stmdacs	fp, {}	; <UNPREDICTABLE>
    4244:	00000000 	andeq	r0, r0, r0
    4248:	00006305 	andeq	r6, r0, r5, lsl #6
    424c:	00049800 	andeq	r9, r4, r0, lsl #16
    4250:	00370600 	eorseq	r0, r7, r0, lsl #12
    4254:	00020000 	andeq	r0, r2, r0
    4258:	11850124 	orrne	r0, r5, r4, lsr #2
    425c:	ec010000 	stc	0, cr0, [r1], {-0}
    4260:	00208801 	eoreq	r8, r0, r1, lsl #16
    4264:	00219040 	eoreq	r9, r1, r0, asr #32
    4268:	00282040 	eoreq	r2, r8, r0, asr #32
    426c:	0005c300 	andeq	ip, r5, r0, lsl #6
    4270:	10fb2800 	rscsne	r2, fp, r0, lsl #16
    4274:	ec010000 	stc	0, cr0, [r1], {-0}
    4278:	000000df 	ldrdeq	r0, [r0], -pc	; <UNPREDICTABLE>
    427c:	0000284c 	andeq	r2, r0, ip, asr #16
    4280:	00116828 	andseq	r6, r1, r8, lsr #16
    4284:	dfec0100 	svcle	0x00ec0100
    4288:	5f000000 	svcpl	0x00000000
    428c:	29000028 	stmdbcs	r0, {r3, r5}
    4290:	00000ec9 	andeq	r0, r0, r9, asr #29
    4294:	031fed01 	tsteq	pc, #64	; 0x40
    4298:	d00c0000 	andle	r0, ip, r0
    429c:	eb253fff 	bl	9542a0 <LOADER_PHYS_START-0x3f6abd60>
    42a0:	0100000b 	tsteq	r0, fp
    42a4:	000318ef 	andeq	r1, r3, pc, ror #17
    42a8:	00287d00 	eoreq	r7, r8, r0, lsl #26
    42ac:	656c2600 	strbvs	r2, [ip, #-1536]!	; 0x600
    42b0:	ef01006e 	svc	0x0001006e
    42b4:	00000318 	andeq	r0, r0, r8, lsl r3
    42b8:	1f649102 	svcne	0x00649102
    42bc:	ef010069 	svc	0x00010069
    42c0:	00000318 	andeq	r0, r0, r8, lsl r3
    42c4:	0000289d 	muleq	r0, sp, r8
    42c8:	00117b16 	andseq	r7, r1, r6, lsl fp
    42cc:	1ff00100 	svcne	0x00f00100
    42d0:	2a000003 	bcs	42e4 <LOADER_PHYS_START-0x3fffbd1c>
    42d4:	00000125 	andeq	r0, r0, r5, lsr #2
    42d8:	400020ac 	andmi	r2, r0, ip, lsr #1
    42dc:	400020c8 	andmi	r2, r0, r8, asr #1
    42e0:	055bf301 	ldrbeq	pc, [fp, #-769]	; 0x301	; <UNPREDICTABLE>
    42e4:	3b210000 	blcc	8442ec <LOADER_PHYS_START-0x3f7bbd14>
    42e8:	b1000001 	tstlt	r0, r1
    42ec:	21000028 	tstcs	r0, r8, lsr #32
    42f0:	00000132 	andeq	r0, r0, r2, lsr r1
    42f4:	000028c4 	andeq	r2, r0, r4, asr #17
    42f8:	0000bd20 	andeq	fp, r0, r0, lsr #26
    42fc:	0020ac00 	eoreq	sl, r0, r0, lsl #24
    4300:	00086840 	andeq	r6, r8, r0, asr #16
    4304:	211c0100 	tstcs	ip, r0, lsl #2
    4308:	000000d3 	ldrdeq	r0, [r0], -r3
    430c:	000028d8 	ldrdeq	r2, [r0], -r8
    4310:	0000ca21 	andeq	ip, r0, r1, lsr #20
    4314:	0028f800 	eoreq	pc, r8, r0, lsl #16
    4318:	2a000000 	bcs	4320 <LOADER_PHYS_START-0x3fffbce0>
    431c:	00000125 	andeq	r0, r0, r5, lsr #2
    4320:	400020dc 	ldrdmi	r2, [r0], -ip
    4324:	40002100 	andmi	r2, r0, r0, lsl #2
    4328:	05a3f801 	streq	pc, [r3, #2049]!	; 0x801
    432c:	3b210000 	blcc	844334 <LOADER_PHYS_START-0x3f7bbccc>
    4330:	1a000001 	bne	433c <LOADER_PHYS_START-0x3fffbcc4>
    4334:	21000029 	tstcs	r0, r9, lsr #32
    4338:	00000132 	andeq	r0, r0, r2, lsr r1
    433c:	0000292d 	andeq	r2, r0, sp, lsr #18
    4340:	0000bd27 	andeq	fp, r0, r7, lsr #26
    4344:	0020e400 	eoreq	lr, r0, r0, lsl #8
    4348:	0020f440 	eoreq	pc, r0, r0, asr #8
    434c:	211c0140 	tstcs	ip, r0, asr #2
    4350:	000000d3 	ldrdeq	r0, [r0], -r3
    4354:	000028d8 	ldrdeq	r2, [r0], -r8
    4358:	0000ca21 	andeq	ip, r0, r1, lsr #20
    435c:	0028f800 	eoreq	pc, r8, r0, lsl #16
    4360:	2b000000 	blcs	4368 <LOADER_PHYS_START-0x3fffbc98>
    4364:	000000bd 	strheq	r0, [r0], -sp
    4368:	4000215c 	andmi	r2, r0, ip, asr r1
    436c:	00000880 	andeq	r0, r0, r0, lsl #17
    4370:	21011001 	tstcs	r1, r1
    4374:	000000d3 	ldrdeq	r0, [r0], -r3
    4378:	00002941 	andeq	r2, r0, r1, asr #18
    437c:	0000ca22 	andeq	ip, r0, r2, lsr #20
    4380:	2c000000 	stccs	0, cr0, [r0], {-0}
    4384:	00114e01 	andseq	r4, r1, r1, lsl #28
    4388:	01340100 	teqeq	r4, r0, lsl #2
    438c:	00219001 	eoreq	r9, r1, r1
    4390:	00223c40 	eoreq	r3, r2, r0, asr #24
    4394:	00295440 	eoreq	r5, r9, r0, asr #8
    4398:	0005fe00 	andeq	pc, r5, r0, lsl #28
    439c:	11682d00 	cmnne	r8, r0, lsl #26
    43a0:	39010000 	stmdbcc	r1, {}	; <UNPREDICTABLE>
    43a4:	00005301 	andeq	r5, r0, r1, lsl #6
    43a8:	bc910300 	ldclt	3, cr0, [r1], {0}
    43ac:	02002e7f 	andeq	r2, r0, #2032	; 0x7f0
    43b0:	3a010000 	bcc	443b8 <LOADER_PHYS_START-0x3ffbbc48>
    43b4:	00002501 	andeq	r2, r0, r1, lsl #10
    43b8:	00298100 	eoreq	r8, r9, r0, lsl #2
    43bc:	8a230000 	bhi	8c43c4 <LOADER_PHYS_START-0x3f73bc3c>
    43c0:	3c000001 	stccc	0, cr0, [r0], {1}
    43c4:	60400022 	subvs	r0, r0, r2, lsr #32
    43c8:	02400022 	subeq	r0, r0, #34	; 0x22
    43cc:	0647007d 			; <UNDEFINED> instruction: 0x0647007d
    43d0:	992f0000 	stmdbls	pc!, {}	; <UNPREDICTABLE>
    43d4:	01000001 	tsteq	r0, r1
    43d8:	01a32f50 			; <UNDEFINED> instruction: 0x01a32f50
    43dc:	51010000 	mrspl	r0, (UNDEF: 1)
    43e0:	0001af30 	andeq	sl, r1, r0, lsr pc
    43e4:	bd310500 	cfldr32lt	mvfx0, [r1, #-0]
    43e8:	44000000 	strmi	r0, [r0], #-0
    43ec:	54400022 	strbpl	r0, [r0], #-34	; 0x22
    43f0:	01400022 	cmpeq	r0, r2, lsr #32
    43f4:	d3320152 	teqle	r2, #-2147483628	; 0x80000014
    43f8:	05000000 	streq	r0, [r0, #-0]
    43fc:	0000ca2f 	andeq	ip, r0, pc, lsr #20
    4400:	01710300 	cmneq	r1, r0, lsl #6
    4404:	3300009f 	movwcc	r0, #159	; 0x9f
    4408:	62646701 	rsbvs	r6, r4, #262144	; 0x40000
    440c:	01560100 	cmpeq	r6, r0, lsl #2
    4410:	00226001 	eoreq	r6, r2, r1
    4414:	0027c440 	eoreq	ip, r7, r0, asr #8
    4418:	00299f40 	eoreq	r9, r9, r0, asr #30
    441c:	00095a00 	andeq	r5, r9, r0, lsl #20
    4420:	00693400 	rsbeq	r3, r9, r0, lsl #8
    4424:	25015801 	strcs	r5, [r1, #-2049]	; 0x801
    4428:	00000000 	andeq	r0, r0, r0
    442c:	0010f22e 	andseq	pc, r0, lr, lsr #4
    4430:	01590100 	cmpeq	r9, r0, lsl #2
    4434:	00000025 	andeq	r0, r0, r5, lsr #32
    4438:	000029cc 	andeq	r2, r0, ip, asr #19
    443c:	00000015 	andeq	r0, r0, r5, lsl r0
    4440:	015a0100 	cmpeq	sl, r0, lsl #2
    4444:	0000095a 	andeq	r0, r0, sl, asr r9
    4448:	000eab35 	andeq	sl, lr, r5, lsr fp
    444c:	015b0100 	cmpeq	fp, r0, lsl #2
    4450:	0000031f 	andeq	r0, r0, pc, lsl r3
    4454:	3fffd02c 	svccc	0x00ffd02c
    4458:	00103935 	andseq	r3, r0, r5, lsr r9
    445c:	015d0100 	cmpeq	sp, r0, lsl #2
    4460:	0000031f 	andeq	r0, r0, pc, lsl r3
    4464:	3fffd004 	svccc	0x00ffd004
    4468:	0001bc36 	andeq	fp, r1, r6, lsr ip
    446c:	00228000 	eoreq	r8, r2, r0
    4470:	00089840 	andeq	r9, r8, r0, asr #16
    4474:	01640100 	cmneq	r4, r0, lsl #2
    4478:	0000070d 	andeq	r0, r0, sp, lsl #14
    447c:	0008b037 	andeq	fp, r8, r7, lsr r0
    4480:	01df3800 	bicseq	r3, pc, r0, lsl #16
    4484:	29f80000 	ldmibcs	r8!, {}^	; <UNPREDICTABLE>
    4488:	ea380000 	b	e04490 <LOADER_PHYS_START-0x3f1fbb70>
    448c:	16000001 	strne	r0, [r0], -r1
    4490:	3800002a 	stmdacc	r0, {r1, r3, r5}
    4494:	000001f5 	strdeq	r0, [r0], -r5
    4498:	00002a3f 	andeq	r2, r0, pc, lsr sl
    449c:	00020038 	andeq	r0, r2, r8, lsr r0
    44a0:	002a6a00 	eoreq	r6, sl, r0, lsl #20
    44a4:	01d43900 	bicseq	r3, r4, r0, lsl #18
    44a8:	03ff0000 	mvnseq	r0, #0
    44ac:	0001c92f 	andeq	ip, r1, pc, lsr #18
    44b0:	c4030600 	strgt	r0, [r3], #-1536	; 0x600
    44b4:	9f40003b 	svcls	0x0040003b
    44b8:	0023203a 	eoreq	r2, r3, sl, lsr r0
    44bc:	00237c40 	eoreq	r7, r3, r0, asr #24
    44c0:	020b3840 	andeq	r3, fp, #4194304	; 0x400000
    44c4:	2ac80000 	bcs	ff2044cc <restore_guest_end+0x8eb044cc>
    44c8:	00000000 	andeq	r0, r0, r0
    44cc:	08c83700 	stmiaeq	r8, {r8, r9, sl, ip, sp}^
    44d0:	013b0000 	teqeq	fp, r0
    44d4:	0000069a 	muleq	r0, sl, r6
    44d8:	25017d01 	strcs	r7, [r1, #-3329]	; 0xd01
    44dc:	01000000 	mrseq	r0, (UNDEF: 0)
    44e0:	00000726 	andeq	r0, r0, r6, lsr #14
    44e4:	18360011 	ldmdane	r6!, {r0, r4}
    44e8:	70000002 	andvc	r0, r0, r2
    44ec:	e8400024 	stmda	r0, {r2, r5}^
    44f0:	01000008 	tsteq	r0, r8
    44f4:	076c016d 	strbeq	r0, [ip, -sp, ror #2]!
    44f8:	08370000 	ldmdaeq	r7!, {}	; <UNPREDICTABLE>
    44fc:	3c000009 	stccc	0, cr0, [r0], {9}
    4500:	0000023b 	andeq	r0, r0, fp, lsr r2
    4504:	3c409102 	stfccp	f1, [r0], {2}
    4508:	00000244 	andeq	r0, r0, r4, asr #4
    450c:	7f889103 	svcvc	0x00889103
    4510:	00024f3c 	andeq	r4, r2, ip, lsr pc
    4514:	44910200 	ldrmi	r0, [r1], #512	; 0x200
    4518:	00023021 	andeq	r3, r2, r1, lsr #32
    451c:	002af600 	eoreq	pc, sl, r0, lsl #12
    4520:	02252100 	eoreq	r2, r5, #0
    4524:	2b2e0000 	blcs	b8452c <LOADER_PHYS_START-0x3f47bad4>
    4528:	00000000 	andeq	r0, r0, r0
    452c:	0002ab36 	andeq	sl, r2, r6, lsr fp
    4530:	00249400 	eoreq	r9, r4, r0, lsl #8
    4534:	00092840 	andeq	r2, r9, r0, asr #16
    4538:	017a0100 	cmneq	sl, r0, lsl #2
    453c:	0000084e 	andeq	r0, r0, lr, asr #16
    4540:	00095037 	andeq	r5, r9, r7, lsr r0
    4544:	02d13c00 	sbcseq	r3, r1, #0
    4548:	91020000 	mrsls	r0, (UNDEF: 2)
    454c:	02dd3c48 	sbcseq	r3, sp, #18432	; 0x4800
    4550:	91020000 	mrsls	r0, (UNDEF: 2)
    4554:	02e9384c 	rsceq	r3, r9, #4980736	; 0x4c0000
    4558:	2b660000 	blcs	1984560 <LOADER_PHYS_START-0x3e67baa0>
    455c:	ff3c0000 			; <UNDEFINED> instruction: 0xff3c0000
    4560:	02000002 	andeq	r0, r0, #2
    4564:	0b384491 	bleq	e157b0 <LOADER_PHYS_START-0x3f1ea850>
    4568:	7a000003 	bvc	457c <LOADER_PHYS_START-0x3fffba84>
    456c:	2100002b 	tstcs	r0, fp, lsr #32
    4570:	000002c5 	andeq	r0, r0, r5, asr #5
    4574:	00002b92 	muleq	r0, r2, fp
    4578:	0002b921 	andeq	fp, r2, r1, lsr #18
    457c:	002baa00 	eoreq	sl, fp, r0, lsl #20
    4580:	02f33d00 	rscseq	r3, r3, #0
    4584:	25360000 	ldrcs	r0, [r6, #-0]!
    4588:	94000001 	strls	r0, [r0], #-1
    458c:	78400024 	stmdavc	r0, {r2, r5}^
    4590:	01000009 	tsteq	r0, r9
    4594:	080f011f 	stmdaeq	pc, {r0, r1, r2, r3, r4, r8}	; <UNPREDICTABLE>
    4598:	3b210000 	blcc	8445a0 <LOADER_PHYS_START-0x3f7bba60>
    459c:	dd000001 	stcle	0, cr0, [r0, #-4]
    45a0:	2100002b 	tstcs	r0, fp, lsr #32
    45a4:	00000132 	andeq	r0, r0, r2, lsr r1
    45a8:	00002bf5 	strdeq	r2, [r0], -r5
    45ac:	0000bd20 	andeq	fp, r0, r0, lsr #26
    45b0:	00249400 	eoreq	r9, r4, r0, lsl #8
    45b4:	00099840 	andeq	r9, r9, r0, asr #16
    45b8:	211c0100 	tstcs	ip, r0, lsl #2
    45bc:	000000d3 	ldrdeq	r0, [r0], -r3
    45c0:	00002c09 	andeq	r2, r0, r9, lsl #24
    45c4:	0000ca21 	andeq	ip, r0, r1, lsr #20
    45c8:	002c1d00 	eoreq	r1, ip, r0, lsl #26
    45cc:	36000000 	strcc	r0, [r0], -r0
    45d0:	00000147 	andeq	r0, r0, r7, asr #2
    45d4:	40002524 	andmi	r2, r0, r4, lsr #10
    45d8:	000009b0 			; <UNDEFINED> instruction: 0x000009b0
    45dc:	29012701 	stmdbcs	r1, {r0, r8, r9, sl, sp}
    45e0:	22000008 	andcs	r0, r0, #8
    45e4:	00000158 	andeq	r0, r0, r8, asr r1
    45e8:	01623100 	cmneq	r2, r0, lsl #2
    45ec:	256c0000 	strbcs	r0, [ip, #-0]!
    45f0:	257c4000 	ldrbcs	r4, [ip, #-0]!
    45f4:	2f014000 	svccs	0x00014000
    45f8:	016f2101 	cmneq	pc, r1, lsl #2
    45fc:	2c350000 	ldccs	0, cr0, [r5], #-0
    4600:	6c3e0000 	ldcvs	0, cr0, [lr], #-0
    4604:	7c400025 	mcrrvc	0, 2, r0, r0, cr5
    4608:	00400025 	subeq	r0, r0, r5, lsr #32
    460c:	5a360000 	bpl	d84614 <LOADER_PHYS_START-0x3f27b9ec>
    4610:	10000002 	andne	r0, r0, r2
    4614:	c8400025 	stmdagt	r0, {r0, r2, r5}^
    4618:	01000009 	tsteq	r0, r9
    461c:	089e0172 	ldmeq	lr, {r1, r4, r5, r6, r8}
    4620:	e8370000 	ldmda	r7!, {}	; <UNPREDICTABLE>
    4624:	38000009 	stmdacc	r0, {r0, r3}
    4628:	00000272 	andeq	r0, r0, r2, ror r2
    462c:	00002c4d 	andeq	r2, r0, sp, asr #24
    4630:	00027b38 	andeq	r7, r2, r8, lsr fp
    4634:	002c6000 	eoreq	r6, ip, r0
    4638:	02843c00 	addeq	r3, r4, #0
    463c:	91030000 	mrsls	r0, (UNDEF: 3)
    4640:	8f3c7f88 	svchi	0x003c7f88
    4644:	02000002 	andeq	r0, r0, #2
    4648:	67214491 			; <UNDEFINED> instruction: 0x67214491
    464c:	ae000002 	cdpge	0, 0, cr0, cr0, cr2, {0}
    4650:	3e00002c 	cdpcc	0, 0, cr0, cr0, cr12, {1}
    4654:	4000260c 	andmi	r2, r0, ip, lsl #12
    4658:	40002620 	andmi	r2, r0, r0, lsr #12
    465c:	623f0000 	eorsvs	r0, pc, #0
    4660:	5c000001 	stcpl	0, cr0, [r0], {1}
    4664:	6c400026 	mcrrvs	0, 2, r0, r0, cr6
    4668:	01400026 	cmpeq	r0, r6, lsr #32
    466c:	08c5018e 	stmiaeq	r5, {r1, r2, r3, r7, r8}^
    4670:	6f210000 	svcvs	0x00210000
    4674:	c6000001 	strgt	r0, [r0], -r1
    4678:	3e00002c 	cdpcc	0, 0, cr0, cr0, cr12, {1}
    467c:	4000265c 	andmi	r2, r0, ip, asr r6
    4680:	4000266c 	andmi	r2, r0, ip, ror #12
    4684:	26804000 	strcs	r4, [r0], r0
    4688:	26904000 	ldrcs	r4, [r0], r0
    468c:	08e24000 	stmiaeq	r2!, {lr}^
    4690:	01100000 	tsteq	r0, r0
    4694:	00000644 	andeq	r0, r0, r4, asr #12
    4698:	00251601 	eoreq	r1, r5, r1, lsl #12
    469c:	11010000 	mrsne	r0, (UNDEF: 1)
    46a0:	8a3f0000 	bhi	fc46a8 <LOADER_PHYS_START-0x3f03b958>
    46a4:	90000001 	andls	r0, r0, r1
    46a8:	b4400026 	strblt	r0, [r0], #-38	; 0x26
    46ac:	01400026 	cmpeq	r0, r6, lsr #32
    46b0:	093f016a 	ldmdbeq	pc!, {r1, r3, r5, r6, r8}	; <UNPREDICTABLE>
    46b4:	a3210000 	teqge	r1, #0
    46b8:	de000001 	cdple	0, 0, cr0, cr0, cr1, {0}
    46bc:	2100002c 	tstcs	r0, ip, lsr #32
    46c0:	00000199 	muleq	r0, r9, r1
    46c4:	00002cf6 	strdeq	r2, [r0], -r6
    46c8:	0026903a 	eoreq	r9, r6, sl, lsr r0
    46cc:	0026b440 	eoreq	fp, r6, r0, asr #8
    46d0:	01af3840 			; <UNDEFINED> instruction: 0x01af3840
    46d4:	2d0a0000 	stccs	0, cr0, [sl, #-0]
    46d8:	bd310000 	ldclt	0, cr0, [r1, #-0]
    46dc:	98000000 	stmdals	r0, {}	; <UNPREDICTABLE>
    46e0:	a8400026 	stmdage	r0, {r1, r2, r5}^
    46e4:	01400026 	cmpeq	r0, r6, lsr #32
    46e8:	d3210152 	teqle	r1, #-2147483628	; 0x80000014
    46ec:	0a000000 	beq	46f4 <LOADER_PHYS_START-0x3fffb90c>
    46f0:	2100002d 	tstcs	r0, sp, lsr #32
    46f4:	000000ca 	andeq	r0, r0, sl, asr #1
    46f8:	00002d1e 	andeq	r2, r0, lr, lsl sp
    46fc:	3a000000 	bcc	4704 <LOADER_PHYS_START-0x3fffb8fc>
    4700:	4000276c 	andmi	r2, r0, ip, ror #14
    4704:	4000277c 	andmi	r2, r0, ip, ror r7
    4708:	06440110 			; <UNDEFINED> instruction: 0x06440110
    470c:	16010000 	strne	r0, [r1], -r0
    4710:	00000025 	andeq	r0, r0, r5, lsr #32
    4714:	00001101 	andeq	r1, r0, r1, lsl #2
    4718:	63050000 	movwvs	r0, #20480	; 0x5000
    471c:	6a000000 	bvs	4724 <LOADER_PHYS_START-0x3fffb8dc>
    4720:	06000009 	streq	r0, [r0], -r9
    4724:	00000037 	andeq	r0, r0, r7, lsr r0
    4728:	630500ff 	movwvs	r0, #20735	; 0x50ff
    472c:	7a000000 	bvc	4734 <LOADER_PHYS_START-0x3fffb8cc>
    4730:	06000009 	streq	r0, [r0], -r9
    4734:	00000037 	andeq	r0, r0, r7, lsr r0
    4738:	78410010 	stmdavc	r1, {r4}^
    473c:	01000006 	tsteq	r0, r6
    4740:	00098b0d 	andeq	r8, r9, sp, lsl #22
    4744:	dc030500 	cfstr32le	mvfx0, [r3], {-0}
    4748:	42400037 	submi	r0, r0, #55	; 0x37
    474c:	0000096a 	andeq	r0, r0, sl, ror #18
    4750:	00006305 	andeq	r6, r0, r5, lsl #6
    4754:	0009a100 	andeq	sl, r9, r0, lsl #2
    4758:	00374300 	eorseq	r4, r7, r0, lsl #6
    475c:	03ff0000 	mvnseq	r0, #0
    4760:	10894400 	addne	r4, r9, r0, lsl #8
    4764:	9f010000 	svcls	0x00010000
    4768:	00000990 	muleq	r0, r0, r9
    476c:	c4030501 	strgt	r0, [r3], #-1281	; 0x501
    4770:	4440003b 	strbmi	r0, [r0], #-59	; 0x3b
    4774:	00001144 	andeq	r1, r0, r4, asr #2
    4778:	0990de01 	ldmibeq	r0, {r0, r9, sl, fp, ip, lr, pc}
    477c:	05010000 	streq	r0, [r1, #-0]
    4780:	003fc403 	eorseq	ip, pc, r3, lsl #8
    4784:	10d24540 	sbcsne	r4, r2, r0, asr #10
    4788:	32010000 	andcc	r0, r1, #0
    478c:	0009d801 	andeq	sp, r9, r1, lsl #16
    4790:	03050100 	movweq	r0, #20736	; 0x5100
    4794:	40003bb8 			; <UNDEFINED> instruction: 0x40003bb8
    4798:	0000251b 	andeq	r2, r0, fp, lsl r5
    479c:	08c80000 	stmiaeq	r8, {}^	; <UNPREDICTABLE>
    47a0:	00020000 	andeq	r0, r2, r0
    47a4:	00001bd7 	ldrdeq	r1, [r0], -r7
    47a8:	004c0104 	subeq	r0, ip, r4, lsl #2
    47ac:	c3010000 	movwgt	r0, #4096	; 0x1000
    47b0:	58000012 	stmdapl	r0, {r1, r4}
    47b4:	c4000000 	strgt	r0, [r0], #-0
    47b8:	a0400027 	subge	r0, r0, r7, lsr #32
    47bc:	a140002f 	cmpge	r0, pc, lsr #32
    47c0:	02000013 	andeq	r0, r0, #19
    47c4:	6e690504 	cdpvs	5, 6, cr0, cr9, cr4, {0}
    47c8:	0a030074 	beq	c49a0 <LOADER_PHYS_START-0x3ff3b660>
    47cc:	02000002 	andeq	r0, r0, #2
    47d0:	00003705 	andeq	r3, r0, r5, lsl #14
    47d4:	07040400 	streq	r0, [r4, -r0, lsl #8]
    47d8:	0000001b 	andeq	r0, r0, fp, lsl r0
    47dc:	c7070204 	strgt	r0, [r7, -r4, lsl #4]
    47e0:	04000000 	streq	r0, [r0], #-0
    47e4:	00110708 	andseq	r0, r1, r8, lsl #14
    47e8:	b3030000 	movwlt	r0, #12288	; 0x3000
    47ec:	02000001 	andeq	r0, r0, #1
    47f0:	00005708 	andeq	r5, r0, r8, lsl #14
    47f4:	08010400 	stmdaeq	r1, {sl}
    47f8:	00000028 	andeq	r0, r0, r8, lsr #32
    47fc:	00139305 	andseq	r9, r3, r5, lsl #6
    4800:	1a033800 	bne	d2808 <LOADER_PHYS_START-0x3ff2d7f8>
    4804:	00000095 	muleq	r0, r5, r0
    4808:	00109b06 	andseq	r9, r0, r6, lsl #22
    480c:	2c1b0300 	ldccs	3, cr0, [fp], {-0}
    4810:	02000000 	andeq	r0, r0, #0
    4814:	a6060023 	strge	r0, [r6], -r3, lsr #32
    4818:	0300000e 	movweq	r0, #14
    481c:	00004c1c 	andeq	r4, r0, ip, lsl ip
    4820:	04230200 	strteq	r0, [r3], #-512	; 0x200
    4824:	00122f06 	andseq	r2, r2, r6, lsl #30
    4828:	951d0300 	ldrls	r0, [sp, #-768]	; 0x300
    482c:	02000000 	andeq	r0, r0, #0
    4830:	07000523 	streq	r0, [r0, -r3, lsr #10]
    4834:	000000a5 	andeq	r0, r0, r5, lsr #1
    4838:	000000a5 	andeq	r0, r0, r5, lsr #1
    483c:	00003708 	andeq	r3, r0, r8, lsl #14
    4840:	04003100 	streq	r3, [r0], #-256	; 0x100
    4844:	00310801 	eorseq	r0, r1, r1, lsl #16
    4848:	b5050000 	strlt	r0, [r5, #-0]
    484c:	14000011 	strne	r0, [r0], #-17
    4850:	00ff2103 	rscseq	r2, pc, r3, lsl #2
    4854:	e7060000 	str	r0, [r6, -r0]
    4858:	03000013 	movweq	r0, #19
    485c:	00002c22 	andeq	r2, r0, r2, lsr #24
    4860:	00230200 	eoreq	r0, r3, r0, lsl #4
    4864:	00138206 	andseq	r8, r3, r6, lsl #4
    4868:	2c230300 	stccs	3, cr0, [r3], #-0
    486c:	02000000 	andeq	r0, r0, #0
    4870:	88060423 	stmdahi	r6, {r0, r1, r5, sl}
    4874:	03000013 	movweq	r0, #19
    4878:	00002c24 	andeq	r2, r0, r4, lsr #24
    487c:	08230200 	stmdaeq	r3!, {r9}
    4880:	00142d06 	andseq	r2, r4, r6, lsl #26
    4884:	2c250300 	stccs	3, cr0, [r5], #-0
    4888:	02000000 	andeq	r0, r0, #0
    488c:	20060c23 	andcs	r0, r6, r3, lsr #24
    4890:	03000013 	movweq	r0, #19
    4894:	00002c26 	andeq	r2, r0, r6, lsr #24
    4898:	10230200 	eorne	r0, r3, r0, lsl #4
    489c:	14080500 	strne	r0, [r8], #-1280	; 0x500
    48a0:	03500000 	cmpeq	r0, #0
    48a4:	0002242b 	andeq	r2, r2, fp, lsr #8
    48a8:	11ca0600 	bicne	r0, sl, r0, lsl #12
    48ac:	2c030000 	stccs	0, cr0, [r3], {-0}
    48b0:	0000002c 	andeq	r0, r0, ip, lsr #32
    48b4:	06002302 	streq	r2, [r0], -r2, lsl #6
    48b8:	00001461 	andeq	r1, r0, r1, ror #8
    48bc:	002c2d03 	eoreq	r2, ip, r3, lsl #26
    48c0:	23020000 	movwcs	r0, #8192	; 0x2000
    48c4:	11ae0604 			; <UNDEFINED> instruction: 0x11ae0604
    48c8:	2e030000 	cdpcs	0, 0, cr0, cr3, cr0, {0}
    48cc:	0000002c 	andeq	r0, r0, ip, lsr #32
    48d0:	06082302 	streq	r2, [r8], -r2, lsl #6
    48d4:	00001285 	andeq	r1, r0, r5, lsl #5
    48d8:	002c2f03 	eoreq	r2, ip, r3, lsl #30
    48dc:	23020000 	movwcs	r0, #8192	; 0x2000
    48e0:	13a5060c 			; <UNDEFINED> instruction: 0x13a5060c
    48e4:	30030000 	andcc	r0, r3, r0
    48e8:	0000002c 	andeq	r0, r0, ip, lsr #32
    48ec:	06102302 	ldreq	r2, [r0], -r2, lsl #6
    48f0:	00001426 	andeq	r1, r0, r6, lsr #8
    48f4:	002c3103 	eoreq	r3, ip, r3, lsl #2
    48f8:	23020000 	movwcs	r0, #8192	; 0x2000
    48fc:	11e20614 	mvnne	r0, r4, lsl r6
    4900:	32030000 	andcc	r0, r3, #0
    4904:	0000002c 	andeq	r0, r0, ip, lsr #32
    4908:	06182302 	ldreq	r2, [r8], -r2, lsl #6
    490c:	00001357 	andeq	r1, r0, r7, asr r3
    4910:	002c3303 	eoreq	r3, ip, r3, lsl #6
    4914:	23020000 	movwcs	r0, #8192	; 0x2000
    4918:	139e061c 	orrsne	r0, lr, #29360128	; 0x1c00000
    491c:	34030000 	strcc	r0, [r3], #-0
    4920:	0000002c 	andeq	r0, r0, ip, lsr #32
    4924:	06202302 	strteq	r2, [r0], -r2, lsl #6
    4928:	0000146a 	andeq	r1, r0, sl, ror #8
    492c:	002c3503 	eoreq	r3, ip, r3, lsl #10
    4930:	23020000 	movwcs	r0, #8192	; 0x2000
    4934:	11a50624 			; <UNDEFINED> instruction: 0x11a50624
    4938:	36030000 	strcc	r0, [r3], -r0
    493c:	0000002c 	andeq	r0, r0, ip, lsr #32
    4940:	06282302 	strteq	r2, [r8], -r2, lsl #6
    4944:	00001211 	andeq	r1, r0, r1, lsl r2
    4948:	002c3703 	eoreq	r3, ip, r3, lsl #14
    494c:	23020000 	movwcs	r0, #8192	; 0x2000
    4950:	1326062c 	teqne	r6, #46137344	; 0x2c00000
    4954:	38030000 	stmdacc	r3, {}	; <UNPREDICTABLE>
    4958:	0000002c 	andeq	r0, r0, ip, lsr #32
    495c:	06302302 	ldrteq	r2, [r0], -r2, lsl #6
    4960:	00001471 	andeq	r1, r0, r1, ror r4
    4964:	002c3a03 	eoreq	r3, ip, r3, lsl #20
    4968:	23020000 	movwcs	r0, #8192	; 0x2000
    496c:	130f0634 	movwne	r0, #63028	; 0xf634
    4970:	3d030000 	stccc	0, cr0, [r3, #-0]
    4974:	0000002c 	andeq	r0, r0, ip, lsr #32
    4978:	06382302 	ldrteq	r2, [r8], -r2, lsl #6
    497c:	0000147a 	andeq	r1, r0, sl, ror r4
    4980:	002c3e03 	eoreq	r3, ip, r3, lsl #28
    4984:	23020000 	movwcs	r0, #8192	; 0x2000
    4988:	12fb063c 	rscsne	r0, fp, #62914560	; 0x3c00000
    498c:	3f030000 	svccc	0x00030000
    4990:	0000002c 	andeq	r0, r0, ip, lsr #32
    4994:	06402302 	strbeq	r2, [r0], -r2, lsl #6
    4998:	00001209 	andeq	r1, r0, r9, lsl #4
    499c:	002c4003 	eoreq	r4, ip, r3
    49a0:	23020000 	movwcs	r0, #8192	; 0x2000
    49a4:	13600644 	cmnne	r0, #71303168	; 0x4400000
    49a8:	41030000 	mrsmi	r0, (UNDEF: 3)
    49ac:	0000002c 	andeq	r0, r0, ip, lsr #32
    49b0:	06482302 	strbeq	r2, [r8], -r2, lsl #6
    49b4:	00001459 	andeq	r1, r0, r9, asr r4
    49b8:	002c4203 	eoreq	r4, ip, r3, lsl #4
    49bc:	23020000 	movwcs	r0, #8192	; 0x2000
    49c0:	fc05004c 	stc2	0, cr0, [r5], {76}	; 0x4c
    49c4:	64000011 	strvs	r0, [r0], #-17
    49c8:	024d4603 	subeq	r4, sp, #3145728	; 0x300000
    49cc:	b5060000 	strlt	r0, [r6, #-0]
    49d0:	03000011 	movweq	r0, #17
    49d4:	0000ac47 	andeq	sl, r0, r7, asr #24
    49d8:	00230200 	eoreq	r0, r3, r0, lsl #4
    49dc:	00140806 	andseq	r0, r4, r6, lsl #16
    49e0:	ff480300 			; <UNDEFINED> instruction: 0xff480300
    49e4:	02000000 	andeq	r0, r0, #0
    49e8:	05001423 	streq	r1, [r0, #-1059]	; 0x423
    49ec:	00000711 	andeq	r0, r0, r1, lsl r7
    49f0:	904d0340 	subls	r0, sp, r0, asr #6
    49f4:	06000002 	streq	r0, [r0], -r2
    49f8:	0000070c 	andeq	r0, r0, ip, lsl #14
    49fc:	002c4e03 	eoreq	r4, ip, r3, lsl #28
    4a00:	23020000 	movwcs	r0, #8192	; 0x2000
    4a04:	63700900 	cmnvs	r0, #0
    4a08:	2c4f0300 	mcrrcs	3, 0, r0, pc, cr0
    4a0c:	02000000 	andeq	r0, r0, #0
    4a10:	6c090423 	cfstrsvs	mvf0, [r9], {35}	; 0x23
    4a14:	50030072 	andpl	r0, r3, r2, ror r0
    4a18:	0000002c 	andeq	r0, r0, ip, lsr #32
    4a1c:	09082302 	stmdbeq	r8, {r1, r8, r9, sp}
    4a20:	00727067 	rsbseq	r7, r2, r7, rrx
    4a24:	02905103 	addseq	r5, r0, #-1073741824	; 0xc0000000
    4a28:	23020000 	movwcs	r0, #8192	; 0x2000
    4a2c:	2c07000c 	stccs	0, cr0, [r7], {12}
    4a30:	a0000000 	andge	r0, r0, r0
    4a34:	08000002 	stmdaeq	r0, {r1}
    4a38:	00000037 	andeq	r0, r0, r7, lsr r0
    4a3c:	3905000c 	stmdbcc	r5, {r2, r3}
    4a40:	a8000013 	stmdage	r0, {r0, r1, r4}
    4a44:	02d85503 	sbcseq	r5, r8, #12582912	; 0xc00000
    4a48:	16060000 	strne	r0, [r6], -r0
    4a4c:	03000007 	movweq	r0, #7
    4a50:	00024d56 	andeq	r4, r2, r6, asr sp
    4a54:	00230200 	eoreq	r0, r3, r0, lsl #4
    4a58:	00120106 	andseq	r0, r2, r6, lsl #2
    4a5c:	24570300 	ldrbcs	r0, [r7], #-768	; 0x300
    4a60:	02000002 	andeq	r0, r0, #2
    4a64:	f4064023 	vst4.8	{d4-d7}, [r6 :128], r3
    4a68:	0300000d 	movweq	r0, #13
    4a6c:	00004c58 	andeq	r4, r0, r8, asr ip
    4a70:	a4230300 	strtge	r0, [r3], #-768	; 0x300
    4a74:	040a0001 	streq	r0, [sl], #-1
    4a78:	00125505 	andseq	r5, r2, r5, lsl #10
    4a7c:	b901c400 	stmdblt	r1, {sl, lr, pc}
    4a80:	00000357 	andeq	r0, r0, r7, asr r3
    4a84:	000ea606 	andeq	sl, lr, r6, lsl #12
    4a88:	4cba0100 	ldfmis	f0, [sl]
    4a8c:	02000000 	andeq	r0, r0, #0
    4a90:	65060023 	strvs	r0, [r6, #-35]	; 0x23
    4a94:	01000012 	tsteq	r0, r2, lsl r0
    4a98:	00002cbb 			; <UNDEFINED> instruction: 0x00002cbb
    4a9c:	04230200 	strteq	r0, [r3], #-512	; 0x200
    4aa0:	00144f06 	andseq	r4, r4, r6, lsl #30
    4aa4:	2cbc0100 	ldfcss	f0, [ip]
    4aa8:	02000000 	andeq	r0, r0, #0
    4aac:	b5060823 	strlt	r0, [r6, #-2083]	; 0x823
    4ab0:	01000012 	tsteq	r0, r2, lsl r0
    4ab4:	00002cbd 			; <UNDEFINED> instruction: 0x00002cbd
    4ab8:	0c230200 	sfmeq	f0, 4, [r3], #-0
    4abc:	0013ec06 	andseq	lr, r3, r6, lsl #24
    4ac0:	2cbe0100 	ldfcss	f0, [lr]
    4ac4:	02000000 	andeq	r0, r0, #0
    4ac8:	02061023 	andeq	r1, r6, #35	; 0x23
    4acc:	01000013 	tsteq	r0, r3, lsl r0
    4ad0:	00002cbf 			; <UNDEFINED> instruction: 0x00002cbf
    4ad4:	14230200 	strtne	r0, [r3], #-512	; 0x200
    4ad8:	00132d06 	andseq	r2, r3, r6, lsl #26
    4adc:	4cc00100 	stfmie	f0, [r0], {0}
    4ae0:	02000000 	andeq	r0, r0, #0
    4ae4:	a9061823 	stmdbge	r6, {r0, r1, r5, fp, ip}
    4ae8:	0100000b 	tsteq	r0, fp
    4aec:	0002a0c1 	andeq	sl, r2, r1, asr #1
    4af0:	1c230200 	sfmne	f0, 4, [r3], #-0
    4af4:	ba010b00 	blt	476fc <LOADER_PHYS_START-0x3ffb8904>
    4af8:	01000013 	tsteq	r0, r3, lsl r0
    4afc:	25010168 	strcs	r0, [r1, #-360]	; 0x168
    4b00:	01000000 	mrseq	r0, (UNDEF: 0)
    4b04:	123b010c 	eorsne	r0, fp, #3
    4b08:	14010000 	strne	r0, [r1], #-0
    4b0c:	00002501 	andeq	r2, r0, r1, lsl #10
    4b10:	0027c400 	eoreq	ip, r7, r0, lsl #8
    4b14:	00283040 	eoreq	r3, r8, r0, asr #32
    4b18:	002d3640 	eoreq	r3, sp, r0, asr #12
    4b1c:	0003cb00 	andeq	ip, r3, r0, lsl #22
    4b20:	616d0d00 	cmnvs	sp, r0, lsl #26
    4b24:	14010070 	strne	r0, [r1], #-112	; 0x70
    4b28:	000003cb 	andeq	r0, r0, fp, asr #7
    4b2c:	00002d56 	andeq	r2, r0, r6, asr sp
    4b30:	79656b0e 	stmdbvc	r5!, {r1, r2, r3, r8, r9, fp, sp, lr}^
    4b34:	25140100 	ldrcs	r0, [r4, #-256]	; 0x100
    4b38:	01000000 	mrseq	r0, (UNDEF: 0)
    4b3c:	13c90f51 	bicne	r0, r9, #324	; 0x144
    4b40:	14010000 	strne	r0, [r1], #-0
    4b44:	00000025 	andeq	r0, r0, r5, lsr #32
    4b48:	36105201 	ldrcc	r5, [r0], -r1, lsl #4
    4b4c:	01000012 	tsteq	r0, r2, lsl r0
    4b50:	00002514 	andeq	r2, r0, r4, lsl r5
    4b54:	002d7400 	eoreq	r7, sp, r0, lsl #8
    4b58:	13461100 	movtne	r1, #24832	; 0x6100
    4b5c:	16010000 	strne	r0, [r1], -r0
    4b60:	00000025 	andeq	r0, r0, r5, lsr #32
    4b64:	00002d92 	muleq	r0, r2, sp
    4b68:	5e041200 	cdppl	2, 0, cr1, cr4, cr0, {0}
    4b6c:	0c000000 	stceq	0, cr0, [r0], {-0}
    4b70:	00128c01 	andseq	r8, r2, r1, lsl #24
    4b74:	01290100 	teqeq	r9, r0, lsl #2
    4b78:	0000002c 	andeq	r0, r0, ip, lsr #32
    4b7c:	40002830 	andmi	r2, r0, r0, lsr r8
    4b80:	40002918 	andmi	r2, r0, r8, lsl r9
    4b84:	00002db0 			; <UNDEFINED> instruction: 0x00002db0
    4b88:	00000438 	andeq	r0, r0, r8, lsr r4
    4b8c:	00138e13 	andseq	r8, r3, r3, lsl lr
    4b90:	382c0100 	stmdacc	ip!, {r8}
    4b94:	03000004 	movweq	r0, #4
    4b98:	147f8491 	ldrbtne	r8, [pc], #-1169	; 4ba0 <LOADER_PHYS_START-0x3fffb460>
    4b9c:	2d010069 	stccs	0, cr0, [r1, #-420]	; 0xfffffe5c
    4ba0:	00000025 	andeq	r0, r0, r5, lsr #32
    4ba4:	00002ddd 	ldrdeq	r2, [r0], -sp
    4ba8:	00081111 	andeq	r1, r8, r1, lsl r1
    4bac:	482e0100 	stmdami	lr!, {r8}
    4bb0:	13000004 	movwne	r0, #4
    4bb4:	1100002e 	tstne	r0, lr, lsr #32
    4bb8:	00001368 	andeq	r1, r0, r8, ror #6
    4bbc:	002c2f01 	eoreq	r2, ip, r1, lsl #30
    4bc0:	2e8a0000 	cdpcs	0, 8, cr0, cr10, cr0, {0}
    4bc4:	63140000 	tstvs	r4, #0
    4bc8:	0100746e 	tsteq	r0, lr, ror #8
    4bcc:	00002c30 	andeq	r2, r0, r0, lsr ip
    4bd0:	002e9e00 	eoreq	r9, lr, r0, lsl #28
    4bd4:	a5070000 	strge	r0, [r7, #-0]
    4bd8:	48000000 	stmdami	r0, {}	; <UNPREDICTABLE>
    4bdc:	08000004 	stmdaeq	r0, {r2}
    4be0:	00000037 	andeq	r0, r0, r7, lsr r0
    4be4:	04120063 	ldreq	r0, [r2], #-99	; 0x63
    4be8:	00000057 	andeq	r0, r0, r7, asr r0
    4bec:	11e90115 	mvnne	r0, r5, lsl r1
    4bf0:	57010000 	strpl	r0, [r1, -r0]
    4bf4:	00291801 	eoreq	r1, r9, r1, lsl #16
    4bf8:	002a6840 	eoreq	r6, sl, r0, asr #16
    4bfc:	002ebd40 	eoreq	fp, lr, r0, asr #26
    4c00:	0004bf00 	andeq	fp, r4, r0, lsl #30
    4c04:	08111100 	ldmdaeq	r1, {r8, ip}
    4c08:	60010000 	andvs	r0, r1, r0
    4c0c:	000004bf 			; <UNDEFINED> instruction: 0x000004bf
    4c10:	00002eea 	andeq	r2, r0, sl, ror #29
    4c14:	746e6314 	strbtvc	r6, [lr], #-788	; 0x314
    4c18:	25610100 	strbcs	r0, [r1, #-256]!	; 0x100
    4c1c:	15000000 	strne	r0, [r0, #-0]
    4c20:	1100002f 	tstne	r0, pc, lsr #32
    4c24:	000012ba 			; <UNDEFINED> instruction: 0x000012ba
    4c28:	00256201 	eoreq	r6, r5, r1, lsl #4
    4c2c:	2f290000 	svccs	0x00290000
    4c30:	69140000 	ldmdbvs	r4, {}	; <UNPREDICTABLE>
    4c34:	25630100 	strbcs	r0, [r3, #-256]!	; 0x100
    4c38:	48000000 	stmdami	r0, {}	; <UNPREDICTABLE>
    4c3c:	1300002f 	movwne	r0, #47	; 0x2f
    4c40:	0000109b 	muleq	r0, fp, r0
    4c44:	04c56401 	strbeq	r6, [r5], #1025	; 0x401
    4c48:	91020000 	mrsls	r0, (UNDEF: 2)
    4c4c:	138e134c 	orrne	r1, lr, #805306369	; 0x30000001
    4c50:	65010000 	strvs	r0, [r1, #-0]
    4c54:	00000438 	andeq	r0, r0, r8, lsr r4
    4c58:	7ee89103 	urdvce	f1, f3
    4c5c:	4c041200 	sfmmi	f1, 4, [r4], {-0}
    4c60:	07000000 	streq	r0, [r0, -r0]
    4c64:	000000a5 	andeq	r0, r0, r5, lsr #1
    4c68:	000004d5 	ldrdeq	r0, [r0], -r5
    4c6c:	00003708 	andeq	r3, r0, r8, lsl #14
    4c70:	16000800 	strne	r0, [r0], -r0, lsl #16
    4c74:	00144301 	andseq	r4, r4, r1, lsl #6
    4c78:	01940100 	orrseq	r0, r4, r0, lsl #2
    4c7c:	40002a68 	andmi	r2, r0, r8, ror #20
    4c80:	40002aa0 	andmi	r2, r0, r0, lsr #21
    4c84:	06007d02 	streq	r7, [r0], -r2, lsl #26
    4c88:	0d000005 	stceq	0, cr0, [r0, #-20]	; 0xffffffec
    4c8c:	01006176 	tsteq	r0, r6, ror r1
    4c90:	00002c94 	muleq	r0, r4, ip
    4c94:	002fa100 	eoreq	sl, pc, r0, lsl #2
    4c98:	00691700 	rsbeq	r1, r9, r0, lsl #14
    4c9c:	00259601 	eoreq	r9, r5, r1, lsl #12
    4ca0:	00000000 	andeq	r0, r0, r0
    4ca4:	126f010c 	rsbne	r0, pc, #3
    4ca8:	9d010000 	stcls	0, cr0, [r1, #-0]
    4cac:	00002501 	andeq	r2, r0, r1, lsl #10
    4cb0:	002aa000 	eoreq	sl, sl, r0
    4cb4:	002b6840 	eoreq	r6, fp, r0, asr #16
    4cb8:	002fb440 	eoreq	fp, pc, r0, asr #8
    4cbc:	00057300 	andeq	r7, r5, r0, lsl #6
    4cc0:	61760d00 	cmnvs	r6, r0, lsl #26
    4cc4:	2c9d0100 	ldfcss	f0, [sp], {0}
    4cc8:	e0000000 	and	r0, r0, r0
    4ccc:	1000002f 	andne	r0, r0, pc, lsr #32
    4cd0:	0000122f 	andeq	r1, r0, pc, lsr #4
    4cd4:	05739d01 	ldrbeq	r9, [r3, #-3329]!	; 0xd01
    4cd8:	30090000 	andcc	r0, r9, r0
    4cdc:	69140000 	ldmdbvs	r4, {}	; <UNPREDICTABLE>
    4ce0:	259f0100 	ldrcs	r0, [pc, #256]	; 4de8 <LOADER_PHYS_START-0x3fffb218>
    4ce4:	27000000 	strcs	r0, [r0, -r0]
    4ce8:	18000030 	stmdane	r0, {r4, r5}
    4cec:	40002b00 	andmi	r2, r0, r0, lsl #22
    4cf0:	40002b38 	andmi	r2, r0, r8, lsr fp
    4cf4:	64646119 	strbtvs	r6, [r4], #-281	; 0x119
    4cf8:	79a90100 	stmibvc	r9!, {r8}
    4cfc:	02000005 	andeq	r0, r0, #5
    4d00:	6f195491 	svcvs	0x00195491
    4d04:	aa010070 	bge	44ecc <LOADER_PHYS_START-0x3ffbb134>
    4d08:	00000589 	andeq	r0, r0, r9, lsl #11
    4d0c:	00609102 	rsbeq	r9, r0, r2, lsl #2
    4d10:	a5041200 	strge	r1, [r4, #-512]	; 0x200
    4d14:	07000000 	streq	r0, [r0, -r0]
    4d18:	000000a5 	andeq	r0, r0, r5, lsr #1
    4d1c:	00000589 	andeq	r0, r0, r9, lsl #11
    4d20:	00003708 	andeq	r3, r0, r8, lsl #14
    4d24:	07000900 	streq	r0, [r0, -r0, lsl #18]
    4d28:	000000a5 	andeq	r0, r0, r5, lsr #1
    4d2c:	00000599 	muleq	r0, r9, r5
    4d30:	00003708 	andeq	r3, r0, r8, lsl #14
    4d34:	15000500 	strne	r0, [r0, #-1280]	; 0x500
    4d38:	00148e01 	andseq	r8, r4, r1, lsl #28
    4d3c:	01d40100 	bicseq	r0, r4, r0, lsl #2
    4d40:	40002b68 	andmi	r2, r0, r8, ror #22
    4d44:	40002e38 	andmi	r2, r0, r8, lsr lr
    4d48:	00003050 	andeq	r3, r0, r0, asr r0
    4d4c:	000006aa 	andeq	r0, r0, sl, lsr #13
    4d50:	7172690d 	cmnvc	r2, sp, lsl #18
    4d54:	25d40100 	ldrbcs	r0, [r4, #256]	; 0x100
    4d58:	7d000000 	stcvc	0, cr0, [r0, #-0]
    4d5c:	10000030 	andne	r0, r0, r0, lsr r0
    4d60:	000002df 	ldrdeq	r0, [r0], -pc	; <UNPREDICTABLE>
    4d64:	02d8d401 	sbcseq	sp, r8, #16777216	; 0x1000000
    4d68:	30b10000 	adcscc	r0, r1, r0
    4d6c:	e5100000 	ldr	r0, [r0, #-0]
    4d70:	01000002 	tsteq	r0, r2
    4d74:	0002d8d4 	ldrdeq	sp, [r2], -r4
    4d78:	0030e500 	eorseq	lr, r0, r0, lsl #10
    4d7c:	13ae1300 			; <UNDEFINED> instruction: 0x13ae1300
    4d80:	d6010000 	strle	r0, [r1], -r0
    4d84:	00000438 	andeq	r0, r0, r8, lsr r4
    4d88:	7dd89103 	ldfvcp	f1, [r8, #12]
    4d8c:	00122813 	andseq	r2, r2, r3, lsl r8
    4d90:	38d70100 	ldmcc	r7, {r8}^
    4d94:	03000004 	movweq	r0, #4
    4d98:	1a7ebc91 	bne	1fb3fe4 <LOADER_PHYS_START-0x3e04c01c>
    4d9c:	0000129a 	muleq	r0, sl, r2
    4da0:	06aad901 	strteq	sp, [sl], r1, lsl #18
    4da4:	69140000 	ldmdbvs	r4, {}	; <UNPREDICTABLE>
    4da8:	25db0100 	ldrbcs	r0, [fp, #256]	; 0x100
    4dac:	19000000 	stmdbne	r0, {}	; <UNPREDICTABLE>
    4db0:	1b000031 	blne	4e7c <LOADER_PHYS_START-0x3fffb184>
    4db4:	40002b88 	andmi	r2, r0, r8, lsl #23
    4db8:	40002bcc 	andmi	r2, r0, ip, asr #23
    4dbc:	0000064b 	andeq	r0, r0, fp, asr #12
    4dc0:	00117b1a 	andseq	r7, r1, sl, lsl fp
    4dc4:	b0e90100 	rsclt	r0, r9, r0, lsl #2
    4dc8:	14000006 	strne	r0, [r0], #-6
    4dcc:	01006176 	tsteq	r0, r6, ror r1
    4dd0:	00002cea 	andeq	r2, r0, sl, ror #25
    4dd4:	00313800 	eorseq	r3, r1, r0, lsl #16
    4dd8:	12b51100 	adcsne	r1, r5, #0
    4ddc:	ea010000 	b	44de4 <LOADER_PHYS_START-0x3ffbb21c>
    4de0:	0000002c 	andeq	r0, r0, ip, lsr #32
    4de4:	00003157 	andeq	r3, r0, r7, asr r1
    4de8:	0a081c00 	beq	20bdf0 <LOADER_PHYS_START-0x3fdf4210>
    4dec:	06730000 	ldrbteq	r0, [r3], -r0
    4df0:	161d0000 	ldrne	r0, [sp], -r0
    4df4:	01000007 	tsteq	r0, r7
    4df8:	024d0110 	subeq	r0, sp, #4
    4dfc:	316b0000 	cmncc	fp, r0
    4e00:	691e0000 	ldmdbvs	lr, {}	; <UNPREDICTABLE>
    4e04:	01110100 	tsteq	r1, r0, lsl #2
    4e08:	00000025 	andeq	r0, r0, r5, lsr #32
    4e0c:	000031e7 	andeq	r3, r0, r7, ror #3
    4e10:	0a201f00 	beq	80ca18 <LOADER_PHYS_START-0x3f7f35e8>
    4e14:	69140000 	ldmdbvs	r4, {}	; <UNPREDICTABLE>
    4e18:	25f90100 	ldrbcs	r0, [r9, #256]!	; 0x100
    4e1c:	11000000 	mrsne	r0, (UNDEF: 0)
    4e20:	20000032 	andcs	r0, r0, r2, lsr r0
    4e24:	f901006a 			; <UNDEFINED> instruction: 0xf901006a
    4e28:	00000025 	andeq	r0, r0, r5, lsr #32
    4e2c:	00117b1a 	andseq	r7, r1, sl, lsl fp
    4e30:	b0fa0100 	rscslt	r0, sl, r0, lsl #2
    4e34:	11000006 	tstne	r0, r6
    4e38:	0000134b 	andeq	r1, r0, fp, asr #6
    4e3c:	002cfb01 	eoreq	pc, ip, r1, lsl #22
    4e40:	32300000 	eorscc	r0, r0, #0
    4e44:	00000000 	andeq	r0, r0, r0
    4e48:	02da0412 	sbcseq	r0, sl, #301989888	; 0x12000000
    4e4c:	04120000 	ldreq	r0, [r2], #-0
    4e50:	0000002c 	andeq	r0, r0, ip, lsr #32
    4e54:	12500116 	subsne	r0, r0, #-2147483643	; 0x80000005
    4e58:	c4010000 	strgt	r0, [r1], #-0
    4e5c:	002e3801 	eoreq	r3, lr, r1, lsl #16
    4e60:	002e4c40 	eoreq	r4, lr, r0, asr #24
    4e64:	007d0240 	rsbseq	r0, sp, r0, asr #4
    4e68:	000006f4 	strdeq	r0, [r0], -r4
    4e6c:	0013f30f 	andseq	pc, r3, pc, lsl #6
    4e70:	2cc40100 	stfcse	f0, [r4], {0}
    4e74:	01000000 	mrseq	r0, (UNDEF: 0)
    4e78:	72730e50 	rsbsvc	r0, r3, #1280	; 0x500
    4e7c:	c4010063 	strgt	r0, [r1], #-99	; 0x63
    4e80:	0000002c 	andeq	r0, r0, ip, lsr #32
    4e84:	9a1a5101 	bls	699290 <LOADER_PHYS_START-0x3f966d70>
    4e88:	01000012 	tsteq	r0, r2, lsl r0
    4e8c:	0006f4c6 	andeq	pc, r6, r6, asr #9
    4e90:	04120000 	ldreq	r0, [r2], #-0
    4e94:	000006fa 	strdeq	r0, [r0], -sl
    4e98:	0002da21 	andeq	sp, r2, r1, lsr #20
    4e9c:	81011600 	tsthi	r1, r0, lsl #12
    4ea0:	01000014 	tsteq	r0, r4, lsl r0
    4ea4:	2e4c01cf 	dvfcs<illegal precision>m	f0, f4, #10.0
    4ea8:	2e5c4000 	cdpcs	0, 5, cr4, cr12, cr0, {0}
    4eac:	7d024000 	stcvc	0, cr4, [r2, #-0]
    4eb0:	00072500 	andeq	r2, r7, r0, lsl #10
    4eb4:	6e630e00 	cdpvs	14, 6, cr0, cr3, cr0, {0}
    4eb8:	cf010074 	svcgt	0x00010074
    4ebc:	00000025 	andeq	r0, r0, r5, lsr #32
    4ec0:	22005001 	andcs	r5, r0, #1
    4ec4:	00121801 	andseq	r1, r2, r1, lsl #16
    4ec8:	01360100 	teqeq	r6, r0, lsl #2
    4ecc:	002e5c01 	eoreq	r5, lr, r1, lsl #24
    4ed0:	002ed040 	eoreq	sp, lr, r0, asr #32
    4ed4:	00327240 	eorseq	r7, r2, r0, asr #4
    4ed8:	00076d00 	andeq	r6, r7, r0, lsl #26
    4edc:	07162300 	ldreq	r2, [r6, -r0, lsl #6]
    4ee0:	36010000 	strcc	r0, [r1], -r0
    4ee4:	00076d01 	andeq	r6, r7, r1, lsl #26
    4ee8:	00329200 	eorseq	r9, r2, r0, lsl #4
    4eec:	70732400 	rsbsvc	r2, r3, r0, lsl #8
    4ef0:	01360100 	teqeq	r6, r0, lsl #2
    4ef4:	000006b0 			; <UNDEFINED> instruction: 0x000006b0
    4ef8:	000032b0 			; <UNDEFINED> instruction: 0x000032b0
    4efc:	0100691e 	tsteq	r0, lr, lsl r9
    4f00:	00250138 	eoreq	r0, r5, r8, lsr r1
    4f04:	32ce0000 	sbccc	r0, lr, #0
    4f08:	12000000 	andne	r0, r0, #0
    4f0c:	00024d04 	andeq	r4, r2, r4, lsl #26
    4f10:	d9012200 	stmdble	r1, {r9, sp}
    4f14:	0100000f 	tsteq	r0, pc
    4f18:	d0010145 	andle	r0, r1, r5, asr #2
    4f1c:	1840002e 	stmdane	r0, {r1, r2, r3, r5}^
    4f20:	e140002f 	cmp	r0, pc, lsr #32
    4f24:	9c000032 	stcls	0, cr0, [r0], {50}	; 0x32
    4f28:	1e000007 	cdpne	0, 0, cr0, cr0, cr7, {0}
    4f2c:	47010069 	strmi	r0, [r1, -r9, rrx]
    4f30:	00002501 	andeq	r2, r0, r1, lsl #10
    4f34:	00330100 	eorseq	r0, r3, r0, lsl #2
    4f38:	01250000 	teqeq	r5, r0
    4f3c:	00000e19 	andeq	r0, r0, r9, lsl lr
    4f40:	01014e01 	tsteq	r1, r1, lsl #28
    4f44:	40002f18 	andmi	r2, r0, r8, lsl pc
    4f48:	40002f50 	andmi	r2, r0, r0, asr pc
    4f4c:	00003320 	andeq	r3, r0, r0, lsr #6
    4f50:	14330125 	ldrtne	r0, [r3], #-293	; 0x125
    4f54:	56010000 	strpl	r0, [r1], -r0
    4f58:	2f500101 	svccs	0x00500101
    4f5c:	2f804000 	svccs	0x00804000
    4f60:	33404000 	movtcc	r4, #0
    4f64:	57260000 	strpl	r0, [r6, -r0]!
    4f68:	80000003 	andhi	r0, r0, r3
    4f6c:	9040002f 	subls	r0, r0, pc, lsr #32
    4f70:	0240002f 	subeq	r0, r0, #47	; 0x2f
    4f74:	0127007d 	teqeq	r7, sp, ror r0
    4f78:	000013f9 	strdeq	r1, [r0], -r9
    4f7c:	01016d01 	tsteq	r1, r1, lsl #26
    4f80:	40002f90 	mulmi	r0, r0, pc	; <UNPREDICTABLE>
    4f84:	40002fa0 	andmi	r2, r0, r0, lsr #31
    4f88:	00007d02 	andeq	r7, r0, r2, lsl #26
    4f8c:	28000008 	stmdacs	r0, {r3}
    4f90:	0000098f 	andeq	r0, r0, pc, lsl #19
    4f94:	25016d01 	strcs	r6, [r1, #-3329]	; 0xd01
    4f98:	01000000 	mrseq	r0, (UNDEF: 0)
    4f9c:	be290050 	mcrlt	0, 1, r0, cr9, cr0, {2}
    4fa0:	01000013 	tsteq	r0, r3, lsl r0
    4fa4:	00250166 	eoreq	r0, r5, r6, ror #2
    4fa8:	03050000 	movweq	r0, #20480	; 0x5000
    4fac:	40003bbc 			; <UNDEFINED> instruction: 0x40003bbc
    4fb0:	000ff72a 	andeq	pc, pc, sl, lsr #14
    4fb4:	2c1a0400 	cfldrscs	mvf0, [sl], {-0}
    4fb8:	01000000 	mrseq	r0, (UNDEF: 0)
    4fbc:	14142a01 	ldrne	r2, [r4], #-2561	; 0xa01
    4fc0:	1b040000 	blne	104fc8 <LOADER_PHYS_START-0x3fefb038>
    4fc4:	0000002c 	andeq	r0, r0, ip, lsr #32
    4fc8:	712a0101 	teqvc	sl, r1, lsl #2
    4fcc:	03000013 	movweq	r0, #19
    4fd0:	00002c5d 	andeq	r2, r0, sp, asr ip
    4fd4:	2a010100 	bcs	453dc <LOADER_PHYS_START-0x3ffbac24>
    4fd8:	00000c43 	andeq	r0, r0, r3, asr #24
    4fdc:	002c1804 	eoreq	r1, ip, r4, lsl #16
    4fe0:	01010000 	mrseq	r0, (UNDEF: 1)
    4fe4:	0012a72a 	andseq	sl, r2, sl, lsr #14
    4fe8:	2c690300 	stclcs	3, cr0, [r9], #-0
    4fec:	01000000 	mrseq	r0, (UNDEF: 0)
    4ff0:	13db2a01 	bicsne	r2, fp, #4096	; 0x1000
    4ff4:	6a030000 	bvs	c4ffc <LOADER_PHYS_START-0x3ff3b004>
    4ff8:	0000002c 	andeq	r0, r0, ip, lsr #32
    4ffc:	5e070101 	adfpls	f0, f7, f1
    5000:	71000000 	mrsvc	r0, (UNDEF: 0)
    5004:	2b000008 	blcs	502c <LOADER_PHYS_START-0x3fffafd4>
    5008:	00000037 	andeq	r0, r0, r7, lsr r0
    500c:	2c00464f 	stccs	6, cr4, [r0], {79}	; 0x4f
    5010:	00001194 	muleq	r0, r4, r1
    5014:	08600d01 	stmdaeq	r0!, {r0, r8, sl, fp}^
    5018:	05010000 	streq	r0, [r1, #-0]
    501c:	0043c403 	subeq	ip, r3, r3, lsl #8
    5020:	11d12c40 	bicsne	r2, r1, r0, asr #24
    5024:	0e010000 	cdpeq	0, 0, cr0, cr1, cr0, {0}
    5028:	0000002c 	andeq	r0, r0, ip, lsr #32
    502c:	88030501 	stmdahi	r3, {r0, r8, sl}
    5030:	2c400fa5 	mcrrcs	15, 10, r0, r0, cr5
    5034:	000011be 			; <UNDEFINED> instruction: 0x000011be
    5038:	024d0f01 	subeq	r0, sp, #4
    503c:	05010000 	streq	r0, [r1, #-0]
    5040:	0fa54803 	svceq	0x00a54803
    5044:	13162c40 	tstne	r6, #16384	; 0x4000
    5048:	10010000 	andne	r0, r1, r0
    504c:	0000002c 	andeq	r0, r0, ip, lsr #32
    5050:	44030501 	strmi	r0, [r3], #-1281	; 0x501
    5054:	2c400fa5 	mcrrcs	15, 10, r0, r0, cr5
    5058:	000013ce 	andeq	r1, r0, lr, asr #7
    505c:	0025cd01 	eoreq	ip, r5, r1, lsl #26
    5060:	05010000 	streq	r0, [r1, #-0]
    5064:	0fa58c03 	svceq	0x00a58c03
    5068:	Address 0x0000000000005068 is out of bounds.


Disassembly of section .debug_abbrev:

00000000 <.debug_abbrev>:
       0:	10001101 	andne	r1, r0, r1, lsl #2
       4:	12011106 	andne	r1, r1, #-2147483647	; 0x80000001
       8:	1b080301 	blne	200c14 <LOADER_PHYS_START-0x3fdff3ec>
       c:	13082508 	movwne	r2, #34056	; 0x8508
      10:	00000005 	andeq	r0, r0, r5
      14:	25011101 	strcs	r1, [r1, #-257]	; 0x101
      18:	030b130e 	movweq	r1, #45838	; 0xb30e
      1c:	110e1b0e 	tstne	lr, lr, lsl #22
      20:	55015201 	strpl	r5, [r1, #-513]	; 0x201
      24:	00061006 	andeq	r1, r6, r6
      28:	00240200 	eoreq	r0, r4, r0, lsl #4
      2c:	0b3e0b0b 	bleq	f82c60 <LOADER_PHYS_START-0x3f07d3a0>
      30:	00000803 	andeq	r0, r0, r3, lsl #16
      34:	0b002403 	bleq	9048 <LOADER_PHYS_START-0x3fff6fb8>
      38:	030b3e0b 	movweq	r3, #48651	; 0xbe0b
      3c:	0400000e 	streq	r0, [r0], #-14
      40:	0e03002e 	cdpeq	0, 0, cr0, cr3, cr14, {1}
      44:	0b3b0b3a 	bleq	ec2d34 <LOADER_PHYS_START-0x3f13d2cc>
      48:	0b200c27 	bleq	8030ec <LOADER_PHYS_START-0x3f7fcf14>
      4c:	2e050000 	cdpcs	0, 0, cr0, cr5, cr0, {0}
      50:	3a0e0301 	bcc	380c5c <LOADER_PHYS_START-0x3fc7f3a4>
      54:	270b3b0b 	strcs	r3, [fp, -fp, lsl #22]
      58:	010b200c 	tsteq	fp, ip
      5c:	06000013 			; <UNDEFINED> instruction: 0x06000013
      60:	0e030034 	mcreq	0, 0, r0, cr3, cr4, {1}
      64:	0b3b0b3a 	bleq	ec2d54 <LOADER_PHYS_START-0x3f13d2ac>
      68:	00001349 	andeq	r1, r0, r9, asr #6
      6c:	49010107 	stmdbmi	r1, {r0, r1, r2, r8}
      70:	00130113 	andseq	r0, r3, r3, lsl r1
      74:	00210800 	eoreq	r0, r1, r0, lsl #16
      78:	0b2f1349 	bleq	bc4da4 <LOADER_PHYS_START-0x3f43b25c>
      7c:	2e090000 	cdpcs	0, 0, cr0, cr9, cr0, {0}
      80:	030c3f01 	movweq	r3, #52993	; 0xcf01
      84:	3b0b3a0e 	blcc	2ce8c4 <LOADER_PHYS_START-0x3fd3173c>
      88:	110c270b 	tstne	ip, fp, lsl #14
      8c:	40011201 	andmi	r1, r1, r1, lsl #4
      90:	0013010a 	andseq	r0, r3, sl, lsl #2
      94:	00050a00 	andeq	r0, r5, r0, lsl #20
      98:	0b3a0e03 	bleq	e838ac <LOADER_PHYS_START-0x3f17c754>
      9c:	13490b3b 	movtne	r0, #39739	; 0x9b3b
      a0:	00000a02 	andeq	r0, r0, r2, lsl #20
      a4:	3f012e0b 	svccc	0x00012e0b
      a8:	3a0e030c 	bcc	380ce0 <LOADER_PHYS_START-0x3fc7f320>
      ac:	270b3b0b 	strcs	r3, [fp, -fp, lsl #22]
      b0:	1201110c 	andne	r1, r1, #3
      b4:	01064001 	tsteq	r6, r1
      b8:	0c000013 	stceq	0, cr0, [r0], {19}
      bc:	0e030005 	cdpeq	0, 0, cr0, cr3, cr5, {0}
      c0:	0b3b0b3a 	bleq	ec2db0 <LOADER_PHYS_START-0x3f13d250>
      c4:	06021349 	streq	r1, [r2], -r9, asr #6
      c8:	1d0d0000 	stcne	0, cr0, [sp, #-0]
      cc:	52133100 	andspl	r3, r3, #0
      d0:	58065501 	stmdapl	r6, {r0, r8, sl, ip, lr}
      d4:	000b590b 	andeq	r5, fp, fp, lsl #18
      d8:	011d0e00 	tsteq	sp, r0, lsl #28
      dc:	01111331 	tsteq	r1, r1, lsr r3
      e0:	0b580112 	bleq	1600530 <LOADER_PHYS_START-0x3e9ffad0>
      e4:	00000b59 	andeq	r0, r0, r9, asr fp
      e8:	11010b0f 	tstne	r1, pc, lsl #22
      ec:	00011201 	andeq	r1, r1, r1, lsl #4
      f0:	00341000 	eorseq	r1, r4, r0
      f4:	0a021331 	beq	84dc0 <LOADER_PHYS_START-0x3ff7b240>
      f8:	34110000 	ldrcc	r0, [r1], #-0
      fc:	3a0e0300 	bcc	380d04 <LOADER_PHYS_START-0x3fc7f2fc>
     100:	490b3b0b 	stmdbmi	fp, {r0, r1, r3, r8, r9, fp, ip, sp}
     104:	020c3f13 	andeq	r3, ip, #76	; 0x4c
     108:	1200000a 	andne	r0, r0, #10
     10c:	13490035 	movtne	r0, #36917	; 0x9035
     110:	01000000 	mrseq	r0, (UNDEF: 0)
     114:	0e250111 	mcreq	1, 1, r0, cr5, cr1, {0}
     118:	0e030b13 	vmoveq.32	d3[0], r0
     11c:	01110e1b 	tsteq	r1, fp, lsl lr
     120:	06100112 			; <UNDEFINED> instruction: 0x06100112
     124:	24020000 	strcs	r0, [r2], #-0
     128:	3e0b0b00 	vmlacc.f64	d0, d11, d0
     12c:	0008030b 	andeq	r0, r8, fp, lsl #6
     130:	00160300 	andseq	r0, r6, r0, lsl #6
     134:	0b3a0e03 	bleq	e83948 <LOADER_PHYS_START-0x3f17c6b8>
     138:	13490b3b 	movtne	r0, #39739	; 0x9b3b
     13c:	24040000 	strcs	r0, [r4], #-0
     140:	3e0b0b00 	vmlacc.f64	d0, d11, d0
     144:	000e030b 	andeq	r0, lr, fp, lsl #6
     148:	01170500 	tsteq	r7, r0, lsl #10
     14c:	0b0b0e03 	bleq	2c3960 <LOADER_PHYS_START-0x3fd3c6a0>
     150:	0b3b0b3a 	bleq	ec2e40 <LOADER_PHYS_START-0x3f13d1c0>
     154:	00001301 	andeq	r1, r0, r1, lsl #6
     158:	03000d06 	movweq	r0, #3334	; 0xd06
     15c:	3b0b3a0e 	blcc	2ce99c <LOADER_PHYS_START-0x3fd31664>
     160:	0013490b 	andseq	r4, r3, fp, lsl #18
     164:	01130700 	tsteq	r3, r0, lsl #14
     168:	060b0e03 	streq	r0, [fp], -r3, lsl #28
     16c:	0b3b0b3a 	bleq	ec2e5c <LOADER_PHYS_START-0x3f13d1a4>
     170:	00001301 	andeq	r1, r0, r1, lsl #6
     174:	03000d08 	movweq	r0, #3336	; 0xd08
     178:	3b0b3a0e 	blcc	2ce9b8 <LOADER_PHYS_START-0x3fd31648>
     17c:	3813490b 	ldmdacc	r3, {r0, r1, r3, r8, fp, lr}
     180:	0900000a 	stmdbeq	r0, {r1, r3}
     184:	13490101 	movtne	r0, #37121	; 0x9101
     188:	00001301 	andeq	r1, r0, r1, lsl #6
     18c:	4900210a 	stmdbmi	r0, {r1, r3, r8, sp}
     190:	000b2f13 	andeq	r2, fp, r3, lsl pc
     194:	00210b00 	eoreq	r0, r1, r0, lsl #22
     198:	052f1349 	streq	r1, [pc, #-841]!	; fffffe57 <restore_guest_end+0x8f8ffe57>
     19c:	2e0c0000 	cdpcs	0, 0, cr0, cr12, cr0, {0}
     1a0:	3a0e0301 	bcc	380dac <LOADER_PHYS_START-0x3fc7f254>
     1a4:	270b3b0b 	strcs	r3, [fp, -fp, lsl #22]
     1a8:	2013490c 	andscs	r4, r3, ip, lsl #18
     1ac:	0013010b 	andseq	r0, r3, fp, lsl #2
     1b0:	00050d00 	andeq	r0, r5, r0, lsl #26
     1b4:	0b3a0803 	bleq	e821c8 <LOADER_PHYS_START-0x3f17de38>
     1b8:	13490b3b 	movtne	r0, #39739	; 0x9b3b
     1bc:	340e0000 	strcc	r0, [lr], #-0
     1c0:	3a0e0300 	bcc	380dc8 <LOADER_PHYS_START-0x3fc7f238>
     1c4:	490b3b0b 	stmdbmi	fp, {r0, r1, r3, r8, r9, fp, ip, sp}
     1c8:	0f000013 	svceq	0x00000013
     1cc:	0000010b 	andeq	r0, r0, fp, lsl #2
     1d0:	03003410 	movweq	r3, #1040	; 0x410
     1d4:	3b0b3a08 	blcc	2ce9fc <LOADER_PHYS_START-0x3fd31604>
     1d8:	0013490b 	andseq	r4, r3, fp, lsl #18
     1dc:	000f1100 	andeq	r1, pc, r0, lsl #2
     1e0:	13490b0b 	movtne	r0, #39691	; 0x9b0b
     1e4:	2e120000 	cdpcs	0, 1, cr0, cr2, cr0, {0}
     1e8:	030c3f00 	movweq	r3, #52992	; 0xcf00
     1ec:	3b0b3a0e 	blcc	2cea2c <LOADER_PHYS_START-0x3fd315d4>
     1f0:	490c270b 	stmdbmi	ip, {r0, r1, r3, r8, r9, sl, sp}
     1f4:	12011113 	andne	r1, r1, #-1073741820	; 0xc0000004
     1f8:	000a4001 	andeq	r4, sl, r1
     1fc:	012e1300 	teqeq	lr, r0, lsl #6
     200:	0e030c3f 	mcreq	12, 0, r0, cr3, cr15, {1}
     204:	0b3b0b3a 	bleq	ec2ef4 <LOADER_PHYS_START-0x3f13d10c>
     208:	13490c27 	movtne	r0, #39975	; 0x9c27
     20c:	01120111 	tsteq	r2, r1, lsl r1
     210:	13010a40 	movwne	r0, #6720	; 0x1a40
     214:	05140000 	ldreq	r0, [r4, #-0]
     218:	3a0e0300 	bcc	380e20 <LOADER_PHYS_START-0x3fc7f1e0>
     21c:	490b3b0b 	stmdbmi	fp, {r0, r1, r3, r8, r9, fp, ip, sp}
     220:	00060213 	andeq	r0, r6, r3, lsl r2
     224:	00341500 	eorseq	r1, r4, r0, lsl #10
     228:	0b3a0e03 	bleq	e83a3c <LOADER_PHYS_START-0x3f17c5c4>
     22c:	13490b3b 	movtne	r0, #39739	; 0x9b3b
     230:	00000a02 	andeq	r0, r0, r2, lsl #20
     234:	11010b16 	tstne	r1, r6, lsl fp
     238:	00011201 	andeq	r1, r1, r1, lsl #4
     23c:	00341700 	eorseq	r1, r4, r0, lsl #14
     240:	0b3a0803 	bleq	e82254 <LOADER_PHYS_START-0x3f17ddac>
     244:	13490b3b 	movtne	r0, #39739	; 0x9b3b
     248:	00000602 	andeq	r0, r0, r2, lsl #12
     24c:	49002618 	stmdbmi	r0, {r3, r4, r9, sl, sp}
     250:	19000013 	stmdbne	r0, {r0, r1, r4}
     254:	1331011d 	teqne	r1, #1073741831	; 0x40000007
     258:	01120111 	tsteq	r2, r1, lsl r1
     25c:	0b590b58 	bleq	1642fc4 <LOADER_PHYS_START-0x3e9bd03c>
     260:	00001301 	andeq	r1, r0, r1, lsl #6
     264:	3100051a 	tstcc	r0, sl, lsl r5
     268:	00060213 	andeq	r0, r6, r3, lsl r2
     26c:	00341b00 	eorseq	r1, r4, r0, lsl #22
     270:	06021331 			; <UNDEFINED> instruction: 0x06021331
     274:	0b1c0000 	bleq	70027c <LOADER_PHYS_START-0x3f8ffd84>
     278:	12011101 	andne	r1, r1, #1073741824	; 0x40000000
     27c:	00130101 	andseq	r0, r3, r1, lsl #2
     280:	012e1d00 	teqeq	lr, r0, lsl #26
     284:	0e030c3f 	mcreq	12, 0, r0, cr3, cr15, {1}
     288:	0b3b0b3a 	bleq	ec2f78 <LOADER_PHYS_START-0x3f13d088>
     28c:	01110c27 	tsteq	r1, r7, lsr #24
     290:	0a400112 	beq	10006e0 <LOADER_PHYS_START-0x3efff920>
     294:	00001301 	andeq	r1, r0, r1, lsl #6
     298:	0300051e 	movweq	r0, #1310	; 0x51e
     29c:	3b0b3a08 	blcc	2ceac4 <LOADER_PHYS_START-0x3fd3153c>
     2a0:	0213490b 	andseq	r4, r3, #180224	; 0x2c000
     2a4:	1f00000a 	svcne	0x0000000a
     2a8:	08030034 	stmdaeq	r3, {r2, r4, r5}
     2ac:	0b3b0b3a 	bleq	ec2f9c <LOADER_PHYS_START-0x3f13d064>
     2b0:	0a021349 	beq	84fdc <LOADER_PHYS_START-0x3ff7b024>
     2b4:	05200000 	streq	r0, [r0, #-0]!
     2b8:	3a0e0300 	bcc	380ec0 <LOADER_PHYS_START-0x3fc7f140>
     2bc:	490b3b0b 	stmdbmi	fp, {r0, r1, r3, r8, r9, fp, ip, sp}
     2c0:	000a0213 	andeq	r0, sl, r3, lsl r2
     2c4:	00342100 	eorseq	r2, r4, r0, lsl #2
     2c8:	0b3a0e03 	bleq	e83adc <LOADER_PHYS_START-0x3f17c524>
     2cc:	13490b3b 	movtne	r0, #39739	; 0x9b3b
     2d0:	0000061c 	andeq	r0, r0, ip, lsl r6
     2d4:	03003422 	movweq	r3, #1058	; 0x422
     2d8:	3b0b3a08 	blcc	2ceb00 <LOADER_PHYS_START-0x3fd31500>
     2dc:	1c13490b 	ldcne	9, cr4, [r3], {11}
     2e0:	2300000b 	movwcs	r0, #11
     2e4:	0655010b 	ldrbeq	r0, [r5], -fp, lsl #2
     2e8:	00001301 	andeq	r1, r0, r1, lsl #6
     2ec:	03003424 	movweq	r3, #1060	; 0x424
     2f0:	3b0b3a08 	blcc	2ceb18 <LOADER_PHYS_START-0x3fd314e8>
     2f4:	1c13490b 	ldcne	9, cr4, [r3], {11}
     2f8:	00000005 	andeq	r0, r0, r5
     2fc:	25011101 	strcs	r1, [r1, #-257]	; 0x101
     300:	030b130e 	movweq	r1, #45838	; 0xb30e
     304:	110e1b0e 	tstne	lr, lr, lsl #22
     308:	10011201 	andne	r1, r1, r1, lsl #4
     30c:	02000006 	andeq	r0, r0, #6
     310:	0b0b0024 	bleq	2c03a8 <LOADER_PHYS_START-0x3fd3fc58>
     314:	08030b3e 	stmdaeq	r3, {r1, r2, r3, r4, r5, r8, r9, fp}
     318:	16030000 	strne	r0, [r3], -r0
     31c:	3a0e0300 	bcc	380f24 <LOADER_PHYS_START-0x3fc7f0dc>
     320:	490b3b0b 	stmdbmi	fp, {r0, r1, r3, r8, r9, fp, ip, sp}
     324:	04000013 	streq	r0, [r0], #-19
     328:	0b0b0024 	bleq	2c03c0 <LOADER_PHYS_START-0x3fd3fc40>
     32c:	0e030b3e 	vmoveq.16	d3[0], r0
     330:	2e050000 	cdpcs	0, 0, cr0, cr5, cr0, {0}
     334:	030c3f01 	movweq	r3, #52993	; 0xcf01
     338:	3b0b3a0e 	blcc	2ceb78 <LOADER_PHYS_START-0x3fd31488>
     33c:	110c270b 	tstne	ip, fp, lsl #14
     340:	40011201 	andmi	r1, r1, r1, lsl #4
     344:	00130106 	andseq	r0, r3, r6, lsl #2
     348:	00050600 	andeq	r0, r5, r0, lsl #12
     34c:	0b3a0803 	bleq	e82360 <LOADER_PHYS_START-0x3f17dca0>
     350:	13490b3b 	movtne	r0, #39739	; 0x9b3b
     354:	00000602 	andeq	r0, r0, r2, lsl #12
     358:	49002607 	stmdbmi	r0, {r0, r1, r2, r9, sl, sp}
     35c:	08000013 	stmdaeq	r0, {r0, r1, r4}
     360:	0c3f002e 	ldceq	0, cr0, [pc], #-184	; 2b0 <LOADER_PHYS_START-0x3ffffd50>
     364:	0b3a0e03 	bleq	e83b78 <LOADER_PHYS_START-0x3f17c488>
     368:	0c270b3b 	stceq	11, cr0, [r7], #-236	; 0xffffff14
     36c:	01111349 	tsteq	r1, r9, asr #6
     370:	06400112 			; <UNDEFINED> instruction: 0x06400112
     374:	34090000 	strcc	r0, [r9], #-0
     378:	3a080300 	bcc	200f80 <LOADER_PHYS_START-0x3fdff080>
     37c:	490b3b0b 	stmdbmi	fp, {r0, r1, r3, r8, r9, fp, ip, sp}
     380:	00060213 	andeq	r0, r6, r3, lsl r2
     384:	000f0a00 	andeq	r0, pc, r0, lsl #20
     388:	13490b0b 	movtne	r0, #39691	; 0x9b0b
     38c:	340b0000 	strcc	r0, [fp], #-0
     390:	3a0e0300 	bcc	380f98 <LOADER_PHYS_START-0x3fc7f068>
     394:	490b3b0b 	stmdbmi	fp, {r0, r1, r3, r8, r9, fp, ip, sp}
     398:	000b1c13 	andeq	r1, fp, r3, lsl ip
     39c:	00340c00 	eorseq	r0, r4, r0, lsl #24
     3a0:	0b3a0803 	bleq	e823b4 <LOADER_PHYS_START-0x3f17dc4c>
     3a4:	13490b3b 	movtne	r0, #39739	; 0x9b3b
     3a8:	2e0d0000 	cdpcs	0, 0, cr0, cr13, cr0, {0}
     3ac:	030c3f01 	movweq	r3, #52993	; 0xcf01
     3b0:	3b0b3a0e 	blcc	2cebf0 <LOADER_PHYS_START-0x3fd31410>
     3b4:	490c270b 	stmdbmi	ip, {r0, r1, r3, r8, r9, sl, sp}
     3b8:	12011113 	andne	r1, r1, #-1073741820	; 0xc0000004
     3bc:	01064001 	tsteq	r6, r1
     3c0:	0e000013 	mcreq	0, 0, r0, cr0, cr3, {0}
     3c4:	08030034 	stmdaeq	r3, {r2, r4, r5}
     3c8:	0b3b0b3a 	bleq	ec30b8 <LOADER_PHYS_START-0x3f13cf48>
     3cc:	0a021349 	beq	850f8 <LOADER_PHYS_START-0x3ff7af08>
     3d0:	050f0000 	streq	r0, [pc, #-0]	; 3d8 <LOADER_PHYS_START-0x3ffffc28>
     3d4:	3a0e0300 	bcc	380fdc <LOADER_PHYS_START-0x3fc7f024>
     3d8:	490b3b0b 	stmdbmi	fp, {r0, r1, r3, r8, r9, fp, ip, sp}
     3dc:	00060213 	andeq	r0, r6, r3, lsl r2
     3e0:	00341000 	eorseq	r1, r4, r0
     3e4:	0b3a0e03 	bleq	e83bf8 <LOADER_PHYS_START-0x3f17c408>
     3e8:	13490b3b 	movtne	r0, #39739	; 0x9b3b
     3ec:	00000602 	andeq	r0, r0, r2, lsl #12
     3f0:	3f002e11 	svccc	0x00002e11
     3f4:	3a0e030c 	bcc	38102c <LOADER_PHYS_START-0x3fc7efd4>
     3f8:	270b3b0b 	strcs	r3, [fp, -fp, lsl #22]
     3fc:	1201110c 	andne	r1, r1, #3
     400:	00064001 	andeq	r4, r6, r1
     404:	11010000 	mrsne	r0, (UNDEF: 1)
     408:	130e2501 	movwne	r2, #58625	; 0xe501
     40c:	1b0e030b 	blne	381040 <LOADER_PHYS_START-0x3fc7efc0>
     410:	1201110e 	andne	r1, r1, #-2147483645	; 0x80000003
     414:	00061001 	andeq	r1, r6, r1
     418:	00240200 	eoreq	r0, r4, r0, lsl #4
     41c:	0b3e0b0b 	bleq	f83050 <LOADER_PHYS_START-0x3f07cfb0>
     420:	00000803 	andeq	r0, r0, r3, lsl #16
     424:	0b002403 	bleq	9438 <LOADER_PHYS_START-0x3fff6bc8>
     428:	030b3e0b 	movweq	r3, #48651	; 0xbe0b
     42c:	0400000e 	streq	r0, [r0], #-14
     430:	0b0b000f 	bleq	2c0474 <LOADER_PHYS_START-0x3fd3fb8c>
     434:	2e050000 	cdpcs	0, 0, cr0, cr5, cr0, {0}
     438:	030c3f01 	movweq	r3, #52993	; 0xcf01
     43c:	3b0b3a0e 	blcc	2cec7c <LOADER_PHYS_START-0x3fd31384>
     440:	110c270b 	tstne	ip, fp, lsl #14
     444:	40011201 	andmi	r1, r1, r1, lsl #4
     448:	00130106 	andseq	r0, r3, r6, lsl #2
     44c:	00050600 	andeq	r0, r5, r0, lsl #12
     450:	0b3a0803 	bleq	e82464 <LOADER_PHYS_START-0x3f17db9c>
     454:	13490b3b 	movtne	r0, #39739	; 0x9b3b
     458:	00000602 	andeq	r0, r0, r2, lsl #12
     45c:	03000507 	movweq	r0, #1287	; 0x507
     460:	3b0b3a0e 	blcc	2ceca0 <LOADER_PHYS_START-0x3fd31360>
     464:	0213490b 	andseq	r4, r3, #180224	; 0x2c000
     468:	08000006 	stmdaeq	r0, {r1, r2}
     46c:	0c3f012e 	ldfeqs	f0, [pc], #-184	; 3bc <LOADER_PHYS_START-0x3ffffc44>
     470:	0b3a0e03 	bleq	e83c84 <LOADER_PHYS_START-0x3f17c37c>
     474:	13490b3b 	movtne	r0, #39739	; 0x9b3b
     478:	00000c3c 	andeq	r0, r0, ip, lsr ip
     47c:	00001809 	andeq	r1, r0, r9, lsl #16
     480:	002e0a00 	eoreq	r0, lr, r0, lsl #20
     484:	0e030c3f 	mcreq	12, 0, r0, cr3, cr15, {1}
     488:	0b3b0b3a 	bleq	ec3178 <LOADER_PHYS_START-0x3f13ce88>
     48c:	01110c27 	tsteq	r1, r7, lsr #24
     490:	0a400112 	beq	10008e0 <LOADER_PHYS_START-0x3efff720>
     494:	2e0b0000 	cdpcs	0, 0, cr0, cr11, cr0, {0}
     498:	030c3f00 	movweq	r3, #52992	; 0xcf00
     49c:	3b0b3a0e 	blcc	2cecdc <LOADER_PHYS_START-0x3fd31324>
     4a0:	110c270b 	tstne	ip, fp, lsl #14
     4a4:	40011201 	andmi	r1, r1, r1, lsl #4
     4a8:	0c000006 	stceq	0, cr0, [r0], {6}
     4ac:	0e030034 	mcreq	0, 0, r0, cr3, cr4, {1}
     4b0:	0b3b0b3a 	bleq	ec31a0 <LOADER_PHYS_START-0x3f13ce60>
     4b4:	0c3f1349 	ldceq	3, cr1, [pc], #-292	; 398 <LOADER_PHYS_START-0x3ffffc68>
     4b8:	00000a02 	andeq	r0, r0, r2, lsl #20
     4bc:	01110100 	tsteq	r1, r0, lsl #2
     4c0:	0b130e25 	bleq	4c3d5c <LOADER_PHYS_START-0x3fb3c2a4>
     4c4:	0e1b0e03 	cdpeq	14, 1, cr0, cr11, cr3, {0}
     4c8:	01120111 	tsteq	r2, r1, lsl r1
     4cc:	00000610 	andeq	r0, r0, r0, lsl r6
     4d0:	03011302 	movweq	r1, #4866	; 0x1302
     4d4:	3a0b0b0e 	bcc	2c3114 <LOADER_PHYS_START-0x3fd3ceec>
     4d8:	010b3b0b 	tsteq	fp, fp, lsl #22
     4dc:	03000013 	movweq	r0, #19
     4e0:	0803000d 	stmdaeq	r3, {r0, r2, r3}
     4e4:	0b3b0b3a 	bleq	ec31d4 <LOADER_PHYS_START-0x3f13ce2c>
     4e8:	0a381349 	beq	e05214 <LOADER_PHYS_START-0x3f1fadec>
     4ec:	0d040000 	stceq	0, cr0, [r4, #-0]
     4f0:	3a0e0300 	bcc	3810f8 <LOADER_PHYS_START-0x3fc7ef08>
     4f4:	490b3b0b 	stmdbmi	fp, {r0, r1, r3, r8, r9, fp, ip, sp}
     4f8:	000a3813 	andeq	r3, sl, r3, lsl r8
     4fc:	00240500 	eoreq	r0, r4, r0, lsl #10
     500:	0b3e0b0b 	bleq	f83134 <LOADER_PHYS_START-0x3f07cecc>
     504:	00000e03 	andeq	r0, r0, r3, lsl #28
     508:	49010106 	stmdbmi	r1, {r1, r2, r8}
     50c:	00130113 	andseq	r0, r3, r3, lsl r1
     510:	00210700 	eoreq	r0, r1, r0, lsl #14
     514:	0b2f1349 	bleq	bc5240 <LOADER_PHYS_START-0x3f43adc0>
     518:	24080000 	strcs	r0, [r8], #-0
     51c:	3e0b0b00 	vmlacc.f64	d0, d11, d0
     520:	0008030b 	andeq	r0, r8, fp, lsl #6
     524:	00160900 	andseq	r0, r6, r0, lsl #18
     528:	0b3a0e03 	bleq	e83d3c <LOADER_PHYS_START-0x3f17c2c4>
     52c:	13490b3b 	movtne	r0, #39739	; 0x9b3b
     530:	2e0a0000 	cdpcs	0, 0, cr0, cr10, cr0, {0}
     534:	030c3f01 	movweq	r3, #52993	; 0xcf01
     538:	3b0b3a0e 	blcc	2ced78 <LOADER_PHYS_START-0x3fd31288>
     53c:	200c270b 	andcs	r2, ip, fp, lsl #14
     540:	0013010b 	andseq	r0, r3, fp, lsl #2
     544:	00050b00 	andeq	r0, r5, r0, lsl #22
     548:	0b3a0e03 	bleq	e83d5c <LOADER_PHYS_START-0x3f17c2a4>
     54c:	13490b3b 	movtne	r0, #39739	; 0x9b3b
     550:	050c0000 	streq	r0, [ip, #-0]
     554:	3a080300 	bcc	20115c <LOADER_PHYS_START-0x3fdfeea4>
     558:	490b3b0b 	stmdbmi	fp, {r0, r1, r3, r8, r9, fp, ip, sp}
     55c:	0d000013 	stceq	0, cr0, [r0, #-76]	; 0xffffffb4
     560:	0e030034 	mcreq	0, 0, r0, cr3, cr4, {1}
     564:	0b3b0b3a 	bleq	ec3254 <LOADER_PHYS_START-0x3f13cdac>
     568:	00001349 	andeq	r1, r0, r9, asr #6
     56c:	01010b0e 	tsteq	r1, lr, lsl #22
     570:	0f000013 	svceq	0x00000013
     574:	08030034 	stmdaeq	r3, {r2, r4, r5}
     578:	0b3b0b3a 	bleq	ec3268 <LOADER_PHYS_START-0x3f13cd98>
     57c:	00001349 	andeq	r1, r0, r9, asr #6
     580:	00010b10 	andeq	r0, r1, r0, lsl fp
     584:	000f1100 	andeq	r1, pc, r0, lsl #2
     588:	13490b0b 	movtne	r0, #39691	; 0x9b0b
     58c:	2e120000 	cdpcs	0, 1, cr0, cr2, cr0, {0}
     590:	3a0e0301 	bcc	38119c <LOADER_PHYS_START-0x3fc7ee64>
     594:	270b3b0b 	strcs	r3, [fp, -fp, lsl #22]
     598:	2013490c 	andscs	r4, r3, ip, lsl #18
     59c:	0013010b 	andseq	r0, r3, fp, lsl #2
     5a0:	012e1300 	teqeq	lr, r0, lsl #6
     5a4:	0e030c3f 	mcreq	12, 0, r0, cr3, cr15, {1}
     5a8:	0b3b0b3a 	bleq	ec3298 <LOADER_PHYS_START-0x3f13cd68>
     5ac:	13490c27 	movtne	r0, #39975	; 0x9c27
     5b0:	13010b20 	movwne	r0, #6944	; 0x1b20
     5b4:	2e140000 	cdpcs	0, 1, cr0, cr4, cr0, {0}
     5b8:	11133101 	tstne	r3, r1, lsl #2
     5bc:	40011201 	andmi	r1, r1, r1, lsl #4
     5c0:	0013010a 	andseq	r0, r3, sl, lsl #2
     5c4:	00051500 	andeq	r1, r5, r0, lsl #10
     5c8:	0a021331 	beq	85294 <LOADER_PHYS_START-0x3ff7ad6c>
     5cc:	05160000 	ldreq	r0, [r6, #-0]
     5d0:	02133100 	andseq	r3, r3, #0
     5d4:	17000006 	strne	r0, [r0, -r6]
     5d8:	13310034 	teqne	r1, #52	; 0x34
     5dc:	00000602 	andeq	r0, r0, r2, lsl #12
     5e0:	11010b18 	tstne	r1, r8, lsl fp
     5e4:	01011201 	tsteq	r1, r1, lsl #4
     5e8:	19000013 	stmdbne	r0, {r0, r1, r4}
     5ec:	0111010b 	tsteq	r1, fp, lsl #2
     5f0:	00000112 	andeq	r0, r0, r2, lsl r1
     5f4:	3100341a 	tstcc	r0, sl, lsl r4
     5f8:	000a0213 	andeq	r0, sl, r3, lsl r2
     5fc:	012e1b00 	teqeq	lr, r0, lsl #22
     600:	0e030c3f 	mcreq	12, 0, r0, cr3, cr15, {1}
     604:	0b3b0b3a 	bleq	ec32f4 <LOADER_PHYS_START-0x3f13cd0c>
     608:	01110c27 	tsteq	r1, r7, lsr #24
     60c:	06400112 			; <UNDEFINED> instruction: 0x06400112
     610:	00001301 	andeq	r1, r0, r1, lsl #6
     614:	0300051c 	movweq	r0, #1308	; 0x51c
     618:	3b0b3a0e 	blcc	2cee58 <LOADER_PHYS_START-0x3fd311a8>
     61c:	0213490b 	andseq	r4, r3, #180224	; 0x2c000
     620:	1d00000a 	stcne	0, cr0, [r0, #-40]	; 0xffffffd8
     624:	0e030005 	cdpeq	0, 0, cr0, cr3, cr5, {0}
     628:	0b3b0b3a 	bleq	ec3318 <LOADER_PHYS_START-0x3f13cce8>
     62c:	06021349 	streq	r1, [r2], -r9, asr #6
     630:	051e0000 	ldreq	r0, [lr, #-0]
     634:	3a080300 	bcc	20123c <LOADER_PHYS_START-0x3fdfedc4>
     638:	490b3b0b 	stmdbmi	fp, {r0, r1, r3, r8, r9, fp, ip, sp}
     63c:	00060213 	andeq	r0, r6, r3, lsl r2
     640:	00341f00 	eorseq	r1, r4, r0, lsl #30
     644:	0b3a0e03 	bleq	e83e58 <LOADER_PHYS_START-0x3f17c1a8>
     648:	13490b3b 	movtne	r0, #39739	; 0x9b3b
     64c:	00000a02 	andeq	r0, r0, r2, lsl #20
     650:	31011d20 	tstcc	r1, r0, lsr #26
     654:	55015213 	strpl	r5, [r1, #-531]	; 0x213
     658:	590b5806 	stmdbpl	fp, {r1, r2, fp, ip, lr}
     65c:	0013010b 	andseq	r0, r3, fp, lsl #2
     660:	00052100 	andeq	r2, r5, r0, lsl #2
     664:	0b1c1331 	bleq	705330 <LOADER_PHYS_START-0x3f8facd0>
     668:	0b220000 	bleq	880670 <LOADER_PHYS_START-0x3f77f990>
     66c:	00065501 	andeq	r5, r6, r1, lsl #10
     670:	00342300 	eorseq	r2, r4, r0, lsl #6
     674:	0b3a0803 	bleq	e82688 <LOADER_PHYS_START-0x3f17d978>
     678:	13490b3b 	movtne	r0, #39739	; 0x9b3b
     67c:	00000602 	andeq	r0, r0, r2, lsl #12
     680:	03003424 	movweq	r3, #1060	; 0x424
     684:	3b0b3a08 	blcc	2ceeac <LOADER_PHYS_START-0x3fd31154>
     688:	0213490b 	andseq	r4, r3, #180224	; 0x2c000
     68c:	2500000a 	strcs	r0, [r0, #-10]
     690:	1331011d 	teqne	r1, #1073741831	; 0x40000007
     694:	01120111 	tsteq	r2, r1, lsl r1
     698:	0b590b58 	bleq	1643400 <LOADER_PHYS_START-0x3e9bcc00>
     69c:	2e260000 	cdpcs	0, 2, cr0, cr6, cr0, {0}
     6a0:	030c3f01 	movweq	r3, #52993	; 0xcf01
     6a4:	3b0b3a0e 	blcc	2ceee4 <LOADER_PHYS_START-0x3fd3111c>
     6a8:	110c270b 	tstne	ip, fp, lsl #14
     6ac:	40011201 	andmi	r1, r1, r1, lsl #4
     6b0:	0013010a 	andseq	r0, r3, sl, lsl #2
     6b4:	00342700 	eorseq	r2, r4, r0, lsl #14
     6b8:	0b3a0e03 	bleq	e83ecc <LOADER_PHYS_START-0x3f17c134>
     6bc:	13490b3b 	movtne	r0, #39739	; 0x9b3b
     6c0:	00000602 	andeq	r0, r0, r2, lsl #12
     6c4:	3f012e28 	svccc	0x00012e28
     6c8:	3a0e030c 	bcc	381300 <LOADER_PHYS_START-0x3fc7ed00>
     6cc:	270b3b0b 	strcs	r3, [fp, -fp, lsl #22]
     6d0:	1113490c 	tstne	r3, ip, lsl #18
     6d4:	40011201 	andmi	r1, r1, r1, lsl #4
     6d8:	0013010a 	andseq	r0, r3, sl, lsl #2
     6dc:	00262900 	eoreq	r2, r6, r0, lsl #18
     6e0:	00001349 	andeq	r1, r0, r9, asr #6
     6e4:	3f012e2a 	svccc	0x00012e2a
     6e8:	3a0e030c 	bcc	381320 <LOADER_PHYS_START-0x3fc7ece0>
     6ec:	270b3b0b 	strcs	r3, [fp, -fp, lsl #22]
     6f0:	1113490c 	tstne	r3, ip, lsl #18
     6f4:	40011201 	andmi	r1, r1, r1, lsl #4
     6f8:	00130106 	andseq	r0, r3, r6, lsl #2
     6fc:	00052b00 	andeq	r2, r5, r0, lsl #22
     700:	00001331 	andeq	r1, r0, r1, lsr r3
     704:	31011d2c 	tstcc	r1, ip, lsr #26
     708:	55015213 	strpl	r5, [r1, #-531]	; 0x213
     70c:	590b5806 	stmdbpl	fp, {r1, r2, fp, ip, lr}
     710:	2d00000b 	stccs	0, cr0, [r0, #-44]	; 0xffffffd4
     714:	1331011d 	teqne	r1, #1073741831	; 0x40000007
     718:	01120111 	tsteq	r2, r1, lsl r1
     71c:	0b590b58 	bleq	1643484 <LOADER_PHYS_START-0x3e9bcb7c>
     720:	00001301 	andeq	r1, r0, r1, lsl #6
     724:	3f012e2e 	svccc	0x00012e2e
     728:	3a0e030c 	bcc	381360 <LOADER_PHYS_START-0x3fc7eca0>
     72c:	270b3b0b 	strcs	r3, [fp, -fp, lsl #22]
     730:	1113490c 	tstne	r3, ip, lsl #18
     734:	40011201 	andmi	r1, r1, r1, lsl #4
     738:	0000000a 	andeq	r0, r0, sl
     73c:	25011101 	strcs	r1, [r1, #-257]	; 0x101
     740:	030b130e 	movweq	r1, #45838	; 0xb30e
     744:	110e1b0e 	tstne	lr, lr, lsl #22
     748:	10011201 	andne	r1, r1, r1, lsl #4
     74c:	02000006 	andeq	r0, r0, #6
     750:	0b0b000f 	bleq	2c0794 <LOADER_PHYS_START-0x3fd3f86c>
     754:	00001349 	andeq	r1, r0, r9, asr #6
     758:	49002603 	stmdbmi	r0, {r0, r1, r9, sl, sp}
     75c:	04000013 	streq	r0, [r0], #-19
     760:	0b0b0024 	bleq	2c07f8 <LOADER_PHYS_START-0x3fd3f808>
     764:	0e030b3e 	vmoveq.16	d3[0], r0
     768:	24050000 	strcs	r0, [r5], #-0
     76c:	3e0b0b00 	vmlacc.f64	d0, d11, d0
     770:	0008030b 	andeq	r0, r8, fp, lsl #6
     774:	002e0600 	eoreq	r0, lr, r0, lsl #12
     778:	0e030c3f 	mcreq	12, 0, r0, cr3, cr15, {1}
     77c:	0b3b0b3a 	bleq	ec346c <LOADER_PHYS_START-0x3f13cb94>
     780:	01120111 	tsteq	r2, r1, lsl r1
     784:	00000640 	andeq	r0, r0, r0, asr #12
     788:	3f012e07 	svccc	0x00012e07
     78c:	3a0e030c 	bcc	3813c4 <LOADER_PHYS_START-0x3fc7ec3c>
     790:	270b3b0b 	strcs	r3, [fp, -fp, lsl #22]
     794:	1201110c 	andne	r1, r1, #3
     798:	01064001 	tsteq	r6, r1
     79c:	08000013 	stmdaeq	r0, {r0, r1, r4}
     7a0:	0e030005 	cdpeq	0, 0, cr0, cr3, cr5, {0}
     7a4:	0b3b0b3a 	bleq	ec3494 <LOADER_PHYS_START-0x3f13cb6c>
     7a8:	0a021349 	beq	854d4 <LOADER_PHYS_START-0x3ff7ab2c>
     7ac:	18090000 	stmdane	r9, {}	; <UNPREDICTABLE>
     7b0:	0a000000 	beq	7b8 <LOADER_PHYS_START-0x3ffff848>
     7b4:	08030034 	stmdaeq	r3, {r2, r4, r5}
     7b8:	0b3b0b3a 	bleq	ec34a8 <LOADER_PHYS_START-0x3f13cb58>
     7bc:	0a021349 	beq	854e8 <LOADER_PHYS_START-0x3ff7ab18>
     7c0:	130b0000 	movwne	r0, #45056	; 0xb000
     7c4:	0b0e0301 	bleq	3813d0 <LOADER_PHYS_START-0x3fc7ec30>
     7c8:	3b0b3a0b 	blcc	2ceffc <LOADER_PHYS_START-0x3fd31004>
     7cc:	0013010b 	andseq	r0, r3, fp, lsl #2
     7d0:	000d0c00 	andeq	r0, sp, r0, lsl #24
     7d4:	13490e03 	movtne	r0, #40451	; 0x9e03
     7d8:	0c340a38 	ldceq	10, cr0, [r4], #-224	; 0xffffff20
     7dc:	0f0d0000 	svceq	0x000d0000
     7e0:	000b0b00 	andeq	r0, fp, r0, lsl #22
     7e4:	11010000 	mrsne	r0, (UNDEF: 1)
     7e8:	130e2501 	movwne	r2, #58625	; 0xe501
     7ec:	1b0e030b 	blne	381420 <LOADER_PHYS_START-0x3fc7ebe0>
     7f0:	1201110e 	andne	r1, r1, #-2147483645	; 0x80000003
     7f4:	00061001 	andeq	r1, r6, r1
     7f8:	00240200 	eoreq	r0, r4, r0, lsl #4
     7fc:	0b3e0b0b 	bleq	f83430 <LOADER_PHYS_START-0x3f07cbd0>
     800:	00000e03 	andeq	r0, r0, r3, lsl #28
     804:	0b002403 	bleq	9818 <LOADER_PHYS_START-0x3fff67e8>
     808:	030b3e0b 	movweq	r3, #48651	; 0xbe0b
     80c:	04000008 	streq	r0, [r0], #-8
     810:	0b0b000f 	bleq	2c0854 <LOADER_PHYS_START-0x3fd3f7ac>
     814:	00001349 	andeq	r1, r0, r9, asr #6
     818:	49002605 	stmdbmi	r0, {r0, r2, r9, sl, sp}
     81c:	06000013 			; <UNDEFINED> instruction: 0x06000013
     820:	0e030113 	mcreq	1, 0, r0, cr3, cr3, {0}
     824:	0b3a0b0b 	bleq	e83458 <LOADER_PHYS_START-0x3f17cba8>
     828:	13010b3b 	movwne	r0, #6971	; 0x1b3b
     82c:	0d070000 	stceq	0, cr0, [r7, #-0]
     830:	490e0300 	stmdbmi	lr, {r8, r9}
     834:	340a3813 	strcc	r3, [sl], #-2067	; 0x813
     838:	0800000c 	stmdaeq	r0, {r2, r3}
     83c:	0b0b000f 	bleq	2c0880 <LOADER_PHYS_START-0x3fd3f780>
     840:	2e090000 	cdpcs	0, 0, cr0, cr9, cr0, {0}
     844:	3a0e0301 	bcc	381450 <LOADER_PHYS_START-0x3fc7ebb0>
     848:	270b3b0b 	strcs	r3, [fp, -fp, lsl #22]
     84c:	2013490c 	andscs	r4, r3, ip, lsl #18
     850:	0013010b 	andseq	r0, r3, fp, lsl #2
     854:	00050a00 	andeq	r0, r5, r0, lsl #20
     858:	0b3a0803 	bleq	e8286c <LOADER_PHYS_START-0x3f17d794>
     85c:	13490b3b 	movtne	r0, #39739	; 0x9b3b
     860:	050b0000 	streq	r0, [fp, #-0]
     864:	3a0e0300 	bcc	38146c <LOADER_PHYS_START-0x3fc7eb94>
     868:	490b3b0b 	stmdbmi	fp, {r0, r1, r3, r8, r9, fp, ip, sp}
     86c:	0c000013 	stceq	0, cr0, [r0], {19}
     870:	08030034 	stmdaeq	r3, {r2, r4, r5}
     874:	0b3b0b3a 	bleq	ec3564 <LOADER_PHYS_START-0x3f13ca9c>
     878:	00001349 	andeq	r1, r0, r9, asr #6
     87c:	2701150d 	strcs	r1, [r1, -sp, lsl #10]
     880:	0113490c 	tsteq	r3, ip, lsl #18
     884:	0e000013 	mcreq	0, 0, r0, cr0, cr3, {0}
     888:	13490005 	movtne	r0, #36869	; 0x9005
     88c:	150f0000 	strne	r0, [pc, #-0]	; 894 <LOADER_PHYS_START-0x3ffff76c>
     890:	010c2701 	tsteq	ip, r1, lsl #14
     894:	10000013 	andne	r0, r0, r3, lsl r0
     898:	0e030034 	mcreq	0, 0, r0, cr3, cr4, {1}
     89c:	0b3b0b3a 	bleq	ec358c <LOADER_PHYS_START-0x3f13ca74>
     8a0:	00001349 	andeq	r1, r0, r9, asr #6
     8a4:	00010b11 	andeq	r0, r1, r1, lsl fp
     8a8:	012e1200 	teqeq	lr, r0, lsl #4
     8ac:	0b3a0e03 	bleq	e840c0 <LOADER_PHYS_START-0x3f17bf40>
     8b0:	0c27053b 	cfstr32eq	mvfx0, [r7], #-236	; 0xffffff14
     8b4:	0b201349 	bleq	8055e0 <LOADER_PHYS_START-0x3f7faa20>
     8b8:	00001301 	andeq	r1, r0, r1, lsl #6
     8bc:	03000513 	movweq	r0, #1299	; 0x513
     8c0:	3b0b3a0e 	blcc	2cf100 <LOADER_PHYS_START-0x3fd30f00>
     8c4:	00134905 	andseq	r4, r3, r5, lsl #18
     8c8:	012e1400 	teqeq	lr, r0, lsl #8
     8cc:	01111331 	tsteq	r1, r1, lsr r3
     8d0:	0a400112 	beq	1000d20 <LOADER_PHYS_START-0x3efff2e0>
     8d4:	00001301 	andeq	r1, r0, r1, lsl #6
     8d8:	31000515 	tstcc	r0, r5, lsl r5
     8dc:	00060213 	andeq	r0, r6, r3, lsl r2
     8e0:	012e1600 	teqeq	lr, r0, lsl #12
     8e4:	0b3a0e03 	bleq	e840f8 <LOADER_PHYS_START-0x3f17bf08>
     8e8:	0c27053b 	cfstr32eq	mvfx0, [r7], #-236	; 0xffffff14
     8ec:	13010b20 	movwne	r0, #6944	; 0x1b20
     8f0:	05170000 	ldreq	r0, [r7, #-0]
     8f4:	02133100 	andseq	r3, r3, #0
     8f8:	1800000a 	stmdane	r0, {r1, r3}
     8fc:	1331012e 	teqne	r1, #-2147483637	; 0x8000000b
     900:	01120111 	tsteq	r2, r1, lsl r1
     904:	13010640 	movwne	r0, #5696	; 0x1640
     908:	34190000 	ldrcc	r0, [r9], #-0
     90c:	02133100 	andseq	r3, r3, #0
     910:	1a000006 	bne	930 <LOADER_PHYS_START-0x3ffff6d0>
     914:	1331011d 	teqne	r1, #1073741831	; 0x40000007
     918:	06550152 			; <UNDEFINED> instruction: 0x06550152
     91c:	0b590b58 	bleq	1643684 <LOADER_PHYS_START-0x3e9bc97c>
     920:	00001301 	andeq	r1, r0, r1, lsl #6
     924:	31011d1b 	tstcc	r1, fp, lsl sp
     928:	12011113 	andne	r1, r1, #-1073741820	; 0xc0000004
     92c:	590b5801 	stmdbpl	fp, {r0, fp, ip, lr}
     930:	0013010b 	andseq	r0, r3, fp, lsl #2
     934:	011d1c00 	tsteq	sp, r0, lsl #24
     938:	01521331 	cmpeq	r2, r1, lsr r3
     93c:	0b580655 	bleq	1602298 <LOADER_PHYS_START-0x3e9fdd68>
     940:	00000b59 	andeq	r0, r0, r9, asr fp
     944:	31011d1d 	tstcc	r1, sp, lsl sp
     948:	12011113 	andne	r1, r1, #-1073741820	; 0xc0000004
     94c:	590b5801 	stmdbpl	fp, {r0, fp, ip, lr}
     950:	1e00000b 	cdpne	0, 0, cr0, cr0, cr11, {0}
     954:	0c3f012e 	ldfeqs	f0, [pc], #-184	; 8a4 <LOADER_PHYS_START-0x3ffff75c>
     958:	0b3a0e03 	bleq	e8416c <LOADER_PHYS_START-0x3f17be94>
     95c:	0c27053b 	cfstr32eq	mvfx0, [r7], #-236	; 0xffffff14
     960:	01111349 	tsteq	r1, r9, asr #6
     964:	06400112 			; <UNDEFINED> instruction: 0x06400112
     968:	051f0000 	ldreq	r0, [pc, #-0]	; 970 <LOADER_PHYS_START-0x3ffff690>
     96c:	3a080300 	bcc	201574 <LOADER_PHYS_START-0x3fdfea8c>
     970:	49053b0b 	stmdbmi	r5, {r0, r1, r3, r8, r9, fp, ip, sp}
     974:	00060213 	andeq	r0, r6, r3, lsl r2
     978:	00052000 	andeq	r2, r5, r0
     97c:	0b3a0803 	bleq	e82990 <LOADER_PHYS_START-0x3f17d670>
     980:	1349053b 	movtne	r0, #38203	; 0x953b
     984:	00000a02 	andeq	r0, r0, r2, lsl #20
     988:	00001821 	andeq	r1, r0, r1, lsr #16
     98c:	00342200 	eorseq	r2, r4, r0, lsl #4
     990:	0b3a0803 	bleq	e829a4 <LOADER_PHYS_START-0x3f17d65c>
     994:	1349053b 	movtne	r0, #38203	; 0x953b
     998:	00000a02 	andeq	r0, r0, r2, lsl #20
     99c:	31011d23 	tstcc	r1, r3, lsr #26
     9a0:	55015213 	strpl	r5, [r1, #-531]	; 0x213
     9a4:	590b5806 	stmdbpl	fp, {r1, r2, fp, ip, lr}
     9a8:	24000005 	strcs	r0, [r0], #-5
     9ac:	0655010b 	ldrbeq	r0, [r5], -fp, lsl #2
     9b0:	34250000 	strtcc	r0, [r5], #-0
     9b4:	02133100 	andseq	r3, r3, #0
     9b8:	2600000a 	strcs	r0, [r0], -sl
     9bc:	13310005 	teqne	r1, #5
     9c0:	1d270000 	stcne	0, cr0, [r7, #-0]
     9c4:	52133101 	andspl	r3, r3, #1073741824	; 0x40000000
     9c8:	58065501 	stmdapl	r6, {r0, r8, sl, ip, lr}
     9cc:	0105590b 	tsteq	r5, fp, lsl #18
     9d0:	28000013 	stmdacs	r0, {r0, r1, r4}
     9d4:	0111010b 	tsteq	r1, fp, lsl #2
     9d8:	00000112 	andeq	r0, r0, r2, lsl r1
     9dc:	01110100 	tsteq	r1, r0, lsl #2
     9e0:	0b130e25 	bleq	4c427c <LOADER_PHYS_START-0x3fb3bd84>
     9e4:	0e1b0e03 	cdpeq	14, 1, cr0, cr11, cr3, {0}
     9e8:	01120111 	tsteq	r2, r1, lsl r1
     9ec:	00000610 	andeq	r0, r0, r0, lsl r6
     9f0:	03001602 	movweq	r1, #1538	; 0x602
     9f4:	3b0b3a0e 	blcc	2cf234 <LOADER_PHYS_START-0x3fd30dcc>
     9f8:	0013490b 	andseq	r4, r3, fp, lsl #18
     9fc:	000f0300 	andeq	r0, pc, r0, lsl #6
     a00:	13490b0b 	movtne	r0, #39691	; 0x9b0b
     a04:	15040000 	strne	r0, [r4, #-0]
     a08:	010c2701 	tsteq	ip, r1, lsl #14
     a0c:	05000013 	streq	r0, [r0, #-19]
     a10:	13490005 	movtne	r0, #36869	; 0x9005
     a14:	26060000 	strcs	r0, [r6], -r0
     a18:	00134900 	andseq	r4, r3, r0, lsl #18
     a1c:	00240700 	eoreq	r0, r4, r0, lsl #14
     a20:	0b3e0b0b 	bleq	f83654 <LOADER_PHYS_START-0x3f07c9ac>
     a24:	00000e03 	andeq	r0, r0, r3, lsl #28
     a28:	0b002408 	bleq	9a50 <LOADER_PHYS_START-0x3fff65b0>
     a2c:	030b3e0b 	movweq	r3, #48651	; 0xbe0b
     a30:	09000008 	stmdbeq	r0, {r3}
     a34:	0e030104 	adfeqs	f0, f3, f4
     a38:	0b3a0b0b 	bleq	e8366c <LOADER_PHYS_START-0x3f17c994>
     a3c:	13010b3b 	movwne	r0, #6971	; 0x1b3b
     a40:	280a0000 	stmdacs	sl, {}	; <UNPREDICTABLE>
     a44:	1c0e0300 	stcne	3, cr0, [lr], {-0}
     a48:	0b00000d 	bleq	a84 <LOADER_PHYS_START-0x3ffff57c>
     a4c:	0e03012e 	adfeqsp	f0, f3, #0.5
     a50:	0b3b0b3a 	bleq	ec3740 <LOADER_PHYS_START-0x3f13c8c0>
     a54:	0b200c27 	bleq	803af8 <LOADER_PHYS_START-0x3f7fc508>
     a58:	00001301 	andeq	r1, r0, r1, lsl #6
     a5c:	0300050c 	movweq	r0, #1292	; 0x50c
     a60:	3b0b3a08 	blcc	2cf288 <LOADER_PHYS_START-0x3fd30d78>
     a64:	0013490b 	andseq	r4, r3, fp, lsl #18
     a68:	00050d00 	andeq	r0, r5, r0, lsl #26
     a6c:	0b3a0e03 	bleq	e84280 <LOADER_PHYS_START-0x3f17bd80>
     a70:	13490b3b 	movtne	r0, #39739	; 0x9b3b
     a74:	340e0000 	strcc	r0, [lr], #-0
     a78:	3a0e0300 	bcc	381680 <LOADER_PHYS_START-0x3fc7e980>
     a7c:	490b3b0b 	stmdbmi	fp, {r0, r1, r3, r8, r9, fp, ip, sp}
     a80:	0f000013 	svceq	0x00000013
     a84:	08030034 	stmdaeq	r3, {r2, r4, r5}
     a88:	0b3b0b3a 	bleq	ec3778 <LOADER_PHYS_START-0x3f13c888>
     a8c:	00001349 	andeq	r1, r0, r9, asr #6
     a90:	49010110 	stmdbmi	r1, {r4, r8}
     a94:	00130113 	andseq	r0, r3, r3, lsl r1
     a98:	00211100 	eoreq	r1, r1, r0, lsl #2
     a9c:	0b2f1349 	bleq	bc57c8 <LOADER_PHYS_START-0x3f43a838>
     aa0:	2e120000 	cdpcs	0, 1, cr0, cr2, cr0, {0}
     aa4:	11133101 	tstne	r3, r1, lsl #2
     aa8:	40011201 	andmi	r1, r1, r1, lsl #4
     aac:	00130106 	andseq	r0, r3, r6, lsl #2
     ab0:	00051300 	andeq	r1, r5, r0, lsl #6
     ab4:	06021331 			; <UNDEFINED> instruction: 0x06021331
     ab8:	34140000 	ldrcc	r0, [r4], #-0
     abc:	00133100 	andseq	r3, r3, r0, lsl #2
     ac0:	00341500 	eorseq	r1, r4, r0, lsl #10
     ac4:	0b1c1331 	bleq	705790 <LOADER_PHYS_START-0x3f8fa870>
     ac8:	34160000 	ldrcc	r0, [r6], #-0
     acc:	02133100 	andseq	r3, r3, #0
     ad0:	17000006 	strne	r0, [r0, -r6]
     ad4:	1331011d 	teqne	r1, #1073741831	; 0x40000007
     ad8:	06550152 			; <UNDEFINED> instruction: 0x06550152
     adc:	0b590b58 	bleq	1643844 <LOADER_PHYS_START-0x3e9bc7bc>
     ae0:	0b180000 	bleq	600ae8 <LOADER_PHYS_START-0x3f9ff518>
     ae4:	00065501 	andeq	r5, r6, r1, lsl #10
     ae8:	00341900 	eorseq	r1, r4, r0, lsl #18
     aec:	0a021331 	beq	857b8 <LOADER_PHYS_START-0x3ff7a848>
     af0:	051a0000 	ldreq	r0, [sl, #-0]
     af4:	00133100 	andseq	r3, r3, r0, lsl #2
     af8:	012e1b00 	teqeq	lr, r0, lsl #22
     afc:	0e030c3f 	mcreq	12, 0, r0, cr3, cr15, {1}
     b00:	0b3b0b3a 	bleq	ec37f0 <LOADER_PHYS_START-0x3f13c810>
     b04:	13490c27 	movtne	r0, #39975	; 0x9c27
     b08:	01120111 	tsteq	r2, r1, lsl r1
     b0c:	13010640 	movwne	r0, #5696	; 0x1640
     b10:	051c0000 	ldreq	r0, [ip, #-0]
     b14:	3a0e0300 	bcc	38171c <LOADER_PHYS_START-0x3fc7e8e4>
     b18:	490b3b0b 	stmdbmi	fp, {r0, r1, r3, r8, r9, fp, ip, sp}
     b1c:	00060213 	andeq	r0, r6, r3, lsl r2
     b20:	00051d00 	andeq	r1, r5, r0, lsl #26
     b24:	0b3a0803 	bleq	e82b38 <LOADER_PHYS_START-0x3f17d4c8>
     b28:	13490b3b 	movtne	r0, #39739	; 0x9b3b
     b2c:	00000602 	andeq	r0, r0, r2, lsl #12
     b30:	0300341e 	movweq	r3, #1054	; 0x41e
     b34:	3b0b3a08 	blcc	2cf35c <LOADER_PHYS_START-0x3fd30ca4>
     b38:	0213490b 	andseq	r4, r3, #180224	; 0x2c000
     b3c:	1f000006 	svcne	0x00000006
     b40:	0e030113 	mcreq	1, 0, r0, cr3, cr3, {0}
     b44:	0b3a0b0b 	bleq	e83778 <LOADER_PHYS_START-0x3f17c888>
     b48:	13010b3b 	movwne	r0, #6971	; 0x1b3b
     b4c:	0d200000 	stceq	0, cr0, [r0, #-0]
     b50:	490e0300 	stmdbmi	lr, {r8, r9}
     b54:	340a3813 	strcc	r3, [sl], #-2067	; 0x813
     b58:	2100000c 	tstcs	r0, ip
     b5c:	0b0b000f 	bleq	2c0ba0 <LOADER_PHYS_START-0x3fd3f460>
     b60:	2e220000 	cdpcs	0, 2, cr0, cr2, cr0, {0}
     b64:	030c3f01 	movweq	r3, #52993	; 0xcf01
     b68:	3b0b3a0e 	blcc	2cf3a8 <LOADER_PHYS_START-0x3fd30c58>
     b6c:	110c270b 	tstne	ip, fp, lsl #14
     b70:	40011201 	andmi	r1, r1, r1, lsl #4
     b74:	0013010a 	andseq	r0, r3, sl, lsl #2
     b78:	00052300 	andeq	r2, r5, r0, lsl #6
     b7c:	0b3a0803 	bleq	e82b90 <LOADER_PHYS_START-0x3f17d470>
     b80:	13490b3b 	movtne	r0, #39739	; 0x9b3b
     b84:	00000a02 	andeq	r0, r0, r2, lsl #20
     b88:	03003424 	movweq	r3, #1060	; 0x424
     b8c:	3b0b3a0e 	blcc	2cf3cc <LOADER_PHYS_START-0x3fd30c34>
     b90:	0213490b 	andseq	r4, r3, #180224	; 0x2c000
     b94:	0000000a 	andeq	r0, r0, sl
     b98:	25011101 	strcs	r1, [r1, #-257]	; 0x101
     b9c:	030b130e 	movweq	r1, #45838	; 0xb30e
     ba0:	110e1b0e 	tstne	lr, lr, lsl #22
     ba4:	10011201 	andne	r1, r1, r1, lsl #4
     ba8:	02000006 	andeq	r0, r0, #6
     bac:	0e030016 	mcreq	0, 0, r0, cr3, cr6, {0}
     bb0:	0b3b0b3a 	bleq	ec38a0 <LOADER_PHYS_START-0x3f13c760>
     bb4:	00001349 	andeq	r1, r0, r9, asr #6
     bb8:	0b002403 	bleq	9bcc <LOADER_PHYS_START-0x3fff6434>
     bbc:	030b3e0b 	movweq	r3, #48651	; 0xbe0b
     bc0:	0400000e 	streq	r0, [r0], #-14
     bc4:	0b0b0024 	bleq	2c0c5c <LOADER_PHYS_START-0x3fd3f3a4>
     bc8:	08030b3e 	stmdaeq	r3, {r1, r2, r3, r4, r5, r8, r9, fp}
     bcc:	0f050000 	svceq	0x00050000
     bd0:	490b0b00 	stmdbmi	fp, {r8, r9, fp}
     bd4:	06000013 			; <UNDEFINED> instruction: 0x06000013
     bd8:	13490026 	movtne	r0, #36902	; 0x9026
     bdc:	2e070000 	cdpcs	0, 0, cr0, cr7, cr0, {0}
     be0:	3a0e0301 	bcc	3817ec <LOADER_PHYS_START-0x3fc7e814>
     be4:	270b3b0b 	strcs	r3, [fp, -fp, lsl #22]
     be8:	2013490c 	andscs	r4, r3, ip, lsl #18
     bec:	0013010b 	andseq	r0, r3, fp, lsl #2
     bf0:	00050800 	andeq	r0, r5, r0, lsl #16
     bf4:	0b3a0e03 	bleq	e84408 <LOADER_PHYS_START-0x3f17bbf8>
     bf8:	13490b3b 	movtne	r0, #39739	; 0x9b3b
     bfc:	05090000 	streq	r0, [r9, #-0]
     c00:	3a080300 	bcc	201808 <LOADER_PHYS_START-0x3fdfe7f8>
     c04:	490b3b0b 	stmdbmi	fp, {r0, r1, r3, r8, r9, fp, ip, sp}
     c08:	0a000013 	beq	c5c <LOADER_PHYS_START-0x3ffff3a4>
     c0c:	08030034 	stmdaeq	r3, {r2, r4, r5}
     c10:	0b3b0b3a 	bleq	ec3900 <LOADER_PHYS_START-0x3f13c700>
     c14:	00001349 	andeq	r1, r0, r9, asr #6
     c18:	0b000f0b 	bleq	484c <LOADER_PHYS_START-0x3fffb7b4>
     c1c:	0c00000b 	stceq	0, cr0, [r0], {11}
     c20:	00000026 	andeq	r0, r0, r6, lsr #32
     c24:	3f012e0d 	svccc	0x00012e0d
     c28:	3a0e030c 	bcc	381860 <LOADER_PHYS_START-0x3fc7e7a0>
     c2c:	270b3b0b 	strcs	r3, [fp, -fp, lsl #22]
     c30:	1113490c 	tstne	r3, ip, lsl #18
     c34:	40011201 	andmi	r1, r1, r1, lsl #4
     c38:	0013010a 	andseq	r0, r3, sl, lsl #2
     c3c:	00050e00 	andeq	r0, r5, r0, lsl #28
     c40:	0b3a0e03 	bleq	e84454 <LOADER_PHYS_START-0x3f17bbac>
     c44:	13490b3b 	movtne	r0, #39739	; 0x9b3b
     c48:	00000a02 	andeq	r0, r0, r2, lsl #20
     c4c:	0300050f 	movweq	r0, #1295	; 0x50f
     c50:	3b0b3a0e 	blcc	2cf490 <LOADER_PHYS_START-0x3fd30b70>
     c54:	0213490b 	andseq	r4, r3, #180224	; 0x2c000
     c58:	10000006 	andne	r0, r0, r6
     c5c:	08030005 	stmdaeq	r3, {r0, r2}
     c60:	0b3b0b3a 	bleq	ec3950 <LOADER_PHYS_START-0x3f13c6b0>
     c64:	0a021349 	beq	85990 <LOADER_PHYS_START-0x3ff7a670>
     c68:	1d110000 	ldcne	0, cr0, [r1, #-0]
     c6c:	11133101 	tstne	r3, r1, lsl #2
     c70:	58011201 	stmdapl	r1, {r0, r9, ip}
     c74:	000b590b 	andeq	r5, fp, fp, lsl #18
     c78:	00051200 	andeq	r1, r5, r0, lsl #4
     c7c:	06021331 			; <UNDEFINED> instruction: 0x06021331
     c80:	05130000 	ldreq	r0, [r3, #-0]
     c84:	02133100 	andseq	r3, r3, #0
     c88:	1400000a 	strne	r0, [r0], #-10
     c8c:	0111010b 	tsteq	r1, fp, lsl #2
     c90:	00000112 	andeq	r0, r0, r2, lsl r1
     c94:	31003415 	tstcc	r0, r5, lsl r4
     c98:	00060213 	andeq	r0, r6, r3, lsl r2
     c9c:	012e1600 	teqeq	lr, r0, lsl #12
     ca0:	0e030c3f 	mcreq	12, 0, r0, cr3, cr15, {1}
     ca4:	0b3b0b3a 	bleq	ec3994 <LOADER_PHYS_START-0x3f13c66c>
     ca8:	13490c27 	movtne	r0, #39975	; 0x9c27
     cac:	01120111 	tsteq	r2, r1, lsl r1
     cb0:	13010640 	movwne	r0, #5696	; 0x1640
     cb4:	05170000 	ldreq	r0, [r7, #-0]
     cb8:	3a080300 	bcc	2018c0 <LOADER_PHYS_START-0x3fdfe740>
     cbc:	490b3b0b 	stmdbmi	fp, {r0, r1, r3, r8, r9, fp, ip, sp}
     cc0:	00060213 	andeq	r0, r6, r3, lsl r2
     cc4:	011d1800 	tsteq	sp, r0, lsl #16
     cc8:	01111331 	tsteq	r1, r1, lsr r3
     ccc:	0b580112 	bleq	160111c <LOADER_PHYS_START-0x3e9feee4>
     cd0:	13010b59 	movwne	r0, #7001	; 0x1b59
     cd4:	05190000 	ldreq	r0, [r9, #-0]
     cd8:	00133100 	andseq	r3, r3, r0, lsl #2
     cdc:	00341a00 	eorseq	r1, r4, r0, lsl #20
     ce0:	0b3a0803 	bleq	e82cf4 <LOADER_PHYS_START-0x3f17d30c>
     ce4:	13490b3b 	movtne	r0, #39739	; 0x9b3b
     ce8:	00000602 	andeq	r0, r0, r2, lsl #12
     cec:	3f012e1b 	svccc	0x00012e1b
     cf0:	3a0e030c 	bcc	381928 <LOADER_PHYS_START-0x3fc7e6d8>
     cf4:	27053b0b 	strcs	r3, [r5, -fp, lsl #22]
     cf8:	1113490c 	tstne	r3, ip, lsl #18
     cfc:	40011201 	andmi	r1, r1, r1, lsl #4
     d00:	0013010a 	andseq	r0, r3, sl, lsl #2
     d04:	012e1c00 	teqeq	lr, r0, lsl #24
     d08:	0e030c3f 	mcreq	12, 0, r0, cr3, cr15, {1}
     d0c:	0b3b0b3a 	bleq	ec39fc <LOADER_PHYS_START-0x3f13c604>
     d10:	01110c27 	tsteq	r1, r7, lsr #24
     d14:	06400112 			; <UNDEFINED> instruction: 0x06400112
     d18:	00001301 	andeq	r1, r0, r1, lsl #6
     d1c:	0300341d 	movweq	r3, #1053	; 0x41d
     d20:	3b0b3a0e 	blcc	2cf560 <LOADER_PHYS_START-0x3fd30aa0>
     d24:	0213490b 	andseq	r4, r3, #180224	; 0x2c000
     d28:	1e00000a 	cdpne	0, 0, cr0, cr0, cr10, {0}
     d2c:	13490101 	movtne	r0, #37121	; 0x9101
     d30:	00001301 	andeq	r1, r0, r1, lsl #6
     d34:	4900211f 	stmdbmi	r0, {r0, r1, r2, r3, r4, r8, sp}
     d38:	000b2f13 	andeq	r2, fp, r3, lsl pc
     d3c:	012e2000 	teqeq	lr, r0
     d40:	0e030c3f 	mcreq	12, 0, r0, cr3, cr15, {1}
     d44:	0b3b0b3a 	bleq	ec3a34 <LOADER_PHYS_START-0x3f13c5cc>
     d48:	13490c27 	movtne	r0, #39975	; 0x9c27
     d4c:	01120111 	tsteq	r2, r1, lsl r1
     d50:	00000a40 	andeq	r0, r0, r0, asr #20
     d54:	03003421 	movweq	r3, #1057	; 0x421
     d58:	3b0b3a0e 	blcc	2cf598 <LOADER_PHYS_START-0x3fd30a68>
     d5c:	0213490b 	andseq	r4, r3, #180224	; 0x2c000
     d60:	00000006 	andeq	r0, r0, r6
     d64:	25011101 	strcs	r1, [r1, #-257]	; 0x101
     d68:	030b130e 	movweq	r1, #45838	; 0xb30e
     d6c:	110e1b0e 	tstne	lr, lr, lsl #22
     d70:	10011201 	andne	r1, r1, r1, lsl #4
     d74:	02000006 	andeq	r0, r0, #6
     d78:	0e030113 	mcreq	1, 0, r0, cr3, cr3, {0}
     d7c:	0b3a0b0b 	bleq	e839b0 <LOADER_PHYS_START-0x3f17c650>
     d80:	13010b3b 	movwne	r0, #6971	; 0x1b3b
     d84:	0d030000 	stceq	0, cr0, [r3, #-0]
     d88:	3a0e0300 	bcc	381990 <LOADER_PHYS_START-0x3fc7e670>
     d8c:	490b3b0b 	stmdbmi	fp, {r0, r1, r3, r8, r9, fp, ip, sp}
     d90:	000a3813 	andeq	r3, sl, r3, lsl r8
     d94:	000d0400 	andeq	r0, sp, r0, lsl #8
     d98:	0b3a0803 	bleq	e82dac <LOADER_PHYS_START-0x3f17d254>
     d9c:	13490b3b 	movtne	r0, #39739	; 0x9b3b
     da0:	00000a38 	andeq	r0, r0, r8, lsr sl
     da4:	0b002405 	bleq	9dc0 <LOADER_PHYS_START-0x3fff6240>
     da8:	030b3e0b 	movweq	r3, #48651	; 0xbe0b
     dac:	0600000e 	streq	r0, [r0], -lr
     db0:	13490101 	movtne	r0, #37121	; 0x9101
     db4:	00001301 	andeq	r1, r0, r1, lsl #6
     db8:	49002107 	stmdbmi	r0, {r0, r1, r2, r8, sp}
     dbc:	000b2f13 	andeq	r2, fp, r3, lsl pc
     dc0:	012e0800 	teqeq	lr, r0, lsl #16
     dc4:	0e030c3f 	mcreq	12, 0, r0, cr3, cr15, {1}
     dc8:	0b3b0b3a 	bleq	ec3ab8 <LOADER_PHYS_START-0x3f13c548>
     dcc:	01110c27 	tsteq	r1, r7, lsr #24
     dd0:	0a400112 	beq	1001220 <LOADER_PHYS_START-0x3effede0>
     dd4:	00001301 	andeq	r1, r0, r1, lsl #6
     dd8:	03000509 	movweq	r0, #1289	; 0x509
     ddc:	3b0b3a0e 	blcc	2cf61c <LOADER_PHYS_START-0x3fd309e4>
     de0:	0213490b 	andseq	r4, r3, #180224	; 0x2c000
     de4:	0a00000a 	beq	e14 <LOADER_PHYS_START-0x3ffff1ec>
     de8:	0b0b000f 	bleq	2c0e2c <LOADER_PHYS_START-0x3fd3f1d4>
     dec:	00001349 	andeq	r1, r0, r9, asr #6
     df0:	0300050b 	movweq	r0, #1291	; 0x50b
     df4:	3b0b3a0e 	blcc	2cf634 <LOADER_PHYS_START-0x3fd309cc>
     df8:	0213490b 	andseq	r4, r3, #180224	; 0x2c000
     dfc:	0c000006 	stceq	0, cr0, [r0], {6}
     e00:	0c3f012e 	ldfeqs	f0, [pc], #-184	; d50 <LOADER_PHYS_START-0x3ffff2b0>
     e04:	0b3a0e03 	bleq	e84618 <LOADER_PHYS_START-0x3f17b9e8>
     e08:	13490b3b 	movtne	r0, #39739	; 0x9b3b
     e0c:	00000c3c 	andeq	r0, r0, ip, lsr ip
     e10:	0000180d 	andeq	r1, r0, sp, lsl #16
     e14:	00240e00 	eoreq	r0, r4, r0, lsl #28
     e18:	0b3e0b0b 	bleq	f83a4c <LOADER_PHYS_START-0x3f07c5b4>
     e1c:	00000803 	andeq	r0, r0, r3, lsl #16
     e20:	01110100 	tsteq	r1, r0, lsl #2
     e24:	0b130e25 	bleq	4c46c0 <LOADER_PHYS_START-0x3fb3b940>
     e28:	0e1b0e03 	cdpeq	14, 1, cr0, cr11, cr3, {0}
     e2c:	01120111 	tsteq	r2, r1, lsl r1
     e30:	00000610 	andeq	r0, r0, r0, lsl r6
     e34:	0b002402 	bleq	9e44 <LOADER_PHYS_START-0x3fff61bc>
     e38:	030b3e0b 	movweq	r3, #48651	; 0xbe0b
     e3c:	03000008 	movweq	r0, #8
     e40:	0e030016 	mcreq	0, 0, r0, cr3, cr6, {0}
     e44:	0b3b0b3a 	bleq	ec3b34 <LOADER_PHYS_START-0x3f13c4cc>
     e48:	00001349 	andeq	r1, r0, r9, asr #6
     e4c:	0b002404 	bleq	9e64 <LOADER_PHYS_START-0x3fff619c>
     e50:	030b3e0b 	movweq	r3, #48651	; 0xbe0b
     e54:	0500000e 	streq	r0, [r0, #-14]
     e58:	0e030104 	adfeqs	f0, f3, f4
     e5c:	0b3a0b0b 	bleq	e83a90 <LOADER_PHYS_START-0x3f17c570>
     e60:	13010b3b 	movwne	r0, #6971	; 0x1b3b
     e64:	28060000 	stmdacs	r6, {}	; <UNPREDICTABLE>
     e68:	1c0e0300 	stcne	3, cr0, [lr], {-0}
     e6c:	0700000d 	streq	r0, [r0, -sp]
     e70:	0b0b000f 	bleq	2c0eb4 <LOADER_PHYS_START-0x3fd3f14c>
     e74:	00001349 	andeq	r1, r0, r9, asr #6
     e78:	27011508 	strcs	r1, [r1, -r8, lsl #10]
     e7c:	0013010c 	andseq	r0, r3, ip, lsl #2
     e80:	00050900 	andeq	r0, r5, r0, lsl #18
     e84:	00001349 	andeq	r1, r0, r9, asr #6
     e88:	0b000f0a 	bleq	4ab8 <LOADER_PHYS_START-0x3fffb548>
     e8c:	0b00000b 	bleq	ec0 <LOADER_PHYS_START-0x3ffff140>
     e90:	08030113 	stmdaeq	r3, {r0, r1, r4, r8}
     e94:	0b3a050b 	bleq	e822c8 <LOADER_PHYS_START-0x3f17dd38>
     e98:	13010b3b 	movwne	r0, #6971	; 0x1b3b
     e9c:	0d0c0000 	stceq	0, cr0, [ip, #-0]
     ea0:	3a0e0300 	bcc	381aa8 <LOADER_PHYS_START-0x3fc7e558>
     ea4:	490b3b0b 	stmdbmi	fp, {r0, r1, r3, r8, r9, fp, ip, sp}
     ea8:	000a3813 	andeq	r3, sl, r3, lsl r8
     eac:	00350d00 	eorseq	r0, r5, r0, lsl #26
     eb0:	00001349 	andeq	r1, r0, r9, asr #6
     eb4:	4901010e 	stmdbmi	r1, {r1, r2, r3, r8}
     eb8:	00130113 	andseq	r0, r3, r3, lsl r1
     ebc:	00210f00 	eoreq	r0, r1, r0, lsl #30
     ec0:	0b2f1349 	bleq	bc5bec <LOADER_PHYS_START-0x3f43a414>
     ec4:	2e100000 	cdpcs	0, 1, cr0, cr0, cr0, {0}
     ec8:	3a0e0301 	bcc	381ad4 <LOADER_PHYS_START-0x3fc7e52c>
     ecc:	270b3b0b 	strcs	r3, [fp, -fp, lsl #22]
     ed0:	010b200c 	tsteq	fp, ip
     ed4:	11000013 	tstne	r0, r3, lsl r0
     ed8:	0e030034 	mcreq	0, 0, r0, cr3, cr4, {1}
     edc:	0b3b0b3a 	bleq	ec3bcc <LOADER_PHYS_START-0x3f13c434>
     ee0:	00001349 	andeq	r1, r0, r9, asr #6
     ee4:	03012e12 	movweq	r2, #7698	; 0x1e12
     ee8:	3b0b3a0e 	blcc	2cf728 <LOADER_PHYS_START-0x3fd308d8>
     eec:	490c270b 	stmdbmi	ip, {r0, r1, r3, r8, r9, sl, sp}
     ef0:	010b2013 	tsteq	fp, r3, lsl r0
     ef4:	13000013 	movwne	r0, #19
     ef8:	0e030005 	cdpeq	0, 0, cr0, cr3, cr5, {0}
     efc:	0b3b0b3a 	bleq	ec3bec <LOADER_PHYS_START-0x3f13c414>
     f00:	00001349 	andeq	r1, r0, r9, asr #6
     f04:	00010b14 	andeq	r0, r1, r4, lsl fp
     f08:	012e1500 	teqeq	lr, r0, lsl #10
     f0c:	0e030c3f 	mcreq	12, 0, r0, cr3, cr15, {1}
     f10:	0b3b0b3a 	bleq	ec3c00 <LOADER_PHYS_START-0x3f13c400>
     f14:	13490c27 	movtne	r0, #39975	; 0x9c27
     f18:	01120111 	tsteq	r2, r1, lsl r1
     f1c:	13010a40 	movwne	r0, #6720	; 0x1a40
     f20:	05160000 	ldreq	r0, [r6, #-0]
     f24:	3a080300 	bcc	201b2c <LOADER_PHYS_START-0x3fdfe4d4>
     f28:	490b3b0b 	stmdbmi	fp, {r0, r1, r3, r8, r9, fp, ip, sp}
     f2c:	00060213 	andeq	r0, r6, r3, lsl r2
     f30:	00051700 	andeq	r1, r5, r0, lsl #14
     f34:	0b3a0e03 	bleq	e84748 <LOADER_PHYS_START-0x3f17b8b8>
     f38:	13490b3b 	movtne	r0, #39739	; 0x9b3b
     f3c:	00000a02 	andeq	r0, r0, r2, lsl #20
     f40:	03000518 	movweq	r0, #1304	; 0x518
     f44:	3b0b3a0e 	blcc	2cf784 <LOADER_PHYS_START-0x3fd3087c>
     f48:	0213490b 	andseq	r4, r3, #180224	; 0x2c000
     f4c:	19000006 	stmdbne	r0, {r1, r2}
     f50:	0e030034 	mcreq	0, 0, r0, cr3, cr4, {1}
     f54:	0b3b0b3a 	bleq	ec3c44 <LOADER_PHYS_START-0x3f13c3bc>
     f58:	06021349 	streq	r1, [r2], -r9, asr #6
     f5c:	0b1a0000 	bleq	680f64 <LOADER_PHYS_START-0x3f97f09c>
     f60:	00130101 	andseq	r0, r3, r1, lsl #2
     f64:	012e1b00 	teqeq	lr, r0, lsl #22
     f68:	0e030c3f 	mcreq	12, 0, r0, cr3, cr15, {1}
     f6c:	0b3b0b3a 	bleq	ec3c5c <LOADER_PHYS_START-0x3f13c3a4>
     f70:	13490c27 	movtne	r0, #39975	; 0x9c27
     f74:	01120111 	tsteq	r2, r1, lsl r1
     f78:	13010640 	movwne	r0, #5696	; 0x1640
     f7c:	341c0000 	ldrcc	r0, [ip], #-0
     f80:	3a080300 	bcc	201b88 <LOADER_PHYS_START-0x3fdfe478>
     f84:	490b3b0b 	stmdbmi	fp, {r0, r1, r3, r8, r9, fp, ip, sp}
     f88:	00060213 	andeq	r0, r6, r3, lsl r2
     f8c:	011d1d00 	tsteq	sp, r0, lsl #26
     f90:	01521331 	cmpeq	r2, r1, lsr r3
     f94:	0b580655 	bleq	16028f0 <LOADER_PHYS_START-0x3e9fd710>
     f98:	13010b59 	movwne	r0, #7001	; 0x1b59
     f9c:	051e0000 	ldreq	r0, [lr, #-0]
     fa0:	1c133100 	ldfnes	f3, [r3], {-0}
     fa4:	1f000006 	svcne	0x00000006
     fa8:	0655010b 	ldrbeq	r0, [r5], -fp, lsl #2
     fac:	34200000 	strtcc	r0, [r0], #-0
     fb0:	02133100 	andseq	r3, r3, #0
     fb4:	21000006 	tstcs	r0, r6
     fb8:	0111010b 	tsteq	r1, fp, lsl #2
     fbc:	00000112 	andeq	r0, r0, r2, lsl r1
     fc0:	31011d22 	tstcc	r1, r2, lsr #26
     fc4:	12011113 	andne	r1, r1, #-1073741820	; 0xc0000004
     fc8:	590b5801 	stmdbpl	fp, {r0, fp, ip, lr}
     fcc:	2300000b 	movwcs	r0, #11
     fd0:	13310034 	teqne	r1, #52	; 0x34
     fd4:	00000a02 	andeq	r0, r0, r2, lsl #20
     fd8:	11010b24 	tstne	r1, r4, lsr #22
     fdc:	01011201 	tsteq	r1, r1, lsl #4
     fe0:	25000013 	strcs	r0, [r0, #-19]
     fe4:	13310034 	teqne	r1, #52	; 0x34
     fe8:	1d260000 	stcne	0, cr0, [r6, #-0]
     fec:	52133101 	andspl	r3, r3, #1073741824	; 0x40000000
     ff0:	58065501 	stmdapl	r6, {r0, r8, sl, ip, lr}
     ff4:	000b590b 	andeq	r5, fp, fp, lsl #18
     ff8:	012e2700 	teqeq	lr, r0, lsl #14
     ffc:	0e030c3f 	mcreq	12, 0, r0, cr3, cr15, {1}
    1000:	0b3b0b3a 	bleq	ec3cf0 <LOADER_PHYS_START-0x3f13c310>
    1004:	01110c27 	tsteq	r1, r7, lsr #24
    1008:	06400112 			; <UNDEFINED> instruction: 0x06400112
    100c:	00001301 	andeq	r1, r0, r1, lsl #6
    1010:	03003428 	movweq	r3, #1064	; 0x428
    1014:	3b0b3a08 	blcc	2cf83c <LOADER_PHYS_START-0x3fd307c4>
    1018:	0213490b 	andseq	r4, r3, #180224	; 0x2c000
    101c:	2900000a 	stmdbcs	r0, {r1, r3}
    1020:	0e030013 	mcreq	0, 0, r0, cr3, cr3, {0}
    1024:	00000c3c 	andeq	r0, r0, ip, lsr ip
    1028:	0300342a 	movweq	r3, #1066	; 0x42a
    102c:	3b0b3a08 	blcc	2cf854 <LOADER_PHYS_START-0x3fd307ac>
    1030:	0013490b 	andseq	r4, r3, fp, lsl #18
    1034:	00342b00 	eorseq	r2, r4, r0, lsl #22
    1038:	0b3a0e03 	bleq	e8484c <LOADER_PHYS_START-0x3f17b7b4>
    103c:	13490b3b 	movtne	r0, #39739	; 0x9b3b
    1040:	00000a02 	andeq	r0, r0, r2, lsl #20
    1044:	01110100 	tsteq	r1, r0, lsl #2
    1048:	0b130e25 	bleq	4c48e4 <LOADER_PHYS_START-0x3fb3b71c>
    104c:	0e1b0e03 	cdpeq	14, 1, cr0, cr11, cr3, {0}
    1050:	01120111 	tsteq	r2, r1, lsl r1
    1054:	00000610 	andeq	r0, r0, r0, lsl r6
    1058:	0b002402 	bleq	a068 <LOADER_PHYS_START-0x3fff5f98>
    105c:	030b3e0b 	movweq	r3, #48651	; 0xbe0b
    1060:	03000008 	movweq	r0, #8
    1064:	0e030016 	mcreq	0, 0, r0, cr3, cr6, {0}
    1068:	0b3b0b3a 	bleq	ec3d58 <LOADER_PHYS_START-0x3f13c2a8>
    106c:	00001349 	andeq	r1, r0, r9, asr #6
    1070:	0b002404 	bleq	a088 <LOADER_PHYS_START-0x3fff5f78>
    1074:	030b3e0b 	movweq	r3, #48651	; 0xbe0b
    1078:	0500000e 	streq	r0, [r0, #-14]
    107c:	0c3f012e 	ldfeqs	f0, [pc], #-184	; fcc <LOADER_PHYS_START-0x3ffff034>
    1080:	0b3a0e03 	bleq	e84894 <LOADER_PHYS_START-0x3f17b76c>
    1084:	0c270b3b 	stceq	11, cr0, [r7], #-236	; 0xffffff14
    1088:	01120111 	tsteq	r2, r1, lsl r1
    108c:	13010a40 	movwne	r0, #6720	; 0x1a40
    1090:	05060000 	streq	r0, [r6, #-0]
    1094:	3a0e0300 	bcc	381c9c <LOADER_PHYS_START-0x3fc7e364>
    1098:	490b3b0b 	stmdbmi	fp, {r0, r1, r3, r8, r9, fp, ip, sp}
    109c:	000a0213 	andeq	r0, sl, r3, lsl r2
    10a0:	00340700 	eorseq	r0, r4, r0, lsl #14
    10a4:	0b3a0e03 	bleq	e848b8 <LOADER_PHYS_START-0x3f17b748>
    10a8:	13490b3b 	movtne	r0, #39739	; 0x9b3b
    10ac:	0a020c3f 	beq	841b0 <LOADER_PHYS_START-0x3ff7be50>
    10b0:	0f080000 	svceq	0x00080000
    10b4:	490b0b00 	stmdbmi	fp, {r8, r9, fp}
    10b8:	09000013 	stmdbeq	r0, {r0, r1, r4}
    10bc:	13490035 	movtne	r0, #36917	; 0x9035
    10c0:	01000000 	mrseq	r0, (UNDEF: 0)
    10c4:	0e250111 	mcreq	1, 1, r0, cr5, cr1, {0}
    10c8:	0e030b13 	vmoveq.32	d3[0], r0
    10cc:	01110e1b 	tsteq	r1, fp, lsl lr
    10d0:	06100112 			; <UNDEFINED> instruction: 0x06100112
    10d4:	24020000 	strcs	r0, [r2], #-0
    10d8:	3e0b0b00 	vmlacc.f64	d0, d11, d0
    10dc:	0008030b 	andeq	r0, r8, fp, lsl #6
    10e0:	00160300 	andseq	r0, r6, r0, lsl #6
    10e4:	0b3a0e03 	bleq	e848f8 <LOADER_PHYS_START-0x3f17b708>
    10e8:	13490b3b 	movtne	r0, #39739	; 0x9b3b
    10ec:	24040000 	strcs	r0, [r4], #-0
    10f0:	3e0b0b00 	vmlacc.f64	d0, d11, d0
    10f4:	000e030b 	andeq	r0, lr, fp, lsl #6
    10f8:	01130500 	tsteq	r3, r0, lsl #10
    10fc:	0b0b0e03 	bleq	2c4910 <LOADER_PHYS_START-0x3fd3b6f0>
    1100:	0b3b0b3a 	bleq	ec3df0 <LOADER_PHYS_START-0x3f13c210>
    1104:	00001301 	andeq	r1, r0, r1, lsl #6
    1108:	03000d06 	movweq	r0, #3334	; 0xd06
    110c:	3b0b3a0e 	blcc	2cf94c <LOADER_PHYS_START-0x3fd306b4>
    1110:	3813490b 	ldmdacc	r3, {r0, r1, r3, r8, fp, lr}
    1114:	0700000a 	streq	r0, [r0, -sl]
    1118:	0803000d 	stmdaeq	r3, {r0, r2, r3}
    111c:	0b3b0b3a 	bleq	ec3e0c <LOADER_PHYS_START-0x3f13c1f4>
    1120:	0a381349 	beq	e05e4c <LOADER_PHYS_START-0x3f1fa1b4>
    1124:	01080000 	mrseq	r0, (UNDEF: 8)
    1128:	01134901 	tsteq	r3, r1, lsl #18
    112c:	09000013 	stmdbeq	r0, {r0, r1, r4}
    1130:	13490021 	movtne	r0, #36897	; 0x9021
    1134:	00000b2f 	andeq	r0, r0, pc, lsr #22
    1138:	0b01170a 	bleq	46d68 <LOADER_PHYS_START-0x3ffb9298>
    113c:	3b0b3a0b 	blcc	2cf970 <LOADER_PHYS_START-0x3fd30690>
    1140:	0013010b 	andseq	r0, r3, fp, lsl #2
    1144:	000d0b00 	andeq	r0, sp, r0, lsl #22
    1148:	0b3a0e03 	bleq	e8495c <LOADER_PHYS_START-0x3f17b6a4>
    114c:	13490b3b 	movtne	r0, #39739	; 0x9b3b
    1150:	0d0c0000 	stceq	0, cr0, [ip, #-0]
    1154:	3a080300 	bcc	201d5c <LOADER_PHYS_START-0x3fdfe2a4>
    1158:	490b3b0b 	stmdbmi	fp, {r0, r1, r3, r8, r9, fp, ip, sp}
    115c:	0d000013 	stceq	0, cr0, [r0, #-76]	; 0xffffffb4
    1160:	0e03012e 	adfeqsp	f0, f3, #0.5
    1164:	0b3b0b3a 	bleq	ec3e54 <LOADER_PHYS_START-0x3f13c1ac>
    1168:	0b200c27 	bleq	80420c <LOADER_PHYS_START-0x3f7fbdf4>
    116c:	00001301 	andeq	r1, r0, r1, lsl #6
    1170:	0300050e 	movweq	r0, #1294	; 0x50e
    1174:	3b0b3a0e 	blcc	2cf9b4 <LOADER_PHYS_START-0x3fd3064c>
    1178:	0013490b 	andseq	r4, r3, fp, lsl #18
    117c:	000f0f00 	andeq	r0, pc, r0, lsl #30
    1180:	00000b0b 	andeq	r0, r0, fp, lsl #22
    1184:	03002e10 	movweq	r2, #3600	; 0xe10
    1188:	3b0b3a0e 	blcc	2cf9c8 <LOADER_PHYS_START-0x3fd30638>
    118c:	200c270b 	andcs	r2, ip, fp, lsl #14
    1190:	1100000b 	tstne	r0, fp
    1194:	08030005 	stmdaeq	r3, {r0, r2}
    1198:	0b3b0b3a 	bleq	ec3e88 <LOADER_PHYS_START-0x3f13c178>
    119c:	00001349 	andeq	r1, r0, r9, asr #6
    11a0:	03003412 	movweq	r3, #1042	; 0x412
    11a4:	3b0b3a0e 	blcc	2cf9e4 <LOADER_PHYS_START-0x3fd3061c>
    11a8:	0013490b 	andseq	r4, r3, fp, lsl #18
    11ac:	000f1300 	andeq	r1, pc, r0, lsl #6
    11b0:	13490b0b 	movtne	r0, #39691	; 0x9b0b
    11b4:	26140000 	ldrcs	r0, [r4], -r0
    11b8:	00134900 	andseq	r4, r3, r0, lsl #18
    11bc:	012e1500 	teqeq	lr, r0, lsl #10
    11c0:	0e030c3f 	mcreq	12, 0, r0, cr3, cr15, {1}
    11c4:	0b3b0b3a 	bleq	ec3eb4 <LOADER_PHYS_START-0x3f13c14c>
    11c8:	01110c27 	tsteq	r1, r7, lsr #24
    11cc:	06400112 			; <UNDEFINED> instruction: 0x06400112
    11d0:	00001301 	andeq	r1, r0, r1, lsl #6
    11d4:	03000516 	movweq	r0, #1302	; 0x516
    11d8:	3b0b3a08 	blcc	2cfa00 <LOADER_PHYS_START-0x3fd30600>
    11dc:	0213490b 	andseq	r4, r3, #180224	; 0x2c000
    11e0:	17000006 	strne	r0, [r0, -r6]
    11e4:	0e030034 	mcreq	0, 0, r0, cr3, cr4, {1}
    11e8:	0b3b0b3a 	bleq	ec3ed8 <LOADER_PHYS_START-0x3f13c128>
    11ec:	0a021349 	beq	85f18 <LOADER_PHYS_START-0x3ff7a0e8>
    11f0:	1d180000 	ldcne	0, cr0, [r8, #-0]
    11f4:	52133101 	andspl	r3, r3, #1073741824	; 0x40000000
    11f8:	58065501 	stmdapl	r6, {r0, r8, sl, ip, lr}
    11fc:	010b590b 	tsteq	fp, fp, lsl #18
    1200:	19000013 	stmdbne	r0, {r0, r1, r4}
    1204:	13310005 	teqne	r1, #5
    1208:	0000051c 	andeq	r0, r0, ip, lsl r5
    120c:	3100051a 	tstcc	r0, sl, lsl r5
    1210:	00060213 	andeq	r0, r6, r3, lsl r2
    1214:	00051b00 	andeq	r1, r5, r0, lsl #22
    1218:	061c1331 			; <UNDEFINED> instruction: 0x061c1331
    121c:	1d1c0000 	ldcne	0, cr0, [ip, #-0]
    1220:	52133100 	andspl	r3, r3, #0
    1224:	58065501 	stmdapl	r6, {r0, r8, sl, ip, lr}
    1228:	000b590b 	andeq	r5, fp, fp, lsl #18
    122c:	00051d00 	andeq	r1, r5, r0, lsl #26
    1230:	0a021331 	beq	85efc <LOADER_PHYS_START-0x3ff7a104>
    1234:	0b1e0000 	bleq	78123c <LOADER_PHYS_START-0x3f87edc4>
    1238:	00065501 	andeq	r5, r6, r1, lsl #10
    123c:	00341f00 	eorseq	r1, r4, r0, lsl #30
    1240:	06021331 			; <UNDEFINED> instruction: 0x06021331
    1244:	1d200000 	stcne	0, cr0, [r0, #-0]
    1248:	11133100 	tstne	r3, r0, lsl #2
    124c:	58011201 	stmdapl	r1, {r0, r9, ip}
    1250:	000b590b 	andeq	r5, fp, fp, lsl #18
    1254:	012e2100 	teqeq	lr, r0, lsl #2
    1258:	0e030c3f 	mcreq	12, 0, r0, cr3, cr15, {1}
    125c:	0b3b0b3a 	bleq	ec3f4c <LOADER_PHYS_START-0x3f13c0b4>
    1260:	13490c27 	movtne	r0, #39975	; 0x9c27
    1264:	01120111 	tsteq	r2, r1, lsl r1
    1268:	13010640 	movwne	r0, #5696	; 0x1640
    126c:	0b220000 	bleq	881274 <LOADER_PHYS_START-0x3f77ed8c>
    1270:	12011101 	andne	r1, r1, #1073741824	; 0x40000000
    1274:	23000001 	movwcs	r0, #1
    1278:	0c3f012e 	ldfeqs	f0, [pc], #-184	; 11c8 <LOADER_PHYS_START-0x3fffee38>
    127c:	0b3a0e03 	bleq	e84a90 <LOADER_PHYS_START-0x3f17b570>
    1280:	13490b3b 	movtne	r0, #39739	; 0x9b3b
    1284:	00000c3c 	andeq	r0, r0, ip, lsr ip
    1288:	00001824 	andeq	r1, r0, r4, lsr #16
    128c:	00342500 	eorseq	r2, r4, r0, lsl #10
    1290:	0b3a0e03 	bleq	e84aa4 <LOADER_PHYS_START-0x3f17b55c>
    1294:	13490b3b 	movtne	r0, #39739	; 0x9b3b
    1298:	0a020c3f 	beq	8439c <LOADER_PHYS_START-0x3ff7bc64>
    129c:	01000000 	mrseq	r0, (UNDEF: 0)
    12a0:	0e250111 	mcreq	1, 1, r0, cr5, cr1, {0}
    12a4:	0e030b13 	vmoveq.32	d3[0], r0
    12a8:	01110e1b 	tsteq	r1, fp, lsl lr
    12ac:	06100112 			; <UNDEFINED> instruction: 0x06100112
    12b0:	24020000 	strcs	r0, [r2], #-0
    12b4:	3e0b0b00 	vmlacc.f64	d0, d11, d0
    12b8:	0008030b 	andeq	r0, r8, fp, lsl #6
    12bc:	00160300 	andseq	r0, r6, r0, lsl #6
    12c0:	0b3a0e03 	bleq	e84ad4 <LOADER_PHYS_START-0x3f17b52c>
    12c4:	13490b3b 	movtne	r0, #39739	; 0x9b3b
    12c8:	24040000 	strcs	r0, [r4], #-0
    12cc:	3e0b0b00 	vmlacc.f64	d0, d11, d0
    12d0:	000e030b 	andeq	r0, lr, fp, lsl #6
    12d4:	012e0500 	teqeq	lr, r0, lsl #10
    12d8:	0e030c3f 	mcreq	12, 0, r0, cr3, cr15, {1}
    12dc:	0b3b0b3a 	bleq	ec3fcc <LOADER_PHYS_START-0x3f13c034>
    12e0:	0b200c27 	bleq	804384 <LOADER_PHYS_START-0x3f7fbc7c>
    12e4:	00001301 	andeq	r1, r0, r1, lsl #6
    12e8:	03000506 	movweq	r0, #1286	; 0x506
    12ec:	3b0b3a0e 	blcc	2cfb2c <LOADER_PHYS_START-0x3fd304d4>
    12f0:	0013490b 	andseq	r4, r3, fp, lsl #18
    12f4:	00340700 	eorseq	r0, r4, r0, lsl #14
    12f8:	0b3a0803 	bleq	e8330c <LOADER_PHYS_START-0x3f17ccf4>
    12fc:	13490b3b 	movtne	r0, #39739	; 0x9b3b
    1300:	0f080000 	svceq	0x00080000
    1304:	490b0b00 	stmdbmi	fp, {r8, r9, fp}
    1308:	09000013 	stmdbeq	r0, {r0, r1, r4}
    130c:	1331012e 	teqne	r1, #-2147483637	; 0x8000000b
    1310:	01120111 	tsteq	r2, r1, lsl r1
    1314:	13010a40 	movwne	r0, #6720	; 0x1a40
    1318:	050a0000 	streq	r0, [sl, #-0]
    131c:	02133100 	andseq	r3, r3, #0
    1320:	0b000006 	bleq	1340 <LOADER_PHYS_START-0x3fffecc0>
    1324:	13310005 	teqne	r1, #5
    1328:	00000a02 	andeq	r0, r0, r2, lsl #20
    132c:	3100340c 	tstcc	r0, ip, lsl #8
    1330:	00060213 	andeq	r0, r6, r3, lsl r2
    1334:	00340d00 	eorseq	r0, r4, r0, lsl #26
    1338:	0a021331 	beq	86004 <LOADER_PHYS_START-0x3ff79ffc>
    133c:	2e0e0000 	cdpcs	0, 0, cr0, cr14, cr0, {0}
    1340:	030c3f01 	movweq	r3, #52993	; 0xcf01
    1344:	3b0b3a0e 	blcc	2cfb84 <LOADER_PHYS_START-0x3fd3047c>
    1348:	110c270b 	tstne	ip, fp, lsl #14
    134c:	40011201 	andmi	r1, r1, r1, lsl #4
    1350:	00130106 	andseq	r0, r3, r6, lsl #2
    1354:	00050f00 	andeq	r0, r5, r0, lsl #30
    1358:	0b3a0e03 	bleq	e84b6c <LOADER_PHYS_START-0x3f17b494>
    135c:	13490b3b 	movtne	r0, #39739	; 0x9b3b
    1360:	00000602 	andeq	r0, r0, r2, lsl #12
    1364:	3f012e10 	svccc	0x00012e10
    1368:	3a0e030c 	bcc	381fa0 <LOADER_PHYS_START-0x3fc7e060>
    136c:	490b3b0b 	stmdbmi	fp, {r0, r1, r3, r8, r9, fp, ip, sp}
    1370:	010c3c13 	tsteq	ip, r3, lsl ip
    1374:	11000013 	tstne	r0, r3, lsl r0
    1378:	00000018 	andeq	r0, r0, r8, lsl r0
    137c:	03003412 	movweq	r3, #1042	; 0x412
    1380:	3b0b3a0e 	blcc	2cfbc0 <LOADER_PHYS_START-0x3fd30440>
    1384:	0213490b 	andseq	r4, r3, #180224	; 0x2c000
    1388:	13000006 	movwne	r0, #6
    138c:	1331011d 	teqne	r1, #1073741831	; 0x40000007
    1390:	06550152 			; <UNDEFINED> instruction: 0x06550152
    1394:	0b590b58 	bleq	16440fc <LOADER_PHYS_START-0x3e9bbf04>
    1398:	00001301 	andeq	r1, r0, r1, lsl #6
    139c:	31000514 	tstcc	r0, r4, lsl r5
    13a0:	15000013 	strne	r0, [r0, #-19]
    13a4:	0655010b 	ldrbeq	r0, [r5], -fp, lsl #2
    13a8:	34160000 	ldrcc	r0, [r6], #-0
    13ac:	00133100 	andseq	r3, r3, r0, lsl #2
    13b0:	011d1700 	tsteq	sp, r0, lsl #14
    13b4:	01111331 	tsteq	r1, r1, lsr r3
    13b8:	0b580112 	bleq	1601808 <LOADER_PHYS_START-0x3e9fe7f8>
    13bc:	00000b59 	andeq	r0, r0, r9, asr fp
    13c0:	11010b18 	tstne	r1, r8, lsl fp
    13c4:	00011201 	andeq	r1, r1, r1, lsl #4
    13c8:	00341900 	eorseq	r1, r4, r0, lsl #18
    13cc:	0b3a0e03 	bleq	e84be0 <LOADER_PHYS_START-0x3f17b420>
    13d0:	13490b3b 	movtne	r0, #39739	; 0x9b3b
    13d4:	0c3c0c3f 	ldceq	12, cr0, [ip], #-252	; 0xffffff04
    13d8:	01000000 	mrseq	r0, (UNDEF: 0)
    13dc:	0e250111 	mcreq	1, 1, r0, cr5, cr1, {0}
    13e0:	0e030b13 	vmoveq.32	d3[0], r0
    13e4:	01110e1b 	tsteq	r1, fp, lsl lr
    13e8:	06100112 			; <UNDEFINED> instruction: 0x06100112
    13ec:	24020000 	strcs	r0, [r2], #-0
    13f0:	3e0b0b00 	vmlacc.f64	d0, d11, d0
    13f4:	0008030b 	andeq	r0, r8, fp, lsl #6
    13f8:	00240300 	eoreq	r0, r4, r0, lsl #6
    13fc:	0b3e0b0b 	bleq	f84030 <LOADER_PHYS_START-0x3f07bfd0>
    1400:	00000e03 	andeq	r0, r0, r3, lsl #28
    1404:	03010404 	movweq	r0, #5124	; 0x1404
    1408:	3a0b0b0e 	bcc	2c4048 <LOADER_PHYS_START-0x3fd3bfb8>
    140c:	010b3b0b 	tsteq	fp, fp, lsl #22
    1410:	05000013 	streq	r0, [r0, #-19]
    1414:	0e030028 	cdpeq	0, 0, cr0, cr3, cr8, {1}
    1418:	00000d1c 	andeq	r0, r0, ip, lsl sp
    141c:	03002806 	movweq	r2, #2054	; 0x806
    1420:	000d1c08 	andeq	r1, sp, r8, lsl #24
    1424:	01130700 	tsteq	r3, r0, lsl #14
    1428:	0b0b0803 	bleq	2c343c <LOADER_PHYS_START-0x3fd3cbc4>
    142c:	0b3b0b3a 	bleq	ec411c <LOADER_PHYS_START-0x3f13bee4>
    1430:	00001301 	andeq	r1, r0, r1, lsl #6
    1434:	03000d08 	movweq	r0, #3336	; 0xd08
    1438:	3b0b3a0e 	blcc	2cfc78 <LOADER_PHYS_START-0x3fd30388>
    143c:	3813490b 	ldmdacc	r3, {r0, r1, r3, r8, fp, lr}
    1440:	0900000a 	stmdbeq	r0, {r1, r3}
    1444:	0b0b000f 	bleq	2c1488 <LOADER_PHYS_START-0x3fd3eb78>
    1448:	00001349 	andeq	r1, r0, r9, asr #6
    144c:	03012e0a 	movweq	r2, #7690	; 0x1e0a
    1450:	3b0b3a0e 	blcc	2cfc90 <LOADER_PHYS_START-0x3fd30370>
    1454:	490c270b 	stmdbmi	ip, {r0, r1, r3, r8, r9, sl, sp}
    1458:	010b2013 	tsteq	fp, r3, lsl r0
    145c:	0b000013 	bleq	14b0 <LOADER_PHYS_START-0x3fffeb50>
    1460:	0e030005 	cdpeq	0, 0, cr0, cr3, cr5, {0}
    1464:	0b3b0b3a 	bleq	ec4154 <LOADER_PHYS_START-0x3f13beac>
    1468:	00001349 	andeq	r1, r0, r9, asr #6
    146c:	0300340c 	movweq	r3, #1036	; 0x40c
    1470:	3b0b3a08 	blcc	2cfc98 <LOADER_PHYS_START-0x3fd30368>
    1474:	0013490b 	andseq	r4, r3, fp, lsl #18
    1478:	010b0d00 	tsteq	fp, r0, lsl #26
    147c:	2e0e0000 	cdpcs	0, 0, cr0, cr14, cr0, {0}
    1480:	030c3f01 	movweq	r3, #52993	; 0xcf01
    1484:	3b0b3a0e 	blcc	2cfcc4 <LOADER_PHYS_START-0x3fd3033c>
    1488:	3c13490b 	ldccc	9, cr4, [r3], {11}
    148c:	0f00000c 	svceq	0x0000000c
    1490:	00000018 	andeq	r0, r0, r8, lsl r0
    1494:	03002e10 	movweq	r2, #3600	; 0xe10
    1498:	3b0b3a0e 	blcc	2cfcd8 <LOADER_PHYS_START-0x3fd30328>
    149c:	200c270b 	andcs	r2, ip, fp, lsl #14
    14a0:	1100000b 	tstne	r0, fp
    14a4:	0c3f012e 	ldfeqs	f0, [pc], #-184	; 13f4 <LOADER_PHYS_START-0x3fffec0c>
    14a8:	0b3a0e03 	bleq	e84cbc <LOADER_PHYS_START-0x3f17b344>
    14ac:	0c270b3b 	stceq	11, cr0, [r7], #-236	; 0xffffff14
    14b0:	01120111 	tsteq	r2, r1, lsl r1
    14b4:	13010640 	movwne	r0, #5696	; 0x1640
    14b8:	05120000 	ldreq	r0, [r2, #-0]
    14bc:	3a080300 	bcc	2020c4 <LOADER_PHYS_START-0x3fdfdf3c>
    14c0:	490b3b0b 	stmdbmi	fp, {r0, r1, r3, r8, r9, fp, ip, sp}
    14c4:	00060213 	andeq	r0, r6, r3, lsl r2
    14c8:	011d1300 	tsteq	sp, r0, lsl #6
    14cc:	01521331 	cmpeq	r2, r1, lsr r3
    14d0:	0b580655 	bleq	1602e2c <LOADER_PHYS_START-0x3e9fd1d4>
    14d4:	13010b59 	movwne	r0, #7001	; 0x1b59
    14d8:	05140000 	ldreq	r0, [r4, #-0]
    14dc:	02133100 	andseq	r3, r3, #0
    14e0:	15000006 	strne	r0, [r0, #-6]
    14e4:	0655010b 	ldrbeq	r0, [r5], -fp, lsl #2
    14e8:	34160000 	ldrcc	r0, [r6], #-0
    14ec:	02133100 	andseq	r3, r3, #0
    14f0:	17000006 	strne	r0, [r0, -r6]
    14f4:	1331011d 	teqne	r1, #1073741831	; 0x40000007
    14f8:	06550152 			; <UNDEFINED> instruction: 0x06550152
    14fc:	0b590b58 	bleq	1644264 <LOADER_PHYS_START-0x3e9bbd9c>
    1500:	05180000 	ldreq	r0, [r8, #-0]
    1504:	02133100 	andseq	r3, r3, #0
    1508:	1900000a 	stmdbne	r0, {r1, r3}
    150c:	0655000b 	ldrbeq	r0, [r5], -fp
    1510:	1d1a0000 	ldcne	0, cr0, [sl, #-0]
    1514:	52133100 	andspl	r3, r3, #0
    1518:	58065501 	stmdapl	r6, {r0, r8, sl, ip, lr}
    151c:	000b590b 	andeq	r5, fp, fp, lsl #18
    1520:	01011b00 	tsteq	r1, r0, lsl #22
    1524:	13011349 	movwne	r1, #4937	; 0x1349
    1528:	211c0000 	tstcs	ip, r0
    152c:	2f134900 	svccs	0x00134900
    1530:	1d00000b 	stcne	0, cr0, [r0, #-44]	; 0xffffffd4
    1534:	0e030034 	mcreq	0, 0, r0, cr3, cr4, {1}
    1538:	0b3b0b3a 	bleq	ec4228 <LOADER_PHYS_START-0x3f13bdd8>
    153c:	0a021349 	beq	86268 <LOADER_PHYS_START-0x3ff79d98>
    1540:	261e0000 	ldrcs	r0, [lr], -r0
    1544:	00134900 	andseq	r4, r3, r0, lsl #18
    1548:	11010000 	mrsne	r0, (UNDEF: 1)
    154c:	130e2501 	movwne	r2, #58625	; 0xe501
    1550:	1b0e030b 	blne	382184 <LOADER_PHYS_START-0x3fc7de7c>
    1554:	1201110e 	andne	r1, r1, #-2147483645	; 0x80000003
    1558:	00061001 	andeq	r1, r6, r1
    155c:	00240200 	eoreq	r0, r4, r0, lsl #4
    1560:	0b3e0b0b 	bleq	f84194 <LOADER_PHYS_START-0x3f07be6c>
    1564:	00000803 	andeq	r0, r0, r3, lsl #16
    1568:	03001603 	movweq	r1, #1539	; 0x603
    156c:	3b0b3a0e 	blcc	2cfdac <LOADER_PHYS_START-0x3fd30254>
    1570:	0013490b 	andseq	r4, r3, fp, lsl #18
    1574:	00240400 	eoreq	r0, r4, r0, lsl #8
    1578:	0b3e0b0b 	bleq	f841ac <LOADER_PHYS_START-0x3f07be54>
    157c:	00000e03 	andeq	r0, r0, r3, lsl #28
    1580:	03010405 	movweq	r0, #5125	; 0x1405
    1584:	3a0b0b0e 	bcc	2c41c4 <LOADER_PHYS_START-0x3fd3be3c>
    1588:	010b3b0b 	tsteq	fp, fp, lsl #22
    158c:	06000013 			; <UNDEFINED> instruction: 0x06000013
    1590:	0e030028 	cdpeq	0, 0, cr0, cr3, cr8, {1}
    1594:	00000d1c 	andeq	r0, r0, ip, lsl sp
    1598:	03011307 	movweq	r1, #4871	; 0x1307
    159c:	3a0b0b0e 	bcc	2c41dc <LOADER_PHYS_START-0x3fd3be24>
    15a0:	010b3b0b 	tsteq	fp, fp, lsl #22
    15a4:	08000013 	stmdaeq	r0, {r0, r1, r4}
    15a8:	0e03000d 	cdpeq	0, 0, cr0, cr3, cr13, {0}
    15ac:	0b3b0b3a 	bleq	ec429c <LOADER_PHYS_START-0x3f13bd64>
    15b0:	0a381349 	beq	e062dc <LOADER_PHYS_START-0x3f1f9d24>
    15b4:	0f090000 	svceq	0x00090000
    15b8:	490b0b00 	stmdbmi	fp, {r8, r9, fp}
    15bc:	0a000013 	beq	1610 <LOADER_PHYS_START-0x3fffe9f0>
    15c0:	0e03012e 	adfeqsp	f0, f3, #0.5
    15c4:	0b3b0b3a 	bleq	ec42b4 <LOADER_PHYS_START-0x3f13bd4c>
    15c8:	13490c27 	movtne	r0, #39975	; 0x9c27
    15cc:	13010b20 	movwne	r0, #6944	; 0x1b20
    15d0:	050b0000 	streq	r0, [fp, #-0]
    15d4:	3a0e0300 	bcc	3821dc <LOADER_PHYS_START-0x3fc7de24>
    15d8:	490b3b0b 	stmdbmi	fp, {r0, r1, r3, r8, r9, fp, ip, sp}
    15dc:	0c000013 	stceq	0, cr0, [r0], {19}
    15e0:	08030034 	stmdaeq	r3, {r2, r4, r5}
    15e4:	0b3b0b3a 	bleq	ec42d4 <LOADER_PHYS_START-0x3f13bd2c>
    15e8:	00001349 	andeq	r1, r0, r9, asr #6
    15ec:	00010b0d 	andeq	r0, r1, sp, lsl #22
    15f0:	012e0e00 	teqeq	lr, r0, lsl #28
    15f4:	0e030c3f 	mcreq	12, 0, r0, cr3, cr15, {1}
    15f8:	0b3b0b3a 	bleq	ec42e8 <LOADER_PHYS_START-0x3f13bd18>
    15fc:	0c3c1349 	ldceq	3, cr1, [ip], #-292	; 0xfffffedc
    1600:	180f0000 	stmdane	pc, {}	; <UNPREDICTABLE>
    1604:	10000000 	andne	r0, r0, r0
    1608:	0e03002e 	cdpeq	0, 0, cr0, cr3, cr14, {1}
    160c:	0b3b0b3a 	bleq	ec42fc <LOADER_PHYS_START-0x3f13bd04>
    1610:	0b200c27 	bleq	8046b4 <LOADER_PHYS_START-0x3f7fb94c>
    1614:	2e110000 	cdpcs	0, 1, cr0, cr1, cr0, {0}
    1618:	3a0e0301 	bcc	382224 <LOADER_PHYS_START-0x3fc7dddc>
    161c:	270b3b0b 	strcs	r3, [fp, -fp, lsl #22]
    1620:	010b200c 	tsteq	fp, ip
    1624:	12000013 	andne	r0, r0, #19
    1628:	0c3f002e 	ldceq	0, cr0, [pc], #-184	; 1578 <LOADER_PHYS_START-0x3fffea88>
    162c:	0b3a0e03 	bleq	e84e40 <LOADER_PHYS_START-0x3f17b1c0>
    1630:	0c270b3b 	stceq	11, cr0, [r7], #-236	; 0xffffff14
    1634:	00000b20 	andeq	r0, r0, r0, lsr #22
    1638:	03012e13 	movweq	r2, #7699	; 0x1e13
    163c:	3b0b3a0e 	blcc	2cfe7c <LOADER_PHYS_START-0x3fd30184>
    1640:	490c270b 	stmdbmi	ip, {r0, r1, r3, r8, r9, sl, sp}
    1644:	12011113 	andne	r1, r1, #-1073741820	; 0xc0000004
    1648:	01064001 	tsteq	r6, r1
    164c:	14000013 	strne	r0, [r0], #-19
    1650:	0e030005 	cdpeq	0, 0, cr0, cr3, cr5, {0}
    1654:	0b3b0b3a 	bleq	ec4344 <LOADER_PHYS_START-0x3f13bcbc>
    1658:	06021349 	streq	r1, [r2], -r9, asr #6
    165c:	05150000 	ldreq	r0, [r5, #-0]
    1660:	3a080300 	bcc	202268 <LOADER_PHYS_START-0x3fdfdd98>
    1664:	490b3b0b 	stmdbmi	fp, {r0, r1, r3, r8, r9, fp, ip, sp}
    1668:	00060213 	andeq	r0, r6, r3, lsl r2
    166c:	00341600 	eorseq	r1, r4, r0, lsl #12
    1670:	0b3a0803 	bleq	e83684 <LOADER_PHYS_START-0x3f17c97c>
    1674:	13490b3b 	movtne	r0, #39739	; 0x9b3b
    1678:	00000602 	andeq	r0, r0, r2, lsl #12
    167c:	3f012e17 	svccc	0x00012e17
    1680:	3a0e030c 	bcc	3822b8 <LOADER_PHYS_START-0x3fc7dd48>
    1684:	490b3b0b 	stmdbmi	fp, {r0, r1, r3, r8, r9, fp, ip, sp}
    1688:	010c3c13 	tsteq	ip, r3, lsl ip
    168c:	18000013 	stmdane	r0, {r0, r1, r4}
    1690:	1331001d 	teqne	r1, #29
    1694:	01120111 	tsteq	r2, r1, lsl r1
    1698:	0b590b58 	bleq	1644400 <LOADER_PHYS_START-0x3e9bbc00>
    169c:	2e190000 	cdpcs	0, 1, cr0, cr9, cr0, {0}
    16a0:	030c3f01 	movweq	r3, #52993	; 0xcf01
    16a4:	3b0b3a0e 	blcc	2cfee4 <LOADER_PHYS_START-0x3fd3011c>
    16a8:	110c270b 	tstne	ip, fp, lsl #14
    16ac:	40011201 	andmi	r1, r1, r1, lsl #4
    16b0:	0013010a 	andseq	r0, r3, sl, lsl #2
    16b4:	00051a00 	andeq	r1, r5, r0, lsl #20
    16b8:	0b3a0803 	bleq	e836cc <LOADER_PHYS_START-0x3f17c934>
    16bc:	13490b3b 	movtne	r0, #39739	; 0x9b3b
    16c0:	00000a02 	andeq	r0, r0, r2, lsl #20
    16c4:	3f002e1b 	svccc	0x00002e1b
    16c8:	3a0e030c 	bcc	382300 <LOADER_PHYS_START-0x3fc7dd00>
    16cc:	270b3b0b 	strcs	r3, [fp, -fp, lsl #22]
    16d0:	1201110c 	andne	r1, r1, #3
    16d4:	00064001 	andeq	r4, r6, r1
    16d8:	002e1c00 	eoreq	r1, lr, r0, lsl #24
    16dc:	01111331 	tsteq	r1, r1, lsr r3
    16e0:	0a400112 	beq	1001b30 <LOADER_PHYS_START-0x3effe4d0>
    16e4:	341d0000 	ldrcc	r0, [sp], #-0
    16e8:	3a0e0300 	bcc	3822f0 <LOADER_PHYS_START-0x3fc7dd10>
    16ec:	490b3b0b 	stmdbmi	fp, {r0, r1, r3, r8, r9, fp, ip, sp}
    16f0:	1e000013 	mcrne	0, 0, r0, cr0, cr3, {0}
    16f4:	0c3f012e 	ldfeqs	f0, [pc], #-184	; 1644 <LOADER_PHYS_START-0x3fffe9bc>
    16f8:	0b3a0e03 	bleq	e84f0c <LOADER_PHYS_START-0x3f17b0f4>
    16fc:	0c270b3b 	stceq	11, cr0, [r7], #-236	; 0xffffff14
    1700:	01111349 	tsteq	r1, r9, asr #6
    1704:	06400112 			; <UNDEFINED> instruction: 0x06400112
    1708:	00001301 	andeq	r1, r0, r1, lsl #6
    170c:	0300341f 	movweq	r3, #1055	; 0x41f
    1710:	3b0b3a0e 	blcc	2cff50 <LOADER_PHYS_START-0x3fd300b0>
    1714:	1c134905 	ldcne	9, cr4, [r3], {5}
    1718:	20000006 	andcs	r0, r0, r6
    171c:	0e030034 	mcreq	0, 0, r0, cr3, cr4, {1}
    1720:	053b0b3a 	ldreq	r0, [fp, #-2874]!	; 0xb3a
    1724:	0a021349 	beq	86450 <LOADER_PHYS_START-0x3ff79bb0>
    1728:	34210000 	strtcc	r0, [r1], #-0
    172c:	3a0e0300 	bcc	382334 <LOADER_PHYS_START-0x3fc7dccc>
    1730:	49053b0b 	stmdbmi	r5, {r0, r1, r3, r8, r9, fp, ip, sp}
    1734:	00060213 	andeq	r0, r6, r3, lsl r2
    1738:	00342200 	eorseq	r2, r4, r0, lsl #4
    173c:	0b3a0e03 	bleq	e84f50 <LOADER_PHYS_START-0x3f17b0b0>
    1740:	1349053b 	movtne	r0, #38203	; 0x953b
    1744:	1d230000 	stcne	0, cr0, [r3, #-0]
    1748:	52133101 	andspl	r3, r3, #1073741824	; 0x40000000
    174c:	58065501 	stmdapl	r6, {r0, r8, sl, ip, lr}
    1750:	0105590b 	tsteq	r5, fp, lsl #18
    1754:	24000013 	strcs	r0, [r0], #-19
    1758:	13310005 	teqne	r1, #5
    175c:	00000a02 	andeq	r0, r0, r2, lsl #20
    1760:	31000525 	tstcc	r0, r5, lsr #10
    1764:	00060213 	andeq	r0, r6, r3, lsl r2
    1768:	010b2600 	tsteq	fp, r0, lsl #12
    176c:	00000655 	andeq	r0, r0, r5, asr r6
    1770:	31003427 	tstcc	r0, r7, lsr #8
    1774:	00060213 	andeq	r0, r6, r3, lsl r2
    1778:	011d2800 	tsteq	sp, r0, lsl #16
    177c:	01521331 	cmpeq	r2, r1, lsr r3
    1780:	0b580655 	bleq	16030dc <LOADER_PHYS_START-0x3e9fcf24>
    1784:	00000b59 	andeq	r0, r0, r9, asr fp
    1788:	55000b29 	strpl	r0, [r0, #-2857]	; 0xb29
    178c:	2a000006 	bcs	17ac <LOADER_PHYS_START-0x3fffe854>
    1790:	1331001d 	teqne	r1, #29
    1794:	01120111 	tsteq	r2, r1, lsl r1
    1798:	05590b58 	ldrbeq	r0, [r9, #-2904]	; 0xb58
    179c:	1d2b0000 	stcne	0, cr0, [fp, #-0]
    17a0:	11133101 	tstne	r3, r1, lsl #2
    17a4:	58011201 	stmdapl	r1, {r0, r9, ip}
    17a8:	0105590b 	tsteq	r5, fp, lsl #18
    17ac:	2c000013 	stccs	0, cr0, [r0], {19}
    17b0:	0111010b 	tsteq	r1, fp, lsl #2
    17b4:	00000112 	andeq	r0, r0, r2, lsl r1
    17b8:	3100342d 	tstcc	r0, sp, lsr #8
    17bc:	000a0213 	andeq	r0, sl, r3, lsl r2
    17c0:	001d2e00 	andseq	r2, sp, r0, lsl #28
    17c4:	01521331 	cmpeq	r2, r1, lsr r3
    17c8:	0b580655 	bleq	1603124 <LOADER_PHYS_START-0x3e9fcedc>
    17cc:	00000559 	andeq	r0, r0, r9, asr r5
    17d0:	31011d2f 	tstcc	r1, pc, lsr #26
    17d4:	12011113 	andne	r1, r1, #-1073741820	; 0xc0000004
    17d8:	590b5801 	stmdbpl	fp, {r0, fp, ip, lr}
    17dc:	30000005 	andcc	r0, r0, r5
    17e0:	13490035 	movtne	r0, #36917	; 0x9035
    17e4:	01310000 	teqeq	r1, r0
    17e8:	01134901 	tsteq	r3, r1, lsl #18
    17ec:	32000013 	andcc	r0, r0, #19
    17f0:	13490021 	movtne	r0, #36897	; 0x9021
    17f4:	00000b2f 	andeq	r0, r0, pc, lsr #22
    17f8:	03003433 	movweq	r3, #1075	; 0x433
    17fc:	3b0b3a0e 	blcc	2d003c <LOADER_PHYS_START-0x3fd2ffc4>
    1800:	0213490b 	andseq	r4, r3, #180224	; 0x2c000
    1804:	3400000a 	strcc	r0, [r0], #-10
    1808:	13490026 	movtne	r0, #36902	; 0x9026
    180c:	34350000 	ldrtcc	r0, [r5], #-0
    1810:	3a0e0300 	bcc	382418 <LOADER_PHYS_START-0x3fc7dbe8>
    1814:	490b3b0b 	stmdbmi	fp, {r0, r1, r3, r8, r9, fp, ip, sp}
    1818:	3c0c3f13 	stccc	15, cr3, [ip], {19}
    181c:	3600000c 	strcc	r0, [r0], -ip
    1820:	0e030034 	mcreq	0, 0, r0, cr3, cr4, {1}
    1824:	0b3b0b3a 	bleq	ec4514 <LOADER_PHYS_START-0x3f13baec>
    1828:	0c3f1349 	ldceq	3, cr1, [pc], #-292	; 170c <LOADER_PHYS_START-0x3fffe8f4>
    182c:	00000a02 	andeq	r0, r0, r2, lsl #20
    1830:	01110100 	tsteq	r1, r0, lsl #2
    1834:	0b130e25 	bleq	4c50d0 <LOADER_PHYS_START-0x3fb3af30>
    1838:	0e1b0e03 	cdpeq	14, 1, cr0, cr11, cr3, {0}
    183c:	01120111 	tsteq	r2, r1, lsl r1
    1840:	00000610 	andeq	r0, r0, r0, lsl r6
    1844:	0b002402 	bleq	a854 <LOADER_PHYS_START-0x3fff57ac>
    1848:	030b3e0b 	movweq	r3, #48651	; 0xbe0b
    184c:	03000008 	movweq	r0, #8
    1850:	0e030016 	mcreq	0, 0, r0, cr3, cr6, {0}
    1854:	0b3b0b3a 	bleq	ec4544 <LOADER_PHYS_START-0x3f13babc>
    1858:	00001349 	andeq	r1, r0, r9, asr #6
    185c:	0b002404 	bleq	a874 <LOADER_PHYS_START-0x3fff578c>
    1860:	030b3e0b 	movweq	r3, #48651	; 0xbe0b
    1864:	0500000e 	streq	r0, [r0, #-14]
    1868:	13490101 	movtne	r0, #37121	; 0x9101
    186c:	00001301 	andeq	r1, r0, r1, lsl #6
    1870:	49002106 	stmdbmi	r0, {r1, r2, r8, sp}
    1874:	000b2f13 	andeq	r2, fp, r3, lsl pc
    1878:	01130700 	tsteq	r3, r0, lsl #14
    187c:	0b0b0e03 	bleq	2c5090 <LOADER_PHYS_START-0x3fd3af70>
    1880:	0b3b0b3a 	bleq	ec4570 <LOADER_PHYS_START-0x3f13ba90>
    1884:	00001301 	andeq	r1, r0, r1, lsl #6
    1888:	03000d08 	movweq	r0, #3336	; 0xd08
    188c:	3b0b3a0e 	blcc	2d00cc <LOADER_PHYS_START-0x3fd2ff34>
    1890:	3813490b 	ldmdacc	r3, {r0, r1, r3, r8, fp, lr}
    1894:	0900000a 	stmdbeq	r0, {r1, r3}
    1898:	0803000d 	stmdaeq	r3, {r0, r2, r3}
    189c:	0b3b0b3a 	bleq	ec458c <LOADER_PHYS_START-0x3f13ba74>
    18a0:	0a381349 	beq	e065cc <LOADER_PHYS_START-0x3f1f9a34>
    18a4:	2e0a0000 	cdpcs	0, 0, cr0, cr10, cr0, {0}
    18a8:	3a0e0301 	bcc	3824b4 <LOADER_PHYS_START-0x3fc7db4c>
    18ac:	270b3b0b 	strcs	r3, [fp, -fp, lsl #22]
    18b0:	010b200c 	tsteq	fp, ip
    18b4:	0b000013 	bleq	1908 <LOADER_PHYS_START-0x3fffe6f8>
    18b8:	08030005 	stmdaeq	r3, {r0, r2}
    18bc:	0b3b0b3a 	bleq	ec45ac <LOADER_PHYS_START-0x3f13ba54>
    18c0:	00001349 	andeq	r1, r0, r9, asr #6
    18c4:	0300050c 	movweq	r0, #1292	; 0x50c
    18c8:	3b0b3a0e 	blcc	2d0108 <LOADER_PHYS_START-0x3fd2fef8>
    18cc:	0013490b 	andseq	r4, r3, fp, lsl #18
    18d0:	000f0d00 	andeq	r0, pc, r0, lsl #26
    18d4:	13490b0b 	movtne	r0, #39691	; 0x9b0b
    18d8:	2e0e0000 	cdpcs	0, 0, cr0, cr14, cr0, {0}
    18dc:	3a080301 	bcc	2024e8 <LOADER_PHYS_START-0x3fdfdb18>
    18e0:	270b3b0b 	strcs	r3, [fp, -fp, lsl #22]
    18e4:	2013490c 	andscs	r4, r3, ip, lsl #18
    18e8:	0013010b 	andseq	r0, r3, fp, lsl #2
    18ec:	012e0f00 	teqeq	lr, r0, lsl #30
    18f0:	0b3a0e03 	bleq	e85104 <LOADER_PHYS_START-0x3f17aefc>
    18f4:	0c270b3b 	stceq	11, cr0, [r7], #-236	; 0xffffff14
    18f8:	0b201349 	bleq	806624 <LOADER_PHYS_START-0x3f7f99dc>
    18fc:	00001301 	andeq	r1, r0, r1, lsl #6
    1900:	3f012e10 	svccc	0x00012e10
    1904:	3a0e030c 	bcc	38253c <LOADER_PHYS_START-0x3fc7dac4>
    1908:	490b3b0b 	stmdbmi	fp, {r0, r1, r3, r8, r9, fp, ip, sp}
    190c:	000c3c13 	andeq	r3, ip, r3, lsl ip
    1910:	00181100 	andseq	r1, r8, r0, lsl #2
    1914:	2e120000 	cdpcs	0, 1, cr0, cr2, cr0, {0}
    1918:	030c3f01 	movweq	r3, #52993	; 0xcf01
    191c:	3b0b3a0e 	blcc	2d015c <LOADER_PHYS_START-0x3fd2fea4>
    1920:	200c2705 	andcs	r2, ip, r5, lsl #14
    1924:	0013010b 	andseq	r0, r3, fp, lsl #2
    1928:	00051300 	andeq	r1, r5, r0, lsl #6
    192c:	0b3a0803 	bleq	e83940 <LOADER_PHYS_START-0x3f17c6c0>
    1930:	1349053b 	movtne	r0, #38203	; 0x953b
    1934:	05140000 	ldreq	r0, [r4, #-0]
    1938:	3a0e0300 	bcc	382540 <LOADER_PHYS_START-0x3fc7dac0>
    193c:	49053b0b 	stmdbmi	r5, {r0, r1, r3, r8, r9, fp, ip, sp}
    1940:	15000013 	strne	r0, [r0, #-19]
    1944:	0e030034 	mcreq	0, 0, r0, cr3, cr4, {1}
    1948:	053b0b3a 	ldreq	r0, [fp, #-2874]!	; 0xb3a
    194c:	00001349 	andeq	r1, r0, r9, asr #6
    1950:	03003416 	movweq	r3, #1046	; 0x416
    1954:	3b0b3a0e 	blcc	2d0194 <LOADER_PHYS_START-0x3fd2fe6c>
    1958:	0013490b 	andseq	r4, r3, fp, lsl #18
    195c:	00341700 	eorseq	r1, r4, r0, lsl #14
    1960:	0b3a0803 	bleq	e83974 <LOADER_PHYS_START-0x3f17c68c>
    1964:	13490b3b 	movtne	r0, #39739	; 0x9b3b
    1968:	0b180000 	bleq	601970 <LOADER_PHYS_START-0x3f9fe690>
    196c:	19000001 	stmdbne	r0, {r0}
    1970:	0e03012e 	adfeqsp	f0, f3, #0.5
    1974:	053b0b3a 	ldreq	r0, [fp, #-2874]!	; 0xb3a
    1978:	0b200c27 	bleq	804a1c <LOADER_PHYS_START-0x3f7fb5e4>
    197c:	00001301 	andeq	r1, r0, r1, lsl #6
    1980:	0300341a 	movweq	r3, #1050	; 0x41a
    1984:	3b0b3a08 	blcc	2d01ac <LOADER_PHYS_START-0x3fd2fe54>
    1988:	00134905 	andseq	r4, r3, r5, lsl #18
    198c:	00351b00 	eorseq	r1, r5, r0, lsl #22
    1990:	00001349 	andeq	r1, r0, r9, asr #6
    1994:	03012e1c 	movweq	r2, #7708	; 0x1e1c
    1998:	3b0b3a0e 	blcc	2d01d8 <LOADER_PHYS_START-0x3fd2fe28>
    199c:	110c270b 	tstne	ip, fp, lsl #14
    19a0:	40011201 	andmi	r1, r1, r1, lsl #4
    19a4:	00130106 	andseq	r0, r3, r6, lsl #2
    19a8:	00051d00 	andeq	r1, r5, r0, lsl #26
    19ac:	0b3a0803 	bleq	e839c0 <LOADER_PHYS_START-0x3f17c640>
    19b0:	13490b3b 	movtne	r0, #39739	; 0x9b3b
    19b4:	00000602 	andeq	r0, r0, r2, lsl #12
    19b8:	0300051e 	movweq	r0, #1310	; 0x51e
    19bc:	3b0b3a08 	blcc	2d01e4 <LOADER_PHYS_START-0x3fd2fe1c>
    19c0:	0213490b 	andseq	r4, r3, #180224	; 0x2c000
    19c4:	1f00000a 	svcne	0x0000000a
    19c8:	08030034 	stmdaeq	r3, {r2, r4, r5}
    19cc:	0b3b0b3a 	bleq	ec46bc <LOADER_PHYS_START-0x3f13b944>
    19d0:	06021349 	streq	r1, [r2], -r9, asr #6
    19d4:	1d200000 	stcne	0, cr0, [r0, #-0]
    19d8:	52133101 	andspl	r3, r3, #1073741824	; 0x40000000
    19dc:	58065501 	stmdapl	r6, {r0, r8, sl, ip, lr}
    19e0:	000b590b 	andeq	r5, fp, fp, lsl #18
    19e4:	00052100 	andeq	r2, r5, r0, lsl #2
    19e8:	06021331 			; <UNDEFINED> instruction: 0x06021331
    19ec:	05220000 	streq	r0, [r2, #-0]!
    19f0:	00133100 	andseq	r3, r3, r0, lsl #2
    19f4:	012e2300 	teqeq	lr, r0, lsl #6
    19f8:	01111331 	tsteq	r1, r1, lsr r3
    19fc:	0a400112 	beq	1001e4c <LOADER_PHYS_START-0x3effe1b4>
    1a00:	00001301 	andeq	r1, r0, r1, lsl #6
    1a04:	3f012e24 	svccc	0x00012e24
    1a08:	3a0e030c 	bcc	382640 <LOADER_PHYS_START-0x3fc7d9c0>
    1a0c:	270b3b0b 	strcs	r3, [fp, -fp, lsl #22]
    1a10:	1201110c 	andne	r1, r1, #3
    1a14:	01064001 	tsteq	r6, r1
    1a18:	25000013 	strcs	r0, [r0, #-19]
    1a1c:	0e030034 	mcreq	0, 0, r0, cr3, cr4, {1}
    1a20:	0b3b0b3a 	bleq	ec4710 <LOADER_PHYS_START-0x3f13b8f0>
    1a24:	06021349 	streq	r1, [r2], -r9, asr #6
    1a28:	34260000 	strtcc	r0, [r6], #-0
    1a2c:	3a080300 	bcc	202634 <LOADER_PHYS_START-0x3fdfd9cc>
    1a30:	490b3b0b 	stmdbmi	fp, {r0, r1, r3, r8, r9, fp, ip, sp}
    1a34:	000a0213 	andeq	r0, sl, r3, lsl r2
    1a38:	011d2700 	tsteq	sp, r0, lsl #14
    1a3c:	01111331 	tsteq	r1, r1, lsr r3
    1a40:	0b580112 	bleq	1601e90 <LOADER_PHYS_START-0x3e9fe170>
    1a44:	00000b59 	andeq	r0, r0, r9, asr fp
    1a48:	03000528 	movweq	r0, #1320	; 0x528
    1a4c:	3b0b3a0e 	blcc	2d028c <LOADER_PHYS_START-0x3fd2fd74>
    1a50:	0213490b 	andseq	r4, r3, #180224	; 0x2c000
    1a54:	29000006 	stmdbcs	r0, {r1, r2}
    1a58:	0e030034 	mcreq	0, 0, r0, cr3, cr4, {1}
    1a5c:	0b3b0b3a 	bleq	ec474c <LOADER_PHYS_START-0x3f13b8b4>
    1a60:	061c1349 	ldreq	r1, [ip], -r9, asr #6
    1a64:	1d2a0000 	stcne	0, cr0, [sl, #-0]
    1a68:	11133101 	tstne	r3, r1, lsl #2
    1a6c:	58011201 	stmdapl	r1, {r0, r9, ip}
    1a70:	010b590b 	tsteq	fp, fp, lsl #18
    1a74:	2b000013 	blcs	1ac8 <LOADER_PHYS_START-0x3fffe538>
    1a78:	1331011d 	teqne	r1, #1073741831	; 0x40000007
    1a7c:	06550152 			; <UNDEFINED> instruction: 0x06550152
    1a80:	05590b58 	ldrbeq	r0, [r9, #-2904]	; 0xb58
    1a84:	2e2c0000 	cdpcs	0, 2, cr0, cr12, cr0, {0}
    1a88:	030c3f01 	movweq	r3, #52993	; 0xcf01
    1a8c:	3b0b3a0e 	blcc	2d02cc <LOADER_PHYS_START-0x3fd2fd34>
    1a90:	110c2705 	tstne	ip, r5, lsl #14
    1a94:	40011201 	andmi	r1, r1, r1, lsl #4
    1a98:	00130106 	andseq	r0, r3, r6, lsl #2
    1a9c:	00342d00 	eorseq	r2, r4, r0, lsl #26
    1aa0:	0b3a0e03 	bleq	e852b4 <LOADER_PHYS_START-0x3f17ad4c>
    1aa4:	1349053b 	movtne	r0, #38203	; 0x953b
    1aa8:	00000a02 	andeq	r0, r0, r2, lsl #20
    1aac:	0300342e 	movweq	r3, #1070	; 0x42e
    1ab0:	3b0b3a0e 	blcc	2d02f0 <LOADER_PHYS_START-0x3fd2fd10>
    1ab4:	02134905 	andseq	r4, r3, #81920	; 0x14000
    1ab8:	2f000006 	svccs	0x00000006
    1abc:	13310005 	teqne	r1, #5
    1ac0:	00000a02 	andeq	r0, r0, r2, lsl #20
    1ac4:	31003430 	tstcc	r0, r0, lsr r4
    1ac8:	000b1c13 	andeq	r1, fp, r3, lsl ip
    1acc:	011d3100 	tsteq	sp, r0, lsl #2
    1ad0:	01111331 	tsteq	r1, r1, lsr r3
    1ad4:	0b580112 	bleq	1601f24 <LOADER_PHYS_START-0x3e9fe0dc>
    1ad8:	00000559 	andeq	r0, r0, r9, asr r5
    1adc:	31000532 	tstcc	r0, r2, lsr r5
    1ae0:	000b1c13 	andeq	r1, fp, r3, lsl ip
    1ae4:	012e3300 	teqeq	lr, r0, lsl #6
    1ae8:	08030c3f 	stmdaeq	r3, {r0, r1, r2, r3, r4, r5, sl, fp}
    1aec:	053b0b3a 	ldreq	r0, [fp, #-2874]!	; 0xb3a
    1af0:	01110c27 	tsteq	r1, r7, lsr #24
    1af4:	06400112 			; <UNDEFINED> instruction: 0x06400112
    1af8:	00001301 	andeq	r1, r0, r1, lsl #6
    1afc:	03003434 	movweq	r3, #1076	; 0x434
    1b00:	3b0b3a08 	blcc	2d0328 <LOADER_PHYS_START-0x3fd2fcd8>
    1b04:	1c134905 	ldcne	9, cr4, [r3], {5}
    1b08:	3500000b 	strcc	r0, [r0, #-11]
    1b0c:	0e030034 	mcreq	0, 0, r0, cr3, cr4, {1}
    1b10:	053b0b3a 	ldreq	r0, [fp, #-2874]!	; 0xb3a
    1b14:	061c1349 	ldreq	r1, [ip], -r9, asr #6
    1b18:	1d360000 	ldcne	0, cr0, [r6, #-0]
    1b1c:	52133101 	andspl	r3, r3, #1073741824	; 0x40000000
    1b20:	58065501 	stmdapl	r6, {r0, r8, sl, ip, lr}
    1b24:	0105590b 	tsteq	r5, fp, lsl #18
    1b28:	37000013 	smladcc	r0, r3, r0, r0
    1b2c:	0655010b 	ldrbeq	r0, [r5], -fp, lsl #2
    1b30:	34380000 	ldrtcc	r0, [r8], #-0
    1b34:	02133100 	andseq	r3, r3, #0
    1b38:	39000006 	stmdbcc	r0, {r1, r2}
    1b3c:	13310005 	teqne	r1, #5
    1b40:	0000051c 	andeq	r0, r0, ip, lsl r5
    1b44:	11010b3a 	tstne	r1, sl, lsr fp
    1b48:	00011201 	andeq	r1, r1, r1, lsl #4
    1b4c:	012e3b00 	teqeq	lr, r0, lsl #22
    1b50:	0e030c3f 	mcreq	12, 0, r0, cr3, cr15, {1}
    1b54:	053b0b3a 	ldreq	r0, [fp, #-2874]!	; 0xb3a
    1b58:	0c3c1349 	ldceq	3, cr1, [ip], #-292	; 0xfffffedc
    1b5c:	00001301 	andeq	r1, r0, r1, lsl #6
    1b60:	3100343c 	tstcc	r0, ip, lsr r4
    1b64:	000a0213 	andeq	r0, sl, r3, lsl r2
    1b68:	00343d00 	eorseq	r3, r4, r0, lsl #26
    1b6c:	00001331 	andeq	r1, r0, r1, lsr r3
    1b70:	11000b3e 	tstne	r0, lr, lsr fp
    1b74:	00011201 	andeq	r1, r1, r1, lsl #4
    1b78:	011d3f00 	tsteq	sp, r0, lsl #30
    1b7c:	01111331 	tsteq	r1, r1, lsr r3
    1b80:	0b580112 	bleq	1601fd0 <LOADER_PHYS_START-0x3e9fe030>
    1b84:	13010559 	movwne	r0, #5465	; 0x1559
    1b88:	0b400000 	bleq	1001b90 <LOADER_PHYS_START-0x3effe470>
    1b8c:	12011101 	andne	r1, r1, #1073741824	; 0x40000000
    1b90:	00130101 	andseq	r0, r3, r1, lsl #2
    1b94:	00344100 	eorseq	r4, r4, r0, lsl #2
    1b98:	0b3a0e03 	bleq	e853ac <LOADER_PHYS_START-0x3f17ac54>
    1b9c:	13490b3b 	movtne	r0, #39739	; 0x9b3b
    1ba0:	00000a02 	andeq	r0, r0, r2, lsl #20
    1ba4:	49002642 	stmdbmi	r0, {r1, r6, r9, sl, sp}
    1ba8:	43000013 	movwmi	r0, #19
    1bac:	13490021 	movtne	r0, #36897	; 0x9021
    1bb0:	0000052f 	andeq	r0, r0, pc, lsr #10
    1bb4:	03003444 	movweq	r3, #1092	; 0x444
    1bb8:	3b0b3a0e 	blcc	2d03f8 <LOADER_PHYS_START-0x3fd2fc08>
    1bbc:	3f13490b 	svccc	0x0013490b
    1bc0:	000a020c 	andeq	r0, sl, ip, lsl #4
    1bc4:	00344500 	eorseq	r4, r4, r0, lsl #10
    1bc8:	0b3a0e03 	bleq	e853dc <LOADER_PHYS_START-0x3f17ac24>
    1bcc:	1349053b 	movtne	r0, #38203	; 0x953b
    1bd0:	0a020c3f 	beq	84cd4 <LOADER_PHYS_START-0x3ff7b32c>
    1bd4:	01000000 	mrseq	r0, (UNDEF: 0)
    1bd8:	0e250111 	mcreq	1, 1, r0, cr5, cr1, {0}
    1bdc:	0e030b13 	vmoveq.32	d3[0], r0
    1be0:	01110e1b 	tsteq	r1, fp, lsl lr
    1be4:	06100112 			; <UNDEFINED> instruction: 0x06100112
    1be8:	24020000 	strcs	r0, [r2], #-0
    1bec:	3e0b0b00 	vmlacc.f64	d0, d11, d0
    1bf0:	0008030b 	andeq	r0, r8, fp, lsl #6
    1bf4:	00160300 	andseq	r0, r6, r0, lsl #6
    1bf8:	0b3a0e03 	bleq	e8540c <LOADER_PHYS_START-0x3f17abf4>
    1bfc:	13490b3b 	movtne	r0, #39739	; 0x9b3b
    1c00:	24040000 	strcs	r0, [r4], #-0
    1c04:	3e0b0b00 	vmlacc.f64	d0, d11, d0
    1c08:	000e030b 	andeq	r0, lr, fp, lsl #6
    1c0c:	01130500 	tsteq	r3, r0, lsl #10
    1c10:	0b0b0e03 	bleq	2c5424 <LOADER_PHYS_START-0x3fd3abdc>
    1c14:	0b3b0b3a 	bleq	ec4904 <LOADER_PHYS_START-0x3f13b6fc>
    1c18:	00001301 	andeq	r1, r0, r1, lsl #6
    1c1c:	03000d06 	movweq	r0, #3334	; 0xd06
    1c20:	3b0b3a0e 	blcc	2d0460 <LOADER_PHYS_START-0x3fd2fba0>
    1c24:	3813490b 	ldmdacc	r3, {r0, r1, r3, r8, fp, lr}
    1c28:	0700000a 	streq	r0, [r0, -sl]
    1c2c:	13490101 	movtne	r0, #37121	; 0x9101
    1c30:	00001301 	andeq	r1, r0, r1, lsl #6
    1c34:	49002108 	stmdbmi	r0, {r3, r8, sp}
    1c38:	000b2f13 	andeq	r2, fp, r3, lsl pc
    1c3c:	000d0900 	andeq	r0, sp, r0, lsl #18
    1c40:	0b3a0803 	bleq	e83c54 <LOADER_PHYS_START-0x3f17c3ac>
    1c44:	13490b3b 	movtne	r0, #39739	; 0x9b3b
    1c48:	00000a38 	andeq	r0, r0, r8, lsr sl
    1c4c:	0b000f0a 	bleq	587c <LOADER_PHYS_START-0x3fffa784>
    1c50:	0b00000b 	bleq	1c84 <LOADER_PHYS_START-0x3fffe37c>
    1c54:	0c3f002e 	ldceq	0, cr0, [pc], #-184	; 1ba4 <LOADER_PHYS_START-0x3fffe45c>
    1c58:	0b3a0e03 	bleq	e8546c <LOADER_PHYS_START-0x3f17ab94>
    1c5c:	0c27053b 	cfstr32eq	mvfx0, [r7], #-236	; 0xffffff14
    1c60:	0b201349 	bleq	80698c <LOADER_PHYS_START-0x3f7f9674>
    1c64:	2e0c0000 	cdpcs	0, 0, cr0, cr12, cr0, {0}
    1c68:	030c3f01 	movweq	r3, #52993	; 0xcf01
    1c6c:	3b0b3a0e 	blcc	2d04ac <LOADER_PHYS_START-0x3fd2fb54>
    1c70:	490c270b 	stmdbmi	ip, {r0, r1, r3, r8, r9, sl, sp}
    1c74:	12011113 	andne	r1, r1, #-1073741820	; 0xc0000004
    1c78:	01064001 	tsteq	r6, r1
    1c7c:	0d000013 	stceq	0, cr0, [r0, #-76]	; 0xffffffb4
    1c80:	08030005 	stmdaeq	r3, {r0, r2}
    1c84:	0b3b0b3a 	bleq	ec4974 <LOADER_PHYS_START-0x3f13b68c>
    1c88:	06021349 	streq	r1, [r2], -r9, asr #6
    1c8c:	050e0000 	streq	r0, [lr, #-0]
    1c90:	3a080300 	bcc	202898 <LOADER_PHYS_START-0x3fdfd768>
    1c94:	490b3b0b 	stmdbmi	fp, {r0, r1, r3, r8, r9, fp, ip, sp}
    1c98:	000a0213 	andeq	r0, sl, r3, lsl r2
    1c9c:	00050f00 	andeq	r0, r5, r0, lsl #30
    1ca0:	0b3a0e03 	bleq	e854b4 <LOADER_PHYS_START-0x3f17ab4c>
    1ca4:	13490b3b 	movtne	r0, #39739	; 0x9b3b
    1ca8:	00000a02 	andeq	r0, r0, r2, lsl #20
    1cac:	03000510 	movweq	r0, #1296	; 0x510
    1cb0:	3b0b3a0e 	blcc	2d04f0 <LOADER_PHYS_START-0x3fd2fb10>
    1cb4:	0213490b 	andseq	r4, r3, #180224	; 0x2c000
    1cb8:	11000006 	tstne	r0, r6
    1cbc:	0e030034 	mcreq	0, 0, r0, cr3, cr4, {1}
    1cc0:	0b3b0b3a 	bleq	ec49b0 <LOADER_PHYS_START-0x3f13b650>
    1cc4:	06021349 	streq	r1, [r2], -r9, asr #6
    1cc8:	0f120000 	svceq	0x00120000
    1ccc:	490b0b00 	stmdbmi	fp, {r8, r9, fp}
    1cd0:	13000013 	movwne	r0, #19
    1cd4:	0e030034 	mcreq	0, 0, r0, cr3, cr4, {1}
    1cd8:	0b3b0b3a 	bleq	ec49c8 <LOADER_PHYS_START-0x3f13b638>
    1cdc:	0a021349 	beq	86a08 <LOADER_PHYS_START-0x3ff795f8>
    1ce0:	34140000 	ldrcc	r0, [r4], #-0
    1ce4:	3a080300 	bcc	2028ec <LOADER_PHYS_START-0x3fdfd714>
    1ce8:	490b3b0b 	stmdbmi	fp, {r0, r1, r3, r8, r9, fp, ip, sp}
    1cec:	00060213 	andeq	r0, r6, r3, lsl r2
    1cf0:	012e1500 	teqeq	lr, r0, lsl #10
    1cf4:	0e030c3f 	mcreq	12, 0, r0, cr3, cr15, {1}
    1cf8:	0b3b0b3a 	bleq	ec49e8 <LOADER_PHYS_START-0x3f13b618>
    1cfc:	01110c27 	tsteq	r1, r7, lsr #24
    1d00:	06400112 			; <UNDEFINED> instruction: 0x06400112
    1d04:	00001301 	andeq	r1, r0, r1, lsl #6
    1d08:	3f012e16 	svccc	0x00012e16
    1d0c:	3a0e030c 	bcc	382944 <LOADER_PHYS_START-0x3fc7d6bc>
    1d10:	270b3b0b 	strcs	r3, [fp, -fp, lsl #22]
    1d14:	1201110c 	andne	r1, r1, #3
    1d18:	010a4001 	tsteq	sl, r1
    1d1c:	17000013 	smladne	r0, r3, r0, r0
    1d20:	08030034 	stmdaeq	r3, {r2, r4, r5}
    1d24:	0b3b0b3a 	bleq	ec4a14 <LOADER_PHYS_START-0x3f13b5ec>
    1d28:	0b1c1349 	bleq	706a54 <LOADER_PHYS_START-0x3f8f95ac>
    1d2c:	0b180000 	bleq	601d34 <LOADER_PHYS_START-0x3f9fe2cc>
    1d30:	12011101 	andne	r1, r1, #1073741824	; 0x40000000
    1d34:	19000001 	stmdbne	r0, {r0}
    1d38:	08030034 	stmdaeq	r3, {r2, r4, r5}
    1d3c:	0b3b0b3a 	bleq	ec4a2c <LOADER_PHYS_START-0x3f13b5d4>
    1d40:	0a021349 	beq	86a6c <LOADER_PHYS_START-0x3ff79594>
    1d44:	341a0000 	ldrcc	r0, [sl], #-0
    1d48:	3a0e0300 	bcc	382950 <LOADER_PHYS_START-0x3fc7d6b0>
    1d4c:	490b3b0b 	stmdbmi	fp, {r0, r1, r3, r8, r9, fp, ip, sp}
    1d50:	1b000013 	blne	1da4 <LOADER_PHYS_START-0x3fffe25c>
    1d54:	0111010b 	tsteq	r1, fp, lsl #2
    1d58:	13010112 	movwne	r0, #4370	; 0x1112
    1d5c:	0b1c0000 	bleq	701d64 <LOADER_PHYS_START-0x3f8fe29c>
    1d60:	01065501 	tsteq	r6, r1, lsl #10
    1d64:	1d000013 	stcne	0, cr0, [r0, #-76]	; 0xffffffb4
    1d68:	0e030034 	mcreq	0, 0, r0, cr3, cr4, {1}
    1d6c:	053b0b3a 	ldreq	r0, [fp, #-2874]!	; 0xb3a
    1d70:	06021349 	streq	r1, [r2], -r9, asr #6
    1d74:	341e0000 	ldrcc	r0, [lr], #-0
    1d78:	3a080300 	bcc	202980 <LOADER_PHYS_START-0x3fdfd680>
    1d7c:	49053b0b 	stmdbmi	r5, {r0, r1, r3, r8, r9, fp, ip, sp}
    1d80:	00060213 	andeq	r0, r6, r3, lsl r2
    1d84:	010b1f00 	tsteq	fp, r0, lsl #30
    1d88:	00000655 	andeq	r0, r0, r5, asr r6
    1d8c:	03003420 	movweq	r3, #1056	; 0x420
    1d90:	3b0b3a08 	blcc	2d05b8 <LOADER_PHYS_START-0x3fd2fa48>
    1d94:	0013490b 	andseq	r4, r3, fp, lsl #18
    1d98:	00352100 	eorseq	r2, r5, r0, lsl #2
    1d9c:	00001349 	andeq	r1, r0, r9, asr #6
    1da0:	3f012e22 	svccc	0x00012e22
    1da4:	3a0e030c 	bcc	3829dc <LOADER_PHYS_START-0x3fc7d624>
    1da8:	27053b0b 	strcs	r3, [r5, -fp, lsl #22]
    1dac:	1201110c 	andne	r1, r1, #3
    1db0:	01064001 	tsteq	r6, r1
    1db4:	23000013 	movwcs	r0, #19
    1db8:	0e030005 	cdpeq	0, 0, cr0, cr3, cr5, {0}
    1dbc:	053b0b3a 	ldreq	r0, [fp, #-2874]!	; 0xb3a
    1dc0:	06021349 	streq	r1, [r2], -r9, asr #6
    1dc4:	05240000 	streq	r0, [r4, #-0]!
    1dc8:	3a080300 	bcc	2029d0 <LOADER_PHYS_START-0x3fdfd630>
    1dcc:	49053b0b 	stmdbmi	r5, {r0, r1, r3, r8, r9, fp, ip, sp}
    1dd0:	00060213 	andeq	r0, r6, r3, lsl r2
    1dd4:	002e2500 	eoreq	r2, lr, r0, lsl #10
    1dd8:	0e030c3f 	mcreq	12, 0, r0, cr3, cr15, {1}
    1ddc:	053b0b3a 	ldreq	r0, [fp, #-2874]!	; 0xb3a
    1de0:	01110c27 	tsteq	r1, r7, lsr #24
    1de4:	06400112 			; <UNDEFINED> instruction: 0x06400112
    1de8:	2e260000 	cdpcs	0, 2, cr0, cr6, cr0, {0}
    1dec:	11133100 	tstne	r3, r0, lsl #2
    1df0:	40011201 	andmi	r1, r1, r1, lsl #4
    1df4:	2700000a 	strcs	r0, [r0, -sl]
    1df8:	0c3f012e 	ldfeqs	f0, [pc], #-184	; 1d48 <LOADER_PHYS_START-0x3fffe2b8>
    1dfc:	0b3a0e03 	bleq	e85610 <LOADER_PHYS_START-0x3f17a9f0>
    1e00:	0c27053b 	cfstr32eq	mvfx0, [r7], #-236	; 0xffffff14
    1e04:	01120111 	tsteq	r2, r1, lsl r1
    1e08:	13010a40 	movwne	r0, #6720	; 0x1a40
    1e0c:	05280000 	streq	r0, [r8, #-0]!
    1e10:	3a0e0300 	bcc	382a18 <LOADER_PHYS_START-0x3fc7d5e8>
    1e14:	49053b0b 	stmdbmi	r5, {r0, r1, r3, r8, r9, fp, ip, sp}
    1e18:	000a0213 	andeq	r0, sl, r3, lsl r2
    1e1c:	00342900 	eorseq	r2, r4, r0, lsl #18
    1e20:	0b3a0e03 	bleq	e85634 <LOADER_PHYS_START-0x3f17a9cc>
    1e24:	1349053b 	movtne	r0, #38203	; 0x953b
    1e28:	00000a02 	andeq	r0, r0, r2, lsl #20
    1e2c:	0300342a 	movweq	r3, #1066	; 0x42a
    1e30:	3b0b3a0e 	blcc	2d0670 <LOADER_PHYS_START-0x3fd2f990>
    1e34:	3f13490b 	svccc	0x0013490b
    1e38:	000c3c0c 	andeq	r3, ip, ip, lsl #24
    1e3c:	00212b00 	eoreq	r2, r1, r0, lsl #22
    1e40:	052f1349 	streq	r1, [pc, #-841]!	; 1aff <LOADER_PHYS_START-0x3fffe501>
    1e44:	342c0000 	strtcc	r0, [ip], #-0
    1e48:	3a0e0300 	bcc	382a50 <LOADER_PHYS_START-0x3fc7d5b0>
    1e4c:	490b3b0b 	stmdbmi	fp, {r0, r1, r3, r8, r9, fp, ip, sp}
    1e50:	020c3f13 	andeq	r3, ip, #76	; 0x4c
    1e54:	0000000a 	andeq	r0, r0, sl

Disassembly of section .debug_aranges:

00000000 <.debug_aranges>:
   0:	0000001c 	andeq	r0, r0, ip, lsl r0
   4:	00000002 	andeq	r0, r0, r2
   8:	00040000 	andeq	r0, r4, r0
   c:	00000000 	andeq	r0, r0, r0
  10:	40000000 	andmi	r0, r0, r0
  14:	000000c0 	andeq	r0, r0, r0, asr #1
	...
  20:	00000024 	andeq	r0, r0, r4, lsr #32
  24:	00820002 	addeq	r0, r2, r2
  28:	00040000 	andeq	r0, r4, r0
  2c:	00000000 	andeq	r0, r0, r0
  30:	400000c0 	andmi	r0, r0, r0, asr #1
  34:	00000010 	andeq	r0, r0, r0, lsl r0
  38:	40002fa0 	andmi	r2, r0, r0, lsr #31
  3c:	0000006c 	andeq	r0, r0, ip, rrx
	...
  48:	0000001c 	andeq	r0, r0, ip, lsl r0
  4c:	01a00002 	moveq	r0, r2
  50:	00040000 	andeq	r0, r4, r0
  54:	00000000 	andeq	r0, r0, r0
  58:	400000d0 	ldrdmi	r0, [r0], -r0	; <UNPREDICTABLE>
  5c:	00000140 	andeq	r0, r0, r0, asr #2
	...
  68:	0000001c 	andeq	r0, r0, ip, lsl r0
  6c:	06af0002 	strteq	r0, [pc], r2
  70:	00040000 	andeq	r0, r4, r0
  74:	00000000 	andeq	r0, r0, r0
  78:	40000210 	andmi	r0, r0, r0, lsl r2
  7c:	0000019c 	muleq	r0, ip, r1
	...
  88:	0000001c 	andeq	r0, r0, ip, lsl r0
  8c:	08a00002 	stmiaeq	r0!, {r1}
  90:	00040000 	andeq	r0, r4, r0
  94:	00000000 	andeq	r0, r0, r0
  98:	400003ac 	andmi	r0, r0, ip, lsr #7
  9c:	000000b8 	strheq	r0, [r0], -r8
	...
  a8:	0000001c 	andeq	r0, r0, ip, lsl r0
  ac:	09900002 	ldmibeq	r0, {r1}
  b0:	00040000 	andeq	r0, r4, r0
  b4:	00000000 	andeq	r0, r0, r0
  b8:	40000464 	andmi	r0, r0, r4, ror #8
  bc:	000002c0 	andeq	r0, r0, r0, asr #5
	...
  c8:	0000001c 	andeq	r0, r0, ip, lsl r0
  cc:	143e0002 	ldrtne	r0, [lr], #-2
  d0:	00040000 	andeq	r0, r4, r0
  d4:	00000000 	andeq	r0, r0, r0
  d8:	40000724 	andmi	r0, r0, r4, lsr #14
  dc:	00000050 	andeq	r0, r0, r0, asr r0
	...
  e8:	0000001c 	andeq	r0, r0, ip, lsl r0
  ec:	14ff0002 	ldrbtne	r0, [pc], #2	; f4 <LOADER_PHYS_START-0x3fffff0c>
  f0:	00040000 	andeq	r0, r4, r0
  f4:	00000000 	andeq	r0, r0, r0
  f8:	40000774 	andmi	r0, r0, r4, ror r7
  fc:	000004ec 	andeq	r0, r0, ip, ror #9
	...
 108:	0000001c 	andeq	r0, r0, ip, lsl r0
 10c:	1e450002 	cdpne	0, 4, cr0, cr5, cr2, {0}
 110:	00040000 	andeq	r0, r4, r0
 114:	00000000 	andeq	r0, r0, r0
 118:	40000c60 	andmi	r0, r0, r0, ror #24
 11c:	00000218 	andeq	r0, r0, r8, lsl r2
	...
 128:	0000001c 	andeq	r0, r0, ip, lsl r0
 12c:	20ea0002 	rsccs	r0, sl, r2
 130:	00040000 	andeq	r0, r4, r0
 134:	00000000 	andeq	r0, r0, r0
 138:	40000e78 	andmi	r0, r0, r8, ror lr
 13c:	00000558 	andeq	r0, r0, r8, asr r5
	...
 148:	0000001c 	andeq	r0, r0, ip, lsl r0
 14c:	26ea0002 	strbtcs	r0, [sl], r2
 150:	00040000 	andeq	r0, r4, r0
 154:	00000000 	andeq	r0, r0, r0
 158:	400013d0 	ldrdmi	r1, [r0], -r0
 15c:	00000014 	andeq	r0, r0, r4, lsl r0
	...
 168:	0000001c 	andeq	r0, r0, ip, lsl r0
 16c:	27ed0002 	strbcs	r0, [sp, r2]!
 170:	00040000 	andeq	r0, r4, r0
 174:	00000000 	andeq	r0, r0, r0
 178:	400013e4 	andmi	r1, r0, r4, ror #7
 17c:	00000414 	andeq	r0, r0, r4, lsl r4
	...
 188:	0000001c 	andeq	r0, r0, ip, lsl r0
 18c:	2c420002 	mcrrcs	0, 0, r0, r2, cr2
 190:	00040000 	andeq	r0, r4, r0
 194:	00000000 	andeq	r0, r0, r0
 198:	400017f8 	strdmi	r1, [r0], -r8
 19c:	00000014 	andeq	r0, r0, r4, lsl r0
	...
 1a8:	0000001c 	andeq	r0, r0, ip, lsl r0
 1ac:	2cd90002 	ldclcs	0, cr0, [r9], {2}
 1b0:	00040000 	andeq	r0, r4, r0
 1b4:	00000000 	andeq	r0, r0, r0
 1b8:	4000180c 	andmi	r1, r0, ip, lsl #16
 1bc:	00000110 	andeq	r0, r0, r0, lsl r1
	...
 1c8:	0000001c 	andeq	r0, r0, ip, lsl r0
 1cc:	325d0002 	subscc	r0, sp, #2
 1d0:	00040000 	andeq	r0, r4, r0
 1d4:	00000000 	andeq	r0, r0, r0
 1d8:	4000191c 	andmi	r1, r0, ip, lsl r9
 1dc:	000000d8 	ldrdeq	r0, [r0], -r8
	...
 1e8:	0000001c 	andeq	r0, r0, ip, lsl r0
 1ec:	34520002 	ldrbcc	r0, [r2], #-2
 1f0:	00040000 	andeq	r0, r4, r0
 1f4:	00000000 	andeq	r0, r0, r0
 1f8:	400019f4 	strdmi	r1, [r0], -r4
 1fc:	000000cc 	andeq	r0, r0, ip, asr #1
	...
 208:	0000001c 	andeq	r0, r0, ip, lsl r0
 20c:	36190002 	ldrcc	r0, [r9], -r2
 210:	00040000 	andeq	r0, r4, r0
 214:	00000000 	andeq	r0, r0, r0
 218:	40001ac0 	andmi	r1, r0, r0, asr #21
 21c:	00000450 	andeq	r0, r0, r0, asr r4
	...
 228:	0000001c 	andeq	r0, r0, ip, lsl r0
 22c:	3dc00002 	stclcc	0, cr0, [r0, #8]
 230:	00040000 	andeq	r0, r4, r0
 234:	00000000 	andeq	r0, r0, r0
 238:	40001f10 	andmi	r1, r0, r0, lsl pc
 23c:	000008b4 			; <UNDEFINED> instruction: 0x000008b4
	...
 248:	0000001c 	andeq	r0, r0, ip, lsl r0
 24c:	479e0002 	ldrmi	r0, [lr, r2]
 250:	00040000 	andeq	r0, r4, r0
 254:	00000000 	andeq	r0, r0, r0
 258:	400027c4 	andmi	r2, r0, r4, asr #15
 25c:	000007dc 	ldrdeq	r0, [r0], -ip
	...

Disassembly of section .debug_loc:

00000000 <.debug_loc>:
       0:	40002fa0 	andmi	r2, r0, r0, lsr #31
       4:	40002fa8 	andmi	r2, r0, r8, lsr #31
       8:	007d0002 	rsbseq	r0, sp, r2
       c:	40002fa8 	andmi	r2, r0, r8, lsr #31
      10:	40002fac 	andmi	r2, r0, ip, lsr #31
      14:	047d0002 	ldrbteq	r0, [sp], #-2
      18:	40002fac 	andmi	r2, r0, ip, lsr #31
      1c:	4000300c 	andmi	r3, r0, ip
      20:	887d0003 	ldmdahi	sp!, {r0, r1}^
      24:	00000002 	andeq	r0, r0, r2
      28:	00000000 	andeq	r0, r0, r0
      2c:	002fa000 	eoreq	sl, pc, r0
      30:	002fb040 	eoreq	fp, pc, r0, asr #32
      34:	50000140 	andpl	r0, r0, r0, asr #2
      38:	40002ff8 	strdmi	r2, [r0], -r8
      3c:	40002ffb 	strdmi	r2, [r0], -fp
      40:	00500001 	subseq	r0, r0, r1
      44:	00000000 	andeq	r0, r0, r0
      48:	20000000 	andcs	r0, r0, r0
      4c:	4c000000 	stcmi	0, cr0, [r0], {-0}
      50:	01000000 	mrseq	r0, (UNDEF: 0)
      54:	00505000 	subseq	r5, r0, r0
      58:	006c0000 	rsbeq	r0, ip, r0
      5c:	00010000 	andeq	r0, r1, r0
      60:	00000050 	andeq	r0, r0, r0, asr r0
      64:	00000000 	andeq	r0, r0, r0
      68:	00007c00 	andeq	r7, r0, r0, lsl #24
      6c:	00008000 	andeq	r8, r0, r0
      70:	50000100 	andpl	r0, r0, r0, lsl #2
	...
      7c:	00000094 	muleq	r0, r4, r0
      80:	000000a0 	andeq	r0, r0, r0, lsr #1
      84:	9f300002 	svcls	0x00300002
	...
      90:	00000094 	muleq	r0, r4, r0
      94:	000000a0 	andeq	r0, r0, r0, lsr #1
      98:	f4030005 	vst4.8	{d0-d3}, [r3], r5
      9c:	00400039 	subeq	r0, r0, r9, lsr r0
      a0:	00000000 	andeq	r0, r0, r0
      a4:	94000000 	strls	r0, [r0], #-0
      a8:	a0000000 	andge	r0, r0, r0
      ac:	02000000 	andeq	r0, r0, #0
      b0:	009f3f00 	addseq	r3, pc, r0, lsl #30
      b4:	00000000 	andeq	r0, r0, r0
      b8:	98000000 	stmdals	r0, {}	; <UNPREDICTABLE>
      bc:	a0000000 	andge	r0, r0, r0
      c0:	01000000 	mrseq	r0, (UNDEF: 0)
      c4:	00005200 	andeq	r5, r0, r0, lsl #4
      c8:	00000000 	andeq	r0, r0, r0
      cc:	00a40000 	adceq	r0, r4, r0
      d0:	00a80000 	adceq	r0, r8, r0
      d4:	00010000 	andeq	r0, r1, r0
      d8:	00000050 	andeq	r0, r0, r0, asr r0
      dc:	00000000 	andeq	r0, r0, r0
      e0:	0000cc00 	andeq	ip, r0, r0, lsl #24
      e4:	0000d800 	andeq	sp, r0, r0, lsl #16
      e8:	31000200 	mrscc	r0, R8_usr
      ec:	0000009f 	muleq	r0, pc, r0	; <UNPREDICTABLE>
      f0:	00000000 	andeq	r0, r0, r0
      f4:	0000cc00 	andeq	ip, r0, r0, lsl #24
      f8:	0000d800 	andeq	sp, r0, r0, lsl #16
      fc:	03000500 	movweq	r0, #1280	; 0x500
     100:	400039f0 	strdmi	r3, [r0], -r0
	...
     10c:	000000cc 	andeq	r0, r0, ip, asr #1
     110:	000000d8 	ldrdeq	r0, [r0], -r8
     114:	9f380002 	svcls	0x00380002
	...
     120:	000000d0 	ldrdeq	r0, [r0], -r0	; <UNPREDICTABLE>
     124:	000000d8 	ldrdeq	r0, [r0], -r8
     128:	00520001 	subseq	r0, r2, r1
     12c:	00000000 	andeq	r0, r0, r0
     130:	cc000000 	stcgt	0, cr0, [r0], {-0}
     134:	d0000000 	andle	r0, r0, r0
     138:	01000000 	mrseq	r0, (UNDEF: 0)
     13c:	00dc5200 	sbcseq	r5, ip, r0, lsl #4
     140:	00f00000 	rscseq	r0, r0, r0
     144:	00010000 	andeq	r0, r1, r0
     148:	00000052 	andeq	r0, r0, r2, asr r0
	...
     154:	00000800 	andeq	r0, r0, r0, lsl #16
     158:	7d000200 	sfmvc	f0, 4, [r0, #-0]
     15c:	00000800 	andeq	r0, r0, r0, lsl #16
     160:	00002800 	andeq	r2, r0, r0, lsl #16
     164:	7d000200 	sfmvc	f0, 4, [r0, #-0]
     168:	00000008 	andeq	r0, r0, r8
	...
     174:	00001000 	andeq	r1, r0, r0
     178:	50000100 	andpl	r0, r0, r0, lsl #2
     17c:	0000001c 	andeq	r0, r0, ip, lsl r0
     180:	00000020 	andeq	r0, r0, r0, lsr #32
     184:	00500001 	subseq	r0, r0, r1
     188:	00000000 	andeq	r0, r0, r0
     18c:	28000000 	stmdacs	r0, {}	; <UNPREDICTABLE>
     190:	2c000000 	stccs	0, cr0, [r0], {-0}
     194:	02000000 	andeq	r0, r0, #0
     198:	2c007d00 	stccs	13, cr7, [r0], {-0}
     19c:	3c000000 	stccc	0, cr0, [r0], {-0}
     1a0:	02000000 	andeq	r0, r0, #0
     1a4:	00087d00 	andeq	r7, r8, r0, lsl #26
     1a8:	00000000 	andeq	r0, r0, r0
     1ac:	3c000000 	stccc	0, cr0, [r0], {-0}
     1b0:	40000000 	andmi	r0, r0, r0
     1b4:	02000000 	andeq	r0, r0, #0
     1b8:	40007d00 	andmi	r7, r0, r0, lsl #26
     1bc:	98000000 	stmdals	r0, {}	; <UNPREDICTABLE>
     1c0:	02000000 	andeq	r0, r0, #0
     1c4:	00107d00 	andseq	r7, r0, r0, lsl #26
     1c8:	00000000 	andeq	r0, r0, r0
     1cc:	3c000000 	stccc	0, cr0, [r0], {-0}
     1d0:	58000000 	stmdapl	r0, {}	; <UNPREDICTABLE>
     1d4:	01000000 	mrseq	r0, (UNDEF: 0)
     1d8:	00005000 	andeq	r5, r0, r0
     1dc:	00000000 	andeq	r0, r0, r0
     1e0:	003c0000 	eorseq	r0, ip, r0
     1e4:	00580000 	subseq	r0, r8, r0
     1e8:	00020000 	andeq	r0, r2, r0
     1ec:	00589f30 	subseq	r9, r8, r0, lsr pc
     1f0:	006c0000 	rsbeq	r0, ip, r0
     1f4:	00010000 	andeq	r0, r1, r0
     1f8:	00007c55 	andeq	r7, r0, r5, asr ip
     1fc:	00008400 	andeq	r8, r0, r0, lsl #8
     200:	55000100 	strpl	r0, [r0, #-256]	; 0x100
     204:	00000084 	andeq	r0, r0, r4, lsl #1
     208:	00000094 	muleq	r0, r4, r0
     20c:	9f300002 	svcls	0x00300002
     210:	00000094 	muleq	r0, r4, r0
     214:	00000098 	muleq	r0, r8, r0
     218:	00550001 	subseq	r0, r5, r1
     21c:	00000000 	andeq	r0, r0, r0
     220:	98000000 	stmdals	r0, {}	; <UNPREDICTABLE>
     224:	9c000000 	stcls	0, cr0, [r0], {-0}
     228:	02000000 	andeq	r0, r0, #0
     22c:	9c007d00 	stcls	13, cr7, [r0], {-0}
     230:	d8000000 	stmdale	r0, {}	; <UNPREDICTABLE>
     234:	02000000 	andeq	r0, r0, #0
     238:	00107d00 	andseq	r7, r0, r0, lsl #26
     23c:	00000000 	andeq	r0, r0, r0
     240:	98000000 	stmdals	r0, {}	; <UNPREDICTABLE>
     244:	a4000000 	strge	r0, [r0], #-0
     248:	01000000 	mrseq	r0, (UNDEF: 0)
     24c:	00a45000 	adceq	r5, r4, r0
     250:	00d80000 	sbcseq	r0, r8, r0
     254:	00010000 	andeq	r0, r1, r0
     258:	00000055 	andeq	r0, r0, r5, asr r0
     25c:	00000000 	andeq	r0, r0, r0
     260:	0000b800 	andeq	fp, r0, r0, lsl #16
     264:	0000c400 	andeq	ip, r0, r0, lsl #8
     268:	53000100 	movwpl	r0, #256	; 0x100
     26c:	000000c4 	andeq	r0, r0, r4, asr #1
     270:	000000c7 	andeq	r0, r0, r7, asr #1
     274:	00500001 	subseq	r0, r0, r1
     278:	00000000 	andeq	r0, r0, r0
     27c:	d8000000 	stmdale	r0, {}	; <UNPREDICTABLE>
     280:	dc000000 	stcle	0, cr0, [r0], {-0}
     284:	02000000 	andeq	r0, r0, #0
     288:	dc007d00 	stcle	13, cr7, [r0], {-0}
     28c:	f4000000 	vst4.8	{d0-d3}, [r0], r0
     290:	02000000 	andeq	r0, r0, #0
     294:	00087d00 	andeq	r7, r8, r0, lsl #26
     298:	00000000 	andeq	r0, r0, r0
     29c:	d8000000 	stmdale	r0, {}	; <UNPREDICTABLE>
     2a0:	e4000000 	str	r0, [r0], #-0
     2a4:	06000000 	streq	r0, [r0], -r0
     2a8:	04935000 	ldreq	r5, [r3], #0
     2ac:	00049351 	andeq	r9, r4, r1, asr r3
     2b0:	00000000 	andeq	r0, r0, r0
     2b4:	f4000000 	vst4.8	{d0-d3}, [r0], r0
     2b8:	f8000000 			; <UNDEFINED> instruction: 0xf8000000
     2bc:	02000000 	andeq	r0, r0, #0
     2c0:	f8007d00 			; <UNDEFINED> instruction: 0xf8007d00
     2c4:	24000000 	strcs	r0, [r0], #-0
     2c8:	02000001 	andeq	r0, r0, #1
     2cc:	00087d00 	andeq	r7, r8, r0, lsl #26
     2d0:	00000000 	andeq	r0, r0, r0
     2d4:	24000000 	strcs	r0, [r0], #-0
     2d8:	28000001 	stmdacs	r0, {r0}
     2dc:	02000001 	andeq	r0, r0, #1
     2e0:	28007d00 	stmdacs	r0, {r8, sl, fp, ip, sp, lr}
     2e4:	8c000001 	stchi	0, cr0, [r0], {1}
     2e8:	02000001 	andeq	r0, r0, #1
     2ec:	00107d00 	andseq	r7, r0, r0, lsl #26
     2f0:	00000000 	andeq	r0, r0, r0
     2f4:	24000000 	strcs	r0, [r0], #-0
     2f8:	33000001 	movwcc	r0, #1
     2fc:	01000001 	tsteq	r0, r1
     300:	00005000 	andeq	r5, r0, r0
     304:	00000000 	andeq	r0, r0, r0
     308:	01240000 	teqeq	r4, r0
     30c:	01330000 	teqeq	r3, r0
     310:	00010000 	andeq	r0, r1, r0
     314:	00013351 	andeq	r3, r1, r1, asr r3
     318:	00014800 	andeq	r4, r1, r0, lsl #16
     31c:	56000100 	strpl	r0, [r0], -r0, lsl #2
     320:	00000148 	andeq	r0, r0, r8, asr #2
     324:	0000014c 	andeq	r0, r0, ip, asr #2
     328:	01760003 	cmneq	r6, r3
     32c:	00014c9f 	muleq	r1, pc, ip	; <UNPREDICTABLE>
     330:	00016400 	andeq	r6, r1, r0, lsl #8
     334:	56000100 	strpl	r0, [r0], -r0, lsl #2
     338:	00000164 	andeq	r0, r0, r4, ror #2
     33c:	0000016c 	andeq	r0, r0, ip, ror #2
     340:	01760003 	cmneq	r6, r3
     344:	0001749f 	muleq	r1, pc, r4	; <UNPREDICTABLE>
     348:	00018000 	andeq	r8, r1, r0
     34c:	56000100 	strpl	r0, [r0], -r0, lsl #2
	...
     358:	0000012c 	andeq	r0, r0, ip, lsr #2
     35c:	00000133 	andeq	r0, r0, r3, lsr r1
     360:	33500001 	cmpcc	r0, #1
     364:	6c000001 	stcvs	0, cr0, [r0], {1}
     368:	01000001 	tsteq	r0, r1
     36c:	016c5400 	cmneq	ip, r0, lsl #8
     370:	01700000 	cmneq	r0, r0
     374:	00010000 	andeq	r0, r1, r0
     378:	00017055 	andeq	r7, r1, r5, asr r0
     37c:	00017c00 	andeq	r7, r1, r0, lsl #24
     380:	54000100 	strpl	r0, [r0], #-256	; 0x100
     384:	0000017c 	andeq	r0, r0, ip, ror r1
     388:	00000180 	andeq	r0, r0, r0, lsl #3
     38c:	80550001 	subshi	r0, r5, r1
     390:	8c000001 	stchi	0, cr0, [r0], {1}
     394:	01000001 	tsteq	r0, r1
     398:	00005400 	andeq	r5, r0, r0, lsl #8
     39c:	00000000 	andeq	r0, r0, r0
     3a0:	01340000 	teqeq	r4, r0
     3a4:	01700000 	cmneq	r0, r0
     3a8:	00010000 	andeq	r0, r1, r0
     3ac:	00017450 	andeq	r7, r1, r0, asr r4
     3b0:	00018000 	andeq	r8, r1, r0
     3b4:	50000100 	andpl	r0, r0, r0, lsl #2
	...
     3c0:	0000018c 	andeq	r0, r0, ip, lsl #3
     3c4:	00000190 	muleq	r0, r0, r1
     3c8:	007d0002 	rsbseq	r0, sp, r2
     3cc:	00000190 	muleq	r0, r0, r1
     3d0:	0000019c 	muleq	r0, ip, r1
     3d4:	087d0002 	ldmdaeq	sp!, {r1}^
	...
     3e4:	00000004 	andeq	r0, r0, r4
     3e8:	007d0002 	rsbseq	r0, sp, r2
     3ec:	00000004 	andeq	r0, r0, r4
     3f0:	00000088 	andeq	r0, r0, r8, lsl #1
     3f4:	107d0002 	rsbsne	r0, sp, r2
	...
     404:	00000030 	andeq	r0, r0, r0, lsr r0
     408:	50500001 	subspl	r0, r0, r1
     40c:	54000000 	strpl	r0, [r0], #-0
     410:	01000000 	mrseq	r0, (UNDEF: 0)
     414:	00005000 	andeq	r5, r0, r0
	...
     420:	00180000 	andseq	r0, r8, r0
     424:	00010000 	andeq	r0, r1, r0
     428:	00000051 	andeq	r0, r0, r1, asr r0
	...
     434:	00001800 	andeq	r1, r0, r0, lsl #16
     438:	52000100 	andpl	r0, r0, #0
	...
     444:	00000098 	muleq	r0, r8, r0
     448:	000000a0 	andeq	r0, r0, r0, lsr #1
     44c:	007d0002 	rsbseq	r0, sp, r2
     450:	000000a0 	andeq	r0, r0, r0, lsr #1
     454:	000000b8 	strheq	r0, [r0], -r8
     458:	087d0002 	ldmdaeq	sp!, {r1}^
	...
     468:	00000008 	andeq	r0, r0, r8
     46c:	00510001 	subseq	r0, r1, r1
     470:	00000000 	andeq	r0, r0, r0
     474:	04000000 	streq	r0, [r0], #-0
     478:	14000000 	strne	r0, [r0], #-0
     47c:	01000000 	mrseq	r0, (UNDEF: 0)
     480:	00145300 	andseq	r5, r4, r0, lsl #6
     484:	001c0000 	andseq	r0, ip, r0
     488:	00010000 	andeq	r0, r1, r0
     48c:	00000051 	andeq	r0, r0, r1, asr r0
     490:	00000000 	andeq	r0, r0, r0
     494:	00000400 	andeq	r0, r0, r0, lsl #8
     498:	00001000 	andeq	r1, r0, r0
     49c:	53000100 	movwpl	r0, #256	; 0x100
	...
     4a8:	0000001c 	andeq	r0, r0, ip, lsl r0
     4ac:	00000020 	andeq	r0, r0, r0, lsr #32
     4b0:	007d0002 	rsbseq	r0, sp, r2
     4b4:	00000020 	andeq	r0, r0, r0, lsr #32
     4b8:	0000005c 	andeq	r0, r0, ip, asr r0
     4bc:	047d0002 	ldrbteq	r0, [sp], #-2
	...
     4c8:	0000001c 	andeq	r0, r0, ip, lsl r0
     4cc:	00000038 	andeq	r0, r0, r8, lsr r0
     4d0:	00510001 	subseq	r0, r1, r1
     4d4:	00000000 	andeq	r0, r0, r0
     4d8:	1c000000 	stcne	0, cr0, [r0], {-0}
     4dc:	30000000 	andcc	r0, r0, r0
     4e0:	01000000 	mrseq	r0, (UNDEF: 0)
     4e4:	00005200 	andeq	r5, r0, r0, lsl #4
     4e8:	00000000 	andeq	r0, r0, r0
     4ec:	00280000 	eoreq	r0, r8, r0
     4f0:	00400000 	subeq	r0, r0, r0
     4f4:	00010000 	andeq	r0, r1, r0
     4f8:	00004054 	andeq	r4, r0, r4, asr r0
     4fc:	00004800 	andeq	r4, r0, r0, lsl #16
     500:	53000100 	movwpl	r0, #256	; 0x100
     504:	00000048 	andeq	r0, r0, r8, asr #32
     508:	0000005c 	andeq	r0, r0, ip, asr r0
     50c:	00700002 	rsbseq	r0, r0, r2
	...
     518:	00000028 	andeq	r0, r0, r8, lsr #32
     51c:	0000003c 	andeq	r0, r0, ip, lsr r0
     520:	00540001 	subseq	r0, r4, r1
     524:	00000000 	andeq	r0, r0, r0
     528:	40000000 	andmi	r0, r0, r0
     52c:	48000000 	stmdami	r0, {}	; <UNPREDICTABLE>
     530:	01000000 	mrseq	r0, (UNDEF: 0)
     534:	00485300 	subeq	r5, r8, r0, lsl #6
     538:	005c0000 	subseq	r0, ip, r0
     53c:	00020000 	andeq	r0, r2, r0
     540:	00000070 	andeq	r0, r0, r0, ror r0
     544:	00000000 	andeq	r0, r0, r0
     548:	00480000 	subeq	r0, r8, r0
     54c:	004c0000 	subeq	r0, ip, r0
     550:	00010000 	andeq	r0, r1, r0
     554:	00000053 	andeq	r0, r0, r3, asr r0
     558:	00000000 	andeq	r0, r0, r0
     55c:	00005c00 	andeq	r5, r0, r0, lsl #24
     560:	00006400 	andeq	r6, r0, r0, lsl #8
     564:	51000100 	mrspl	r0, (UNDEF: 16)
	...
     570:	00000060 	andeq	r0, r0, r0, rrx
     574:	0000006c 	andeq	r0, r0, ip, rrx
     578:	6c530001 	mrrcvs	0, 0, r0, r3, cr1
     57c:	74000000 	strvc	r0, [r0], #-0
     580:	01000000 	mrseq	r0, (UNDEF: 0)
     584:	00005100 	andeq	r5, r0, r0, lsl #2
     588:	00000000 	andeq	r0, r0, r0
     58c:	00740000 	rsbseq	r0, r4, r0
     590:	00840000 	addeq	r0, r4, r0
     594:	00010000 	andeq	r0, r1, r0
     598:	00000051 	andeq	r0, r0, r1, asr r0
     59c:	00000000 	andeq	r0, r0, r0
     5a0:	00007800 	andeq	r7, r0, r0, lsl #16
     5a4:	00008800 	andeq	r8, r0, r0, lsl #16
     5a8:	53000100 	movwpl	r0, #256	; 0x100
	...
     5b4:	00000094 	muleq	r0, r4, r0
     5b8:	000000a8 	andeq	r0, r0, r8, lsr #1
     5bc:	00500001 	subseq	r0, r0, r1
     5c0:	00000000 	andeq	r0, r0, r0
     5c4:	ac000000 	stcge	0, cr0, [r0], {-0}
     5c8:	b4000000 	strlt	r0, [r0], #-0
     5cc:	01000000 	mrseq	r0, (UNDEF: 0)
     5d0:	00005100 	andeq	r5, r0, r0, lsl #2
     5d4:	00000000 	andeq	r0, r0, r0
     5d8:	00b00000 	adcseq	r0, r0, r0
     5dc:	00c00000 	sbceq	r0, r0, r0
     5e0:	00010000 	andeq	r0, r1, r0
     5e4:	00000053 	andeq	r0, r0, r3, asr r0
     5e8:	00000000 	andeq	r0, r0, r0
     5ec:	0000cc00 	andeq	ip, r0, r0, lsl #24
     5f0:	0000d400 	andeq	sp, r0, r0, lsl #8
     5f4:	53000100 	movwpl	r0, #256	; 0x100
     5f8:	000000d8 	ldrdeq	r0, [r0], -r8
     5fc:	000000e0 	andeq	r0, r0, r0, ror #1
     600:	00530001 	subseq	r0, r3, r1
     604:	00000000 	andeq	r0, r0, r0
     608:	e0000000 	and	r0, r0, r0
     60c:	f0000000 			; <UNDEFINED> instruction: 0xf0000000
     610:	01000000 	mrseq	r0, (UNDEF: 0)
     614:	00005100 	andeq	r5, r0, r0, lsl #2
     618:	00000000 	andeq	r0, r0, r0
     61c:	00e00000 	rsceq	r0, r0, r0
     620:	00fc0000 	rscseq	r0, ip, r0
     624:	00010000 	andeq	r0, r1, r0
     628:	00000052 	andeq	r0, r0, r2, asr r0
     62c:	00000000 	andeq	r0, r0, r0
     630:	0000e800 	andeq	lr, r0, r0, lsl #16
     634:	0000f000 	andeq	pc, r0, r0
     638:	33000b00 	movwcc	r0, #2816	; 0xb00
     63c:	24310071 	ldrtcs	r0, [r1], #-113	; 0x71
     640:	00732024 	rsbseq	r2, r3, r4, lsr #32
     644:	00f09f1a 	rscseq	r9, r0, sl, lsl pc
     648:	00f80000 	rscseq	r0, r8, r0
     64c:	00090000 	andeq	r0, r9, r0
     650:	24007133 	strcs	r7, [r0], #-307	; 0x133
     654:	1a007320 	bne	1d2dc <LOADER_PHYS_START-0x3ffe2d24>
     658:	0000fc9f 	muleq	r0, pc, ip	; <UNPREDICTABLE>
     65c:	00010400 	andeq	r0, r1, r0, lsl #8
     660:	52000100 	andpl	r0, r0, #0
	...
     66c:	000000e8 	andeq	r0, r0, r8, ror #1
     670:	000000f8 	strdeq	r0, [r0], -r8
     674:	00530001 	subseq	r0, r3, r1
     678:	00000000 	andeq	r0, r0, r0
     67c:	04000000 	streq	r0, [r0], #-0
     680:	10000001 	andne	r0, r0, r1
     684:	01000001 	tsteq	r0, r1
     688:	00005100 	andeq	r5, r0, r0, lsl #2
     68c:	00000000 	andeq	r0, r0, r0
     690:	01040000 	mrseq	r0, (UNDEF: 4)
     694:	01180000 	tsteq	r8, r0
     698:	00010000 	andeq	r0, r1, r0
     69c:	00000052 	andeq	r0, r0, r2, asr r0
     6a0:	00000000 	andeq	r0, r0, r0
     6a4:	00012400 	andeq	r2, r1, r0, lsl #8
     6a8:	00012c00 	andeq	r2, r1, r0, lsl #24
     6ac:	51000100 	mrspl	r0, (UNDEF: 16)
	...
     6b8:	0000010c 	andeq	r0, r0, ip, lsl #2
     6bc:	00000120 	andeq	r0, r0, r0, lsr #2
     6c0:	00530001 	subseq	r0, r3, r1
     6c4:	00000000 	andeq	r0, r0, r0
     6c8:	2c000000 	stccs	0, cr0, [r0], {-0}
     6cc:	38000001 	stmdacc	r0, {r0}
     6d0:	01000001 	tsteq	r0, r1
     6d4:	01485000 	mrseq	r5, (UNDEF: 72)
     6d8:	014c0000 	mrseq	r0, (UNDEF: 76)
     6dc:	00010000 	andeq	r0, r1, r0
     6e0:	00014c50 	andeq	r4, r1, r0, asr ip
     6e4:	00015400 	andeq	r5, r1, r0, lsl #8
     6e8:	70000400 	andvc	r0, r0, r0, lsl #8
     6ec:	009f00c8 	addseq	r0, pc, r8, asr #1
     6f0:	00000000 	andeq	r0, r0, r0
     6f4:	34000000 	strcc	r0, [r0], #-0
     6f8:	38000001 	stmdacc	r0, {r0}
     6fc:	05000001 	streq	r0, [r0, #-1]
     700:	33007000 	movwcc	r7, #0
     704:	01389f25 	teqeq	r8, r5, lsr #30
     708:	01440000 	mrseq	r0, (UNDEF: 68)
     70c:	00010000 	andeq	r0, r1, r0
     710:	00014850 	andeq	r4, r1, r0, asr r8
     714:	00014c00 	andeq	r4, r1, r0, lsl #24
     718:	70000600 	andvc	r0, r0, r0, lsl #12
     71c:	25337fb8 	ldrcs	r7, [r3, #-4024]!	; 0xfb8
     720:	00014c9f 	muleq	r1, pc, ip	; <UNPREDICTABLE>
     724:	00015400 	andeq	r5, r1, r0, lsl #8
     728:	70000500 	andvc	r0, r0, r0, lsl #10
     72c:	9f253300 	svcls	0x00253300
     730:	00000154 	andeq	r0, r0, r4, asr r1
     734:	00000160 	andeq	r0, r0, r0, ror #2
     738:	00500001 	subseq	r0, r0, r1
     73c:	00000000 	andeq	r0, r0, r0
     740:	34000000 	strcc	r0, [r0], #-0
     744:	38000001 	stmdacc	r0, {r0}
     748:	01000001 	tsteq	r0, r1
     74c:	01485000 	mrseq	r5, (UNDEF: 72)
     750:	014c0000 	mrseq	r0, (UNDEF: 76)
     754:	00040000 	andeq	r0, r4, r0
     758:	9f7fb870 	svcls	0x007fb870
     75c:	0000014c 	andeq	r0, r0, ip, asr #2
     760:	00000154 	andeq	r0, r0, r4, asr r1
     764:	00500001 	subseq	r0, r0, r1
     768:	00000000 	andeq	r0, r0, r0
     76c:	64000000 	strvs	r0, [r0], #-0
     770:	68000001 	stmdavs	r0, {r0}
     774:	01000001 	tsteq	r0, r1
     778:	00005000 	andeq	r5, r0, r0
     77c:	00000000 	andeq	r0, r0, r0
     780:	016c0000 	cmneq	ip, r0
     784:	01700000 	cmneq	r0, r0
     788:	00010000 	andeq	r0, r1, r0
     78c:	00000050 	andeq	r0, r0, r0, asr r0
     790:	00000000 	andeq	r0, r0, r0
     794:	00017400 	andeq	r7, r1, r0, lsl #8
     798:	00017800 	andeq	r7, r1, r0, lsl #16
     79c:	50000100 	andpl	r0, r0, r0, lsl #2
	...
     7a8:	0000017c 	andeq	r0, r0, ip, ror r1
     7ac:	00000184 	andeq	r0, r0, r4, lsl #3
     7b0:	007d0002 	rsbseq	r0, sp, r2
     7b4:	00000184 	andeq	r0, r0, r4, lsl #3
     7b8:	000001d0 	ldrdeq	r0, [r0], -r0	; <UNPREDICTABLE>
     7bc:	047d0002 	ldrbteq	r0, [sp], #-2
	...
     7c8:	0000017c 	andeq	r0, r0, ip, ror r1
     7cc:	00000188 	andeq	r0, r0, r8, lsl #3
     7d0:	94500001 	ldrbls	r0, [r0], #-1
     7d4:	a8000001 	stmdage	r0, {r0}
     7d8:	01000001 	tsteq	r0, r1
     7dc:	01b85000 			; <UNDEFINED> instruction: 0x01b85000
     7e0:	01d00000 	bicseq	r0, r0, r0
     7e4:	00010000 	andeq	r0, r1, r0
     7e8:	00000050 	andeq	r0, r0, r0, asr r0
     7ec:	00000000 	andeq	r0, r0, r0
     7f0:	00018800 	andeq	r8, r1, r0, lsl #16
     7f4:	00019400 	andeq	r9, r1, r0, lsl #8
     7f8:	70000500 	andvc	r0, r0, r0, lsl #10
     7fc:	9f253300 	svcls	0x00253300
     800:	00000194 	muleq	r0, r4, r1
     804:	000001b8 			; <UNDEFINED> instruction: 0x000001b8
     808:	b8520001 	ldmdalt	r2, {r0}^
     80c:	cc000001 	stcgt	0, cr0, [r0], {1}
     810:	06000001 	streq	r0, [r0], -r1
     814:	7fb87000 	svcvc	0x00b87000
     818:	cc9f2533 	cfldr32gt	mvfx2, [pc], {51}	; 0x33
     81c:	d0000001 	andle	r0, r0, r1
     820:	01000001 	tsteq	r0, r1
     824:	00005200 	andeq	r5, r0, r0, lsl #4
     828:	00000000 	andeq	r0, r0, r0
     82c:	01880000 	orreq	r0, r8, r0
     830:	01940000 	orrseq	r0, r4, r0
     834:	00010000 	andeq	r0, r1, r0
     838:	0001b850 	andeq	fp, r1, r0, asr r8
     83c:	0001d000 	andeq	sp, r1, r0
     840:	70000400 	andvc	r0, r0, r0, lsl #8
     844:	009f7fb8 			; <UNDEFINED> instruction: 0x009f7fb8
     848:	00000000 	andeq	r0, r0, r0
     84c:	7c000000 	stcvc	0, cr0, [r0], {-0}
     850:	a8000001 	stmdage	r0, {r0}
     854:	01000001 	tsteq	r0, r1
     858:	01b85000 			; <UNDEFINED> instruction: 0x01b85000
     85c:	01d00000 	bicseq	r0, r0, r0
     860:	00010000 	andeq	r0, r1, r0
     864:	00000050 	andeq	r0, r0, r0, asr r0
     868:	00000000 	andeq	r0, r0, r0
     86c:	00019400 	andeq	r9, r1, r0, lsl #8
     870:	0001a800 	andeq	sl, r1, r0, lsl #16
     874:	70000500 	andvc	r0, r0, r0, lsl #10
     878:	9f1a3700 	svcls	0x001a3700
	...
     884:	00000194 	muleq	r0, r4, r1
     888:	000001b8 			; <UNDEFINED> instruction: 0x000001b8
     88c:	00730006 	rsbseq	r0, r3, r6
     890:	9f220072 	svcls	0x00220072
	...
     89c:	00000194 	muleq	r0, r4, r1
     8a0:	000001b8 			; <UNDEFINED> instruction: 0x000001b8
     8a4:	9f300002 	svcls	0x00300002
	...
     8b0:	00000198 	muleq	r0, r8, r1
     8b4:	000001ac 	andeq	r0, r0, ip, lsr #3
     8b8:	ac5c0001 	mrrcge	0, 0, r0, ip, cr1
     8bc:	b8000001 	stmdalt	r0, {r0}
     8c0:	01000001 	tsteq	r0, r1
     8c4:	00005100 	andeq	r5, r0, r0, lsl #2
     8c8:	00000000 	andeq	r0, r0, r0
     8cc:	01980000 	orrseq	r0, r8, r0
     8d0:	01b80000 			; <UNDEFINED> instruction: 0x01b80000
     8d4:	00010000 	andeq	r0, r1, r0
     8d8:	0000005c 	andeq	r0, r0, ip, asr r0
     8dc:	00000000 	andeq	r0, r0, r0
     8e0:	0001ac00 	andeq	sl, r1, r0, lsl #24
     8e4:	0001b800 	andeq	fp, r1, r0, lsl #16
     8e8:	51000100 	mrspl	r0, (UNDEF: 16)
	...
     8f4:	000001d0 	ldrdeq	r0, [r0], -r0	; <UNPREDICTABLE>
     8f8:	000001d8 	ldrdeq	r0, [r0], -r8
     8fc:	007d0002 	rsbseq	r0, sp, r2
     900:	000001d8 	ldrdeq	r0, [r0], -r8
     904:	0000021c 	andeq	r0, r0, ip, lsl r2
     908:	087d0002 	ldmdaeq	sp!, {r1}^
	...
     914:	000001d0 	ldrdeq	r0, [r0], -r0	; <UNPREDICTABLE>
     918:	000001e4 	andeq	r0, r0, r4, ror #3
     91c:	e8500001 	ldmda	r0, {r0}^
     920:	fb000001 	blx	92e <LOADER_PHYS_START-0x3ffff6d2>
     924:	01000001 	tsteq	r0, r1
     928:	02045300 	andeq	r5, r4, #0
     92c:	02080000 	andeq	r0, r8, #0
     930:	00010000 	andeq	r0, r1, r0
     934:	00020850 	andeq	r0, r2, r0, asr r8
     938:	00021c00 	andeq	r1, r2, r0, lsl #24
     93c:	53000100 	movwpl	r0, #256	; 0x100
	...
     948:	000001d0 	ldrdeq	r0, [r0], -r0	; <UNPREDICTABLE>
     94c:	000001ec 	andeq	r0, r0, ip, ror #3
     950:	ec510001 	mrrc	0, 0, r0, r1, cr1
     954:	fb000001 	blx	962 <LOADER_PHYS_START-0x3ffff69e>
     958:	01000001 	tsteq	r0, r1
     95c:	02045200 	andeq	r5, r4, #0
     960:	020c0000 	andeq	r0, ip, #0
     964:	00010000 	andeq	r0, r1, r0
     968:	00020c51 	andeq	r0, r2, r1, asr ip
     96c:	00021c00 	andeq	r1, r2, r0, lsl #24
     970:	52000100 	andpl	r0, r0, #0
	...
     97c:	000001e0 	andeq	r0, r0, r0, ror #3
     980:	000001e8 	andeq	r0, r0, r8, ror #3
     984:	e8500001 	ldmda	r0, {r0}^
     988:	fb000001 	blx	996 <LOADER_PHYS_START-0x3ffff66a>
     98c:	01000001 	tsteq	r0, r1
     990:	02045300 	andeq	r5, r4, #0
     994:	02080000 	andeq	r0, r8, #0
     998:	00010000 	andeq	r0, r1, r0
     99c:	00020850 	andeq	r0, r2, r0, asr r8
     9a0:	00021c00 	andeq	r1, r2, r0, lsl #24
     9a4:	53000100 	movwpl	r0, #256	; 0x100
	...
     9b0:	000001e4 	andeq	r0, r0, r4, ror #3
     9b4:	000001e8 	andeq	r0, r0, r8, ror #3
     9b8:	00700005 	rsbseq	r0, r0, r5
     9bc:	e89f2533 	ldm	pc, {r0, r1, r4, r5, r8, sl, sp}	; <UNPREDICTABLE>
     9c0:	f0000001 			; <UNDEFINED> instruction: 0xf0000001
     9c4:	05000001 	streq	r0, [r0, #-1]
     9c8:	33007300 	movwcc	r7, #768	; 0x300
     9cc:	01f09f25 	mvnseq	r9, r5, lsr #30
     9d0:	01f40000 	mvnseq	r0, r0
     9d4:	00010000 	andeq	r0, r1, r0
     9d8:	00020450 	andeq	r0, r2, r0, asr r4
     9dc:	00020800 	andeq	r0, r2, r0, lsl #16
     9e0:	70000600 	andvc	r0, r0, r0, lsl #12
     9e4:	25337fb8 	ldrcs	r7, [r3, #-4024]!	; 0xfb8
     9e8:	0002089f 	muleq	r2, pc, r8	; <UNPREDICTABLE>
     9ec:	00021800 	andeq	r1, r2, r0, lsl #16
     9f0:	73000600 	movwvc	r0, #1536	; 0x600
     9f4:	25337fb8 	ldrcs	r7, [r3, #-4024]!	; 0xfb8
     9f8:	0002189f 	muleq	r2, pc, r8	; <UNPREDICTABLE>
     9fc:	00021c00 	andeq	r1, r2, r0, lsl #24
     a00:	50000100 	andpl	r0, r0, r0, lsl #2
	...
     a0c:	000001e4 	andeq	r0, r0, r4, ror #3
     a10:	000001e8 	andeq	r0, r0, r8, ror #3
     a14:	e8500001 	ldmda	r0, {r0}^
     a18:	f0000001 			; <UNDEFINED> instruction: 0xf0000001
     a1c:	01000001 	tsteq	r0, r1
     a20:	02045300 	andeq	r5, r4, #0
     a24:	02080000 	andeq	r0, r8, #0
     a28:	00040000 	andeq	r0, r4, r0
     a2c:	9f7fb870 	svcls	0x007fb870
     a30:	00000208 	andeq	r0, r0, r8, lsl #4
     a34:	0000021c 	andeq	r0, r0, ip, lsl r2
     a38:	b8730004 	ldmdalt	r3!, {r2}^
     a3c:	00009f7f 	andeq	r9, r0, pc, ror pc
     a40:	00000000 	andeq	r0, r0, r0
     a44:	021c0000 	andseq	r0, ip, #0
     a48:	02240000 	eoreq	r0, r4, #0
     a4c:	00010000 	andeq	r0, r1, r0
     a50:	00023050 	andeq	r3, r2, r0, asr r0
     a54:	00023800 	andeq	r3, r2, r0, lsl #16
     a58:	50000100 	andpl	r0, r0, r0, lsl #2
     a5c:	00000250 	andeq	r0, r0, r0, asr r2
     a60:	00000268 	andeq	r0, r0, r8, ror #4
     a64:	00500001 	subseq	r0, r0, r1
     a68:	00000000 	andeq	r0, r0, r0
     a6c:	24000000 	strcs	r0, [r0], #-0
     a70:	30000002 	andcc	r0, r0, r2
     a74:	05000002 	streq	r0, [r0, #-2]
     a78:	33007000 	movwcc	r7, #0
     a7c:	02309f25 	eorseq	r9, r0, #148	; 0x94
     a80:	02400000 	subeq	r0, r0, #0
     a84:	00010000 	andeq	r0, r1, r0
     a88:	00025052 	andeq	r5, r2, r2, asr r0
     a8c:	00026400 	andeq	r6, r2, r0, lsl #8
     a90:	70000600 	andvc	r0, r0, r0, lsl #12
     a94:	25337fb8 	ldrcs	r7, [r3, #-4024]!	; 0xfb8
     a98:	0002649f 	muleq	r2, pc, r4	; <UNPREDICTABLE>
     a9c:	00026800 	andeq	r6, r2, r0, lsl #16
     aa0:	52000100 	andpl	r0, r0, #0
	...
     aac:	00000224 	andeq	r0, r0, r4, lsr #4
     ab0:	00000230 	andeq	r0, r0, r0, lsr r2
     ab4:	50500001 	subspl	r0, r0, r1
     ab8:	68000002 	stmdavs	r0, {r1}
     abc:	04000002 	streq	r0, [r0], #-2
     ac0:	7fb87000 	svcvc	0x00b87000
     ac4:	0000009f 	muleq	r0, pc, r0	; <UNPREDICTABLE>
     ac8:	00000000 	andeq	r0, r0, r0
     acc:	00021c00 	andeq	r1, r2, r0, lsl #24
     ad0:	00023800 	andeq	r3, r2, r0, lsl #16
     ad4:	50000100 	andpl	r0, r0, r0, lsl #2
     ad8:	00000250 	andeq	r0, r0, r0, asr r2
     adc:	00000268 	andeq	r0, r0, r8, ror #4
     ae0:	00500001 	subseq	r0, r0, r1
     ae4:	00000000 	andeq	r0, r0, r0
     ae8:	34000000 	strcc	r0, [r0], #-0
     aec:	38000002 	stmdacc	r0, {r1}
     af0:	05000002 	streq	r0, [r0, #-2]
     af4:	37007000 	strcc	r7, [r0, -r0]
     af8:	02389f1a 	eorseq	r9, r8, #104	; 0x68
     afc:	024c0000 	subeq	r0, ip, #0
     b00:	00010000 	andeq	r0, r1, r0
     b04:	00000050 	andeq	r0, r0, r0, asr r0
     b08:	00000000 	andeq	r0, r0, r0
     b0c:	00023400 	andeq	r3, r2, r0, lsl #8
     b10:	00023c00 	andeq	r3, r2, r0, lsl #24
     b14:	53000100 	movwpl	r0, #256	; 0x100
	...
     b20:	0000023c 	andeq	r0, r0, ip, lsr r2
     b24:	00000250 	andeq	r0, r0, r0, asr r2
     b28:	00530001 	subseq	r0, r3, r1
     b2c:	00000000 	andeq	r0, r0, r0
     b30:	68000000 	stmdavs	r0, {}	; <UNPREDICTABLE>
     b34:	90000002 	andls	r0, r0, r2
     b38:	01000002 	tsteq	r0, r2
     b3c:	02a85000 	adceq	r5, r8, #0
     b40:	02c00000 	sbceq	r0, r0, #0
     b44:	00010000 	andeq	r0, r1, r0
     b48:	00000050 	andeq	r0, r0, r0, asr r0
     b4c:	00000000 	andeq	r0, r0, r0
     b50:	00026800 	andeq	r6, r2, r0, lsl #16
     b54:	00028c00 	andeq	r8, r2, r0, lsl #24
     b58:	51000100 	mrspl	r0, (UNDEF: 16)
     b5c:	000002a8 	andeq	r0, r0, r8, lsr #5
     b60:	000002c0 	andeq	r0, r0, r0, asr #5
     b64:	00510001 	subseq	r0, r1, r1
     b68:	00000000 	andeq	r0, r0, r0
     b6c:	70000000 	andvc	r0, r0, r0
     b70:	7c000002 	stcvc	0, cr0, [r0], {2}
     b74:	05000002 	streq	r0, [r0, #-2]
     b78:	33007000 	movwcc	r7, #0
     b7c:	027c9f25 	rsbseq	r9, ip, #148	; 0x94
     b80:	02800000 	addeq	r0, r0, #0
     b84:	00010000 	andeq	r0, r1, r0
     b88:	0002a852 	andeq	sl, r2, r2, asr r8
     b8c:	0002bc00 	andeq	fp, r2, r0, lsl #24
     b90:	70000600 	andvc	r0, r0, r0, lsl #12
     b94:	25337fb8 	ldrcs	r7, [r3, #-4024]!	; 0xfb8
     b98:	0002bc9f 	muleq	r2, pc, ip	; <UNPREDICTABLE>
     b9c:	0002c000 	andeq	ip, r2, r0
     ba0:	52000100 	andpl	r0, r0, #0
	...
     bac:	00000270 	andeq	r0, r0, r0, ror r2
     bb0:	0000027c 	andeq	r0, r0, ip, ror r2
     bb4:	a8500001 	ldmdage	r0, {r0}^
     bb8:	c0000002 	andgt	r0, r0, r2
     bbc:	04000002 	streq	r0, [r0], #-2
     bc0:	7fb87000 	svcvc	0x00b87000
     bc4:	0000009f 	muleq	r0, pc, r0	; <UNPREDICTABLE>
     bc8:	00000000 	andeq	r0, r0, r0
     bcc:	00028000 	andeq	r8, r2, r0
     bd0:	00028c00 	andeq	r8, r2, r0, lsl #24
     bd4:	51000100 	mrspl	r0, (UNDEF: 16)
	...
     be0:	00000280 	andeq	r0, r0, r0, lsl #5
     be4:	00000290 	muleq	r0, r0, r2
     be8:	00700005 	rsbseq	r0, r0, r5
     bec:	909f1a37 	addsls	r1, pc, r7, lsr sl	; <UNPREDICTABLE>
     bf0:	94000002 	strls	r0, [r0], #-2
     bf4:	01000002 	tsteq	r0, r2
     bf8:	00005000 	andeq	r5, r0, r0
     bfc:	00000000 	andeq	r0, r0, r0
     c00:	02800000 	addeq	r0, r0, #0
     c04:	02a80000 	adceq	r0, r8, #0
     c08:	00010000 	andeq	r0, r1, r0
     c0c:	00000052 	andeq	r0, r0, r2, asr r0
     c10:	00000000 	andeq	r0, r0, r0
     c14:	00028800 	andeq	r8, r2, r0, lsl #16
     c18:	0002a800 	andeq	sl, r2, r0, lsl #16
     c1c:	53000100 	movwpl	r0, #256	; 0x100
	...
     c28:	00000288 	andeq	r0, r0, r8, lsl #5
     c2c:	00000298 	muleq	r0, r8, r2
     c30:	00530001 	subseq	r0, r3, r1
     c34:	00000000 	andeq	r0, r0, r0
     c38:	9c000000 	stcls	0, cr0, [r0], {-0}
     c3c:	a8000002 	stmdage	r0, {r1}
     c40:	01000002 	tsteq	r0, r2
     c44:	00005300 	andeq	r5, r0, r0, lsl #6
	...
     c50:	00080000 	andeq	r0, r8, r0
     c54:	00020000 	andeq	r0, r2, r0
     c58:	0008007d 	andeq	r0, r8, sp, ror r0
     c5c:	00200000 	eoreq	r0, r0, r0
     c60:	00020000 	andeq	r0, r2, r0
     c64:	0000087d 	andeq	r0, r0, sp, ror r8
     c68:	00000000 	andeq	r0, r0, r0
     c6c:	00200000 	eoreq	r0, r0, r0
     c70:	00240000 	eoreq	r0, r4, r0
     c74:	00020000 	andeq	r0, r2, r0
     c78:	0024007d 	eoreq	r0, r4, sp, ror r0
     c7c:	00280000 	eoreq	r0, r8, r0
     c80:	00020000 	andeq	r0, r2, r0
     c84:	0028107d 	eoreq	r1, r8, sp, ror r0
     c88:	002c0000 	eoreq	r0, ip, r0
     c8c:	00020000 	andeq	r0, r2, r0
     c90:	002c147d 	eoreq	r1, ip, sp, ror r4
     c94:	00500000 	subseq	r0, r0, r0
     c98:	00020000 	andeq	r0, r2, r0
     c9c:	0000207d 	andeq	r2, r0, sp, ror r0
	...
     ca8:	00080000 	andeq	r0, r8, r0
     cac:	00010000 	andeq	r0, r1, r0
     cb0:	00000050 	andeq	r0, r0, r0, asr r0
     cb4:	00000000 	andeq	r0, r0, r0
     cb8:	00001c00 	andeq	r1, r0, r0, lsl #24
     cbc:	00002800 	andeq	r2, r0, r0, lsl #16
     cc0:	7d000200 	sfmvc	f0, 4, [r0, #-0]
     cc4:	00002800 	andeq	r2, r0, r0, lsl #16
     cc8:	0000d800 	andeq	sp, r0, r0, lsl #16
     ccc:	7d000200 	sfmvc	f0, 4, [r0, #-0]
     cd0:	00000010 	andeq	r0, r0, r0, lsl r0
     cd4:	00000000 	andeq	r0, r0, r0
     cd8:	00001c00 	andeq	r1, r0, r0, lsl #24
     cdc:	00003400 	andeq	r3, r0, r0, lsl #8
     ce0:	50000100 	andpl	r0, r0, r0, lsl #2
     ce4:	00000034 	andeq	r0, r0, r4, lsr r0
     ce8:	000000d8 	ldrdeq	r0, [r0], -r8
     cec:	00530001 	subseq	r0, r3, r1
     cf0:	00000000 	andeq	r0, r0, r0
     cf4:	1c000000 	stcne	0, cr0, [r0], {-0}
     cf8:	54000000 	strpl	r0, [r0], #-0
     cfc:	02000000 	andeq	r0, r0, #0
     d00:	549f3000 	ldrpl	r3, [pc], #0	; d08 <LOADER_PHYS_START-0x3ffff2f8>
     d04:	a0000000 	andge	r0, r0, r0
     d08:	01000000 	mrseq	r0, (UNDEF: 0)
     d0c:	00a85600 	adceq	r5, r8, r0, lsl #12
     d10:	00c40000 	sbceq	r0, r4, r0
     d14:	00010000 	andeq	r0, r1, r0
     d18:	0000c456 	andeq	ip, r0, r6, asr r4
     d1c:	0000d800 	andeq	sp, r0, r0, lsl #16
     d20:	30000200 	andcc	r0, r0, r0, lsl #4
     d24:	0000009f 	muleq	r0, pc, r0	; <UNPREDICTABLE>
     d28:	00000000 	andeq	r0, r0, r0
     d2c:	00001c00 	andeq	r1, r0, r0, lsl #24
     d30:	00005400 	andeq	r5, r0, r0, lsl #8
     d34:	30000200 	andcc	r0, r0, r0, lsl #4
     d38:	0000c49f 	muleq	r0, pc, r4	; <UNPREDICTABLE>
     d3c:	0000d800 	andeq	sp, r0, r0, lsl #16
     d40:	30000200 	andcc	r0, r0, r0, lsl #4
     d44:	0000009f 	muleq	r0, pc, r0	; <UNPREDICTABLE>
     d48:	00000000 	andeq	r0, r0, r0
     d4c:	00002c00 	andeq	r2, r0, r0, lsl #24
     d50:	00005800 	andeq	r5, r0, r0, lsl #16
     d54:	52000100 	andpl	r0, r0, #0
     d58:	00000060 	andeq	r0, r0, r0, rrx
     d5c:	00000074 	andeq	r0, r0, r4, ror r0
     d60:	74550001 	ldrbvc	r0, [r5], #-1
     d64:	a0000000 	andge	r0, r0, r0
     d68:	01000000 	mrseq	r0, (UNDEF: 0)
     d6c:	00a85200 	adceq	r5, r8, r0, lsl #4
     d70:	00b40000 	adcseq	r0, r4, r0
     d74:	00010000 	andeq	r0, r1, r0
     d78:	0000c052 	andeq	ip, r0, r2, asr r0
     d7c:	0000c400 	andeq	ip, r0, r0, lsl #8
     d80:	55000100 	strpl	r0, [r0, #-256]	; 0x100
     d84:	000000c4 	andeq	r0, r0, r4, asr #1
     d88:	000000d8 	ldrdeq	r0, [r0], -r8
     d8c:	00520001 	subseq	r0, r2, r1
     d90:	00000000 	andeq	r0, r0, r0
     d94:	24000000 	strcs	r0, [r0], #-0
     d98:	34000000 	strcc	r0, [r0], #-0
     d9c:	01000000 	mrseq	r0, (UNDEF: 0)
     da0:	00345000 	eorseq	r5, r4, r0
     da4:	00d80000 	sbcseq	r0, r8, r0
     da8:	00010000 	andeq	r0, r1, r0
     dac:	00000053 	andeq	r0, r0, r3, asr r0
     db0:	00000000 	andeq	r0, r0, r0
     db4:	00002c00 	andeq	r2, r0, r0, lsl #24
     db8:	00005800 	andeq	r5, r0, r0, lsl #16
     dbc:	52000100 	andpl	r0, r0, #0
     dc0:	000000c4 	andeq	r0, r0, r4, asr #1
     dc4:	000000d8 	ldrdeq	r0, [r0], -r8
     dc8:	00520001 	subseq	r0, r2, r1
     dcc:	00000000 	andeq	r0, r0, r0
     dd0:	68000000 	stmdavs	r0, {}	; <UNPREDICTABLE>
     dd4:	a0000000 	andge	r0, r0, r0
     dd8:	01000000 	mrseq	r0, (UNDEF: 0)
     ddc:	00a85300 	adceq	r5, r8, r0, lsl #6
     de0:	00b40000 	adcseq	r0, r4, r0
     de4:	00010000 	andeq	r0, r1, r0
     de8:	00000053 	andeq	r0, r0, r3, asr r0
     dec:	00000000 	andeq	r0, r0, r0
     df0:	00006c00 	andeq	r6, r0, r0, lsl #24
     df4:	0000a000 	andeq	sl, r0, r0
     df8:	53000100 	movwpl	r0, #256	; 0x100
     dfc:	000000a8 	andeq	r0, r0, r8, lsr #1
     e00:	000000b4 	strheq	r0, [r0], -r4
     e04:	00530001 	subseq	r0, r3, r1
     e08:	00000000 	andeq	r0, r0, r0
     e0c:	74000000 	strvc	r0, [r0], #-0
     e10:	a0000000 	andge	r0, r0, r0
     e14:	01000000 	mrseq	r0, (UNDEF: 0)
     e18:	00a85200 	adceq	r5, r8, r0, lsl #4
     e1c:	00b40000 	adcseq	r0, r4, r0
     e20:	00010000 	andeq	r0, r1, r0
     e24:	00000052 	andeq	r0, r0, r2, asr r0
     e28:	00000000 	andeq	r0, r0, r0
     e2c:	0000d800 	andeq	sp, r0, r0, lsl #16
     e30:	0000e400 	andeq	lr, r0, r0, lsl #8
     e34:	7d000200 	sfmvc	f0, 4, [r0, #-0]
     e38:	0000e400 	andeq	lr, r0, r0, lsl #8
     e3c:	00016c00 	andeq	r6, r1, r0, lsl #24
     e40:	7d000200 	sfmvc	f0, 4, [r0, #-0]
     e44:	00000010 	andeq	r0, r0, r0, lsl r0
     e48:	00000000 	andeq	r0, r0, r0
     e4c:	0000d800 	andeq	sp, r0, r0, lsl #16
     e50:	0000f400 	andeq	pc, r0, r0, lsl #8
     e54:	50000100 	andpl	r0, r0, r0, lsl #2
     e58:	000000f4 	strdeq	r0, [r0], -r4
     e5c:	0000016c 	andeq	r0, r0, ip, ror #2
     e60:	00530001 	subseq	r0, r3, r1
     e64:	00000000 	andeq	r0, r0, r0
     e68:	d8000000 	stmdale	r0, {}	; <UNPREDICTABLE>
     e6c:	0c000000 	stceq	0, cr0, [r0], {-0}
     e70:	02000001 	andeq	r0, r0, #1
     e74:	0c9f3000 	ldceq	0, cr3, [pc], {0}
     e78:	14000001 	strne	r0, [r0], #-1
     e7c:	01000001 	tsteq	r0, r1
     e80:	012c5400 	teqeq	ip, r0, lsl #8
     e84:	01400000 	mrseq	r0, (UNDEF: 64)
     e88:	00010000 	andeq	r0, r1, r0
     e8c:	00014c54 	andeq	r4, r1, r4, asr ip
     e90:	00016c00 	andeq	r6, r1, r0, lsl #24
     e94:	30000200 	andcc	r0, r0, r0, lsl #4
     e98:	0000009f 	muleq	r0, pc, r0	; <UNPREDICTABLE>
     e9c:	00000000 	andeq	r0, r0, r0
     ea0:	0000d800 	andeq	sp, r0, r0, lsl #16
     ea4:	0000f400 	andeq	pc, r0, r0, lsl #8
     ea8:	30000200 	andcc	r0, r0, r0, lsl #4
     eac:	0000f49f 	muleq	r0, pc, r4	; <UNPREDICTABLE>
     eb0:	00010c00 	andeq	r0, r1, r0, lsl #24
     eb4:	57000100 	strpl	r0, [r0, -r0, lsl #2]
     eb8:	0000014c 	andeq	r0, r0, ip, asr #2
     ebc:	00000164 	andeq	r0, r0, r4, ror #2
     ec0:	9f300002 	svcls	0x00300002
     ec4:	00000164 	andeq	r0, r0, r4, ror #2
     ec8:	0000016c 	andeq	r0, r0, ip, ror #2
     ecc:	00570001 	subseq	r0, r7, r1
     ed0:	00000000 	andeq	r0, r0, r0
     ed4:	d8000000 	stmdale	r0, {}	; <UNPREDICTABLE>
     ed8:	f4000000 	vst4.8	{d0-d3}, [r0], r0
     edc:	02000000 	andeq	r0, r0, #0
     ee0:	f49f3000 			; <UNDEFINED> instruction: 0xf49f3000
     ee4:	4c000000 	stcmi	0, cr0, [r0], {-0}
     ee8:	01000001 	tsteq	r0, r1
     eec:	014c5700 	cmpeq	ip, r0, lsl #14
     ef0:	01640000 	cmneq	r4, r0
     ef4:	00020000 	andeq	r0, r2, r0
     ef8:	01649f30 	cmneq	r4, r0, lsr pc
     efc:	016c0000 	cmneq	ip, r0
     f00:	00010000 	andeq	r0, r1, r0
     f04:	00000057 	andeq	r0, r0, r7, asr r0
     f08:	00000000 	andeq	r0, r0, r0
     f0c:	0000f400 	andeq	pc, r0, r0, lsl #8
     f10:	00012400 	andeq	r2, r1, r0, lsl #8
     f14:	5c000100 	stfpls	f0, [r0], {-0}
     f18:	0000012c 	andeq	r0, r0, ip, lsr #2
     f1c:	00000144 	andeq	r0, r0, r4, asr #2
     f20:	645c0001 	ldrbvs	r0, [ip], #-1
     f24:	6c000001 	stcvs	0, cr0, [r0], {1}
     f28:	01000001 	tsteq	r0, r1
     f2c:	00005c00 	andeq	r5, r0, r0, lsl #24
     f30:	00000000 	andeq	r0, r0, r0
     f34:	00e00000 	rsceq	r0, r0, r0
     f38:	00f40000 	rscseq	r0, r4, r0
     f3c:	00010000 	andeq	r0, r1, r0
     f40:	0000f450 	andeq	pc, r0, r0, asr r4	; <UNPREDICTABLE>
     f44:	00016c00 	andeq	r6, r1, r0, lsl #24
     f48:	53000100 	movwpl	r0, #256	; 0x100
	...
     f54:	0000012c 	andeq	r0, r0, ip, lsr #2
     f58:	00000144 	andeq	r0, r0, r4, asr #2
     f5c:	00530001 	subseq	r0, r3, r1
     f60:	00000000 	andeq	r0, r0, r0
     f64:	4c000000 	stcmi	0, cr0, [r0], {-0}
     f68:	64000001 	strvs	r0, [r0], #-1
     f6c:	01000001 	tsteq	r0, r1
     f70:	00005300 	andeq	r5, r0, r0, lsl #6
     f74:	00000000 	andeq	r0, r0, r0
     f78:	016c0000 	cmneq	ip, r0
     f7c:	01700000 	cmneq	r0, r0
     f80:	00020000 	andeq	r0, r2, r0
     f84:	0170007d 	cmneq	r0, sp, ror r0
     f88:	01740000 	cmneq	r4, r0
     f8c:	00020000 	andeq	r0, r2, r0
     f90:	01740c7d 	cmneq	r4, sp, ror ip
     f94:	01780000 	cmneq	r8, r0
     f98:	00020000 	andeq	r0, r2, r0
     f9c:	0178287d 	cmneq	r8, sp, ror r8
     fa0:	04ec0000 	strbteq	r0, [ip], #0
     fa4:	00020000 	andeq	r0, r2, r0
     fa8:	0000387d 	andeq	r3, r0, sp, ror r8
     fac:	00000000 	andeq	r0, r0, r0
     fb0:	016c0000 	cmneq	ip, r0
     fb4:	01980000 	orrseq	r0, r8, r0
     fb8:	00010000 	andeq	r0, r1, r0
     fbc:	00000050 	andeq	r0, r0, r0, asr r0
     fc0:	00000000 	andeq	r0, r0, r0
     fc4:	00019400 	andeq	r9, r1, r0, lsl #8
     fc8:	00019800 	andeq	r9, r1, r0, lsl #16
     fcc:	53000300 	movwpl	r0, #768	; 0x300
     fd0:	01980493 			; <UNDEFINED> instruction: 0x01980493
     fd4:	02a40000 	adceq	r0, r4, #0
     fd8:	00030000 	andeq	r0, r3, r0
     fdc:	a4049358 	strge	r9, [r4], #-856	; 0x358
     fe0:	b0000002 	andlt	r0, r0, r2
     fe4:	05000002 	streq	r0, [r0, #-2]
     fe8:	9f047800 	svcls	0x00047800
     fec:	02b00493 	adcseq	r0, r0, #-1828716544	; 0x93000000
     ff0:	02e80000 	rsceq	r0, r8, #0
     ff4:	00030000 	andeq	r0, r3, r0
     ff8:	e8049358 	stmda	r4, {r3, r4, r6, r8, r9, ip, pc}
     ffc:	f4000002 	vst4.8	{d0-d3}, [r0], r2
    1000:	05000002 	streq	r0, [r0, #-2]
    1004:	9f047800 	svcls	0x00047800
    1008:	02f40493 	rscseq	r0, r4, #-1828716544	; 0x93000000
    100c:	03a40000 			; <UNDEFINED> instruction: 0x03a40000
    1010:	00030000 	andeq	r0, r3, r0
    1014:	a4049358 	strge	r9, [r4], #-856	; 0x358
    1018:	ac000003 	stcge	0, cr0, [r0], {3}
    101c:	05000003 	streq	r0, [r0, #-3]
    1020:	9f047800 	svcls	0x00047800
    1024:	03ac0493 			; <UNDEFINED> instruction: 0x03ac0493
    1028:	04580000 	ldrbeq	r0, [r8], #-0
    102c:	00030000 	andeq	r0, r3, r0
    1030:	58049358 	stmdapl	r4, {r3, r4, r6, r8, r9, ip, pc}
    1034:	6c000004 	stcvs	0, cr0, [r0], {4}
    1038:	05000004 	streq	r0, [r0, #-4]
    103c:	9f047800 	svcls	0x00047800
    1040:	046c0493 	strbteq	r0, [ip], #-1171	; 0x493
    1044:	04a00000 	strteq	r0, [r0], #0
    1048:	00030000 	andeq	r0, r3, r0
    104c:	a0049358 	andge	r9, r4, r8, asr r3
    1050:	ac000004 	stcge	0, cr0, [r0], {4}
    1054:	05000004 	streq	r0, [r0, #-4]
    1058:	9f047800 	svcls	0x00047800
    105c:	04ac0493 	strteq	r0, [ip], #1171	; 0x493
    1060:	04d40000 	ldrbeq	r0, [r4], #0
    1064:	00030000 	andeq	r0, r3, r0
    1068:	d4049358 	strle	r9, [r4], #-856	; 0x358
    106c:	e0000004 	and	r0, r0, r4
    1070:	05000004 	streq	r0, [r0, #-4]
    1074:	9f047800 	svcls	0x00047800
    1078:	04e00493 	strbteq	r0, [r0], #1171	; 0x493
    107c:	04ec0000 	strbteq	r0, [ip], #0
    1080:	00030000 	andeq	r0, r3, r0
    1084:	00049358 	andeq	r9, r4, r8, asr r3
    1088:	00000000 	andeq	r0, r0, r0
    108c:	94000000 	strls	r0, [r0], #-0
    1090:	98000001 	stmdals	r0, {r0}
    1094:	02000001 	andeq	r0, r0, #1
    1098:	98549100 	ldmdals	r4, {r8, ip, pc}^
    109c:	b8000001 	stmdalt	r0, {r0}
    10a0:	01000001 	tsteq	r0, r1
    10a4:	01b85500 			; <UNDEFINED> instruction: 0x01b85500
    10a8:	01d00000 	bicseq	r0, r0, r0
    10ac:	00030000 	andeq	r0, r3, r0
    10b0:	d09f0175 	addsle	r0, pc, r5, ror r1	; <UNPREDICTABLE>
    10b4:	f8000001 			; <UNDEFINED> instruction: 0xf8000001
    10b8:	01000001 	tsteq	r0, r1
    10bc:	01f85500 	mvnseq	r5, r0, lsl #10
    10c0:	01fc0000 	mvnseq	r0, r0
    10c4:	00030000 	andeq	r0, r3, r0
    10c8:	fc9f0175 	ldc2	1, cr0, [pc], {117}	; 0x75
    10cc:	0c000001 	stceq	0, cr0, [r0], {1}
    10d0:	03000002 	movweq	r0, #2
    10d4:	9f027500 	svcls	0x00027500
    10d8:	0000020c 	andeq	r0, r0, ip, lsl #4
    10dc:	00000230 	andeq	r0, r0, r0, lsr r2
    10e0:	44550001 	ldrbmi	r0, [r5], #-1
    10e4:	cc000002 	stcgt	0, cr0, [r0], {2}
    10e8:	01000002 	tsteq	r0, r2
    10ec:	02cc5500 	sbceq	r5, ip, #0
    10f0:	02d80000 	sbcseq	r0, r8, #0
    10f4:	00030000 	andeq	r0, r3, r0
    10f8:	d89f0275 	ldmle	pc, {r0, r2, r4, r5, r6, r9}	; <UNPREDICTABLE>
    10fc:	44000002 	strmi	r0, [r0], #-2
    1100:	01000003 	tsteq	r0, r3
    1104:	03445500 	movteq	r5, #17664	; 0x4500
    1108:	03480000 	movteq	r0, #32768	; 0x8000
    110c:	00030000 	andeq	r0, r3, r0
    1110:	489f7f75 	ldmmi	pc, {r0, r2, r4, r5, r6, r8, r9, sl, fp, ip, sp, lr}	; <UNPREDICTABLE>
    1114:	ec000003 	stc	0, cr0, [r0], {3}
    1118:	01000004 	tsteq	r0, r4
    111c:	00005500 	andeq	r5, r0, r0, lsl #10
    1120:	00000000 	andeq	r0, r0, r0
    1124:	01980000 	orrseq	r0, r8, r0
    1128:	01b40000 			; <UNDEFINED> instruction: 0x01b40000
    112c:	00010000 	andeq	r0, r1, r0
    1130:	0001b85c 	andeq	fp, r1, ip, asr r8
    1134:	00021400 	andeq	r1, r2, r0, lsl #8
    1138:	5c000100 	stfpls	f0, [r0], {-0}
    113c:	000002cc 	andeq	r0, r0, ip, asr #5
    1140:	000002e0 	andeq	r0, r0, r0, ror #5
    1144:	fc5c0001 	mrrc2	0, 0, r0, ip, cr1
    1148:	0c000002 	stceq	0, cr0, [r0], {2}
    114c:	01000003 	tsteq	r0, r3
    1150:	03485c00 	movteq	r5, #35840	; 0x8c00
    1154:	03640000 	cmneq	r4, #0
    1158:	00010000 	andeq	r0, r1, r0
    115c:	0004885c 	andeq	r8, r4, ip, asr r8
    1160:	00048f00 	andeq	r8, r4, r0, lsl #30
    1164:	5c000100 	stfpls	f0, [r0], {-0}
    1168:	000004bc 			; <UNDEFINED> instruction: 0x000004bc
    116c:	000004c3 	andeq	r0, r0, r3, asr #9
    1170:	005c0001 	subseq	r0, ip, r1
    1174:	00000000 	andeq	r0, r0, r0
    1178:	98000000 	stmdals	r0, {}	; <UNPREDICTABLE>
    117c:	30000001 	andcc	r0, r0, r1
    1180:	01000002 	tsteq	r0, r2
    1184:	02445400 	subeq	r5, r4, #0
    1188:	028c0000 	addeq	r0, ip, #0
    118c:	00010000 	andeq	r0, r1, r0
    1190:	00028c54 	andeq	r8, r2, r4, asr ip
    1194:	0002b800 	andeq	fp, r2, r0, lsl #16
    1198:	77000600 	strvc	r0, [r0, -r0, lsl #12]
    119c:	22007400 	andcs	r7, r0, #0
    11a0:	0002c09f 	muleq	r2, pc, r0	; <UNPREDICTABLE>
    11a4:	00044000 	andeq	r4, r4, r0
    11a8:	54000100 	strpl	r0, [r0], #-256	; 0x100
    11ac:	00000440 	andeq	r0, r0, r0, asr #8
    11b0:	00000460 	andeq	r0, r0, r0, ror #8
    11b4:	00740006 	rsbseq	r0, r4, r6
    11b8:	9f220077 	svcls	0x00220077
    11bc:	00000460 	andeq	r0, r0, r0, ror #8
    11c0:	00000470 	andeq	r0, r0, r0, ror r4
    11c4:	74540001 	ldrbvc	r0, [r4], #-1
    11c8:	ec000004 	stc	0, cr0, [r0], {4}
    11cc:	01000004 	tsteq	r0, r4
    11d0:	00005400 	andeq	r5, r0, r0, lsl #8
    11d4:	00000000 	andeq	r0, r0, r0
    11d8:	02940000 	addseq	r0, r4, #0
    11dc:	02c40000 	sbceq	r0, r4, #0
    11e0:	00010000 	andeq	r0, r1, r0
    11e4:	00044850 	andeq	r4, r4, r0, asr r8
    11e8:	00047800 	andeq	r7, r4, r0, lsl #16
    11ec:	50000100 	andpl	r0, r0, r0, lsl #2
    11f0:	00000490 	muleq	r0, r0, r4
    11f4:	000004bc 			; <UNDEFINED> instruction: 0x000004bc
    11f8:	c4500001 	ldrbgt	r0, [r0], #-1
    11fc:	ec000004 	stc	0, cr0, [r0], {4}
    1200:	01000004 	tsteq	r0, r4
    1204:	00005000 	andeq	r5, r0, r0
    1208:	00000000 	andeq	r0, r0, r0
    120c:	02100000 	andseq	r0, r0, #0
    1210:	02140000 	andseq	r0, r4, #0
    1214:	00010000 	andeq	r0, r1, r0
    1218:	0002d856 	andeq	sp, r2, r6, asr r8
    121c:	0002e000 	andeq	lr, r2, r0
    1220:	56000100 	strpl	r0, [r0], -r0, lsl #2
	...
    122c:	00000198 	muleq	r0, r8, r1
    1230:	000001b4 			; <UNDEFINED> instruction: 0x000001b4
    1234:	9f310002 	svcls	0x00310002
    1238:	000001c0 	andeq	r0, r0, r0, asr #3
    123c:	000001d4 	ldrdeq	r0, [r0], -r4
    1240:	9f300002 	svcls	0x00300002
    1244:	000001d4 	ldrdeq	r0, [r0], -r4
    1248:	000001f8 	strdeq	r0, [r0], -r8
    124c:	9f310002 	svcls	0x00310002
    1250:	000001f8 	strdeq	r0, [r0], -r8
    1254:	00000230 	andeq	r0, r0, r0, lsr r2
    1258:	9f300002 	svcls	0x00300002
    125c:	00000244 	andeq	r0, r0, r4, asr #4
    1260:	000002fc 	strdeq	r0, [r0], -ip
    1264:	9f300002 	svcls	0x00300002
    1268:	000002fc 	strdeq	r0, [r0], -ip
    126c:	0000030c 	andeq	r0, r0, ip, lsl #6
    1270:	9f310002 	svcls	0x00310002
    1274:	0000030c 	andeq	r0, r0, ip, lsl #6
    1278:	000004ec 	andeq	r0, r0, ip, ror #9
    127c:	9f300002 	svcls	0x00300002
	...
    1288:	00000198 	muleq	r0, r8, r1
    128c:	000001b4 			; <UNDEFINED> instruction: 0x000001b4
    1290:	e4530001 	ldrb	r0, [r3], #-1
    1294:	f4000001 	vst4.8	{d0-d3}, [r0], r1
    1298:	01000001 	tsteq	r0, r1
    129c:	02fc5300 	rscseq	r5, ip, #0
    12a0:	030c0000 	movweq	r0, #49152	; 0xc000
    12a4:	00010000 	andeq	r0, r1, r0
    12a8:	00000053 	andeq	r0, r0, r3, asr r0
    12ac:	00000000 	andeq	r0, r0, r0
    12b0:	0001e800 	andeq	lr, r1, r0, lsl #16
    12b4:	0001f800 	andeq	pc, r1, r0, lsl #16
    12b8:	91000400 	tstls	r0, r0, lsl #8
    12bc:	009f7fac 	addseq	r7, pc, ip, lsr #31
    12c0:	00000000 	andeq	r0, r0, r0
    12c4:	70000000 	andvc	r0, r0, r0
    12c8:	b8000002 	stmdalt	r0, {r1}
    12cc:	04000002 	streq	r0, [r0], #-2
    12d0:	7fac9100 	svcvc	0x00ac9100
    12d4:	0002c49f 	muleq	r2, pc, r4	; <UNPREDICTABLE>
    12d8:	0002cc00 	andeq	ip, r2, r0, lsl #24
    12dc:	91000400 	tstls	r0, r0, lsl #8
    12e0:	009f7fac 	addseq	r7, pc, ip, lsr #31
    12e4:	00000000 	andeq	r0, r0, r0
    12e8:	74000000 	strvc	r0, [r0], #-0
    12ec:	93000002 	movwls	r0, #2
    12f0:	01000002 	tsteq	r0, r2
    12f4:	02c45200 	sbceq	r5, r4, #0
    12f8:	02cc0000 	sbceq	r0, ip, #0
    12fc:	00010000 	andeq	r0, r1, r0
    1300:	00000052 	andeq	r0, r0, r2, asr r0
    1304:	00000000 	andeq	r0, r0, r0
    1308:	0002c400 	andeq	ip, r2, r0, lsl #8
    130c:	0002cc00 	andeq	ip, r2, r0, lsl #24
    1310:	91000400 	tstls	r0, r0, lsl #8
    1314:	009f7fac 	addseq	r7, pc, ip, lsr #31
    1318:	00000000 	andeq	r0, r0, r0
    131c:	fc000000 	stc2	0, cr0, [r0], {-0}
    1320:	0c000002 	stceq	0, cr0, [r0], {2}
    1324:	04000003 	streq	r0, [r0], #-3
    1328:	7fac9100 	svcvc	0x00ac9100
    132c:	0000009f 	muleq	r0, pc, r0	; <UNPREDICTABLE>
    1330:	00000000 	andeq	r0, r0, r0
    1334:	00032800 	andeq	r2, r3, r0, lsl #16
    1338:	00036c00 	andeq	r6, r3, r0, lsl #24
    133c:	91000400 	tstls	r0, r0, lsl #8
    1340:	889f7fac 	ldmhi	pc, {r2, r3, r5, r7, r8, r9, sl, fp, ip, sp, lr}	; <UNPREDICTABLE>
    1344:	ec000004 	stc	0, cr0, [r0], {4}
    1348:	04000004 	streq	r0, [r0], #-4
    134c:	7fac9100 	svcvc	0x00ac9100
    1350:	0000009f 	muleq	r0, pc, r0	; <UNPREDICTABLE>
    1354:	00000000 	andeq	r0, r0, r0
    1358:	00032800 	andeq	r2, r3, r0, lsl #16
    135c:	00036c00 	andeq	r6, r3, r0, lsl #24
    1360:	53000100 	movwpl	r0, #256	; 0x100
    1364:	00000488 	andeq	r0, r0, r8, lsl #9
    1368:	0000048f 	andeq	r0, r0, pc, lsl #9
    136c:	bc530001 	mrrclt	0, 0, r0, r3, cr1
    1370:	c3000004 	movwgt	r0, #4
    1374:	01000004 	tsteq	r0, r4
    1378:	00005300 	andeq	r5, r0, r0, lsl #6
    137c:	00000000 	andeq	r0, r0, r0
    1380:	03640000 	cmneq	r4, #0
    1384:	036c0000 	cmneq	ip, #0
    1388:	00040000 	andeq	r0, r4, r0
    138c:	9f7fac91 	svcls	0x007fac91
	...
    1398:	0000037c 	andeq	r0, r0, ip, ror r3
    139c:	00000414 	andeq	r0, r0, r4, lsl r4
    13a0:	ac910004 	ldcge	0, cr0, [r1], {4}
    13a4:	04809f7f 	streq	r9, [r0], #3967	; 0xf7f
    13a8:	04880000 	streq	r0, [r8], #0
    13ac:	00040000 	andeq	r0, r4, r0
    13b0:	9f7fac91 	svcls	0x007fac91
	...
    13bc:	00000380 	andeq	r0, r0, r0, lsl #7
    13c0:	000003c4 	andeq	r0, r0, r4, asr #7
    13c4:	00530001 	subseq	r0, r3, r1
    13c8:	00000000 	andeq	r0, r0, r0
    13cc:	b0000000 	andlt	r0, r0, r0
    13d0:	b8000003 	stmdalt	r0, {r0, r1}
    13d4:	04000003 	streq	r0, [r0], #-3
    13d8:	7fac9100 	svcvc	0x00ac9100
    13dc:	0000009f 	muleq	r0, pc, r0	; <UNPREDICTABLE>
    13e0:	00000000 	andeq	r0, r0, r0
    13e4:	0003bc00 	andeq	fp, r3, r0, lsl #24
    13e8:	0003c400 	andeq	ip, r3, r0, lsl #8
    13ec:	30000200 	andcc	r0, r0, r0, lsl #4
    13f0:	0003c49f 	muleq	r3, pc, r4	; <UNPREDICTABLE>
    13f4:	0003d400 	andeq	sp, r3, r0, lsl #8
    13f8:	52000100 	andpl	r0, r0, #0
    13fc:	000003e8 	andeq	r0, r0, r8, ror #7
    1400:	00000414 	andeq	r0, r0, r4, lsl r4
    1404:	80520001 	subshi	r0, r2, r1
    1408:	88000004 	stmdahi	r0, {r2}
    140c:	01000004 	tsteq	r0, r4
    1410:	00005200 	andeq	r5, r0, r0, lsl #4
    1414:	00000000 	andeq	r0, r0, r0
    1418:	03bc0000 			; <UNDEFINED> instruction: 0x03bc0000
    141c:	04140000 	ldreq	r0, [r4], #-0
    1420:	00010000 	andeq	r0, r1, r0
    1424:	0004805c 	andeq	r8, r4, ip, asr r0
    1428:	00048800 	andeq	r8, r4, r0, lsl #16
    142c:	5c000100 	stfpls	f0, [r0], {-0}
	...
    1438:	000003bc 			; <UNDEFINED> instruction: 0x000003bc
    143c:	000003d4 	ldrdeq	r0, [r0], -r4
    1440:	f4530001 			; <UNDEFINED> instruction: 0xf4530001
    1444:	14000003 	strne	r0, [r0], #-3
    1448:	01000004 	tsteq	r0, r4
    144c:	04805300 	streq	r5, [r0], #768	; 0x300
    1450:	04880000 	streq	r0, [r8], #0
    1454:	00010000 	andeq	r0, r1, r0
    1458:	00000053 	andeq	r0, r0, r3, asr r0
    145c:	00000000 	andeq	r0, r0, r0
    1460:	0003c400 	andeq	ip, r3, r0, lsl #8
    1464:	0003d400 	andeq	sp, r3, r0, lsl #8
    1468:	91000400 	tstls	r0, r0, lsl #8
    146c:	e89f7fac 	ldm	pc, {r2, r3, r5, r7, r8, r9, sl, fp, ip, sp, lr}	; <UNPREDICTABLE>
    1470:	14000003 	strne	r0, [r0], #-3
    1474:	04000004 	streq	r0, [r0], #-4
    1478:	7fac9100 	svcvc	0x00ac9100
    147c:	0004809f 	muleq	r4, pc, r0	; <UNPREDICTABLE>
    1480:	00048800 	andeq	r8, r4, r0, lsl #16
    1484:	91000400 	tstls	r0, r0, lsl #8
    1488:	009f7fac 	addseq	r7, pc, ip, lsr #31
    148c:	00000000 	andeq	r0, r0, r0
    1490:	bc000000 	stclt	0, cr0, [r0], {-0}
    1494:	14000003 	strne	r0, [r0], #-3
    1498:	04000004 	streq	r0, [r0], #-4
    149c:	7fac9100 	svcvc	0x00ac9100
    14a0:	0004809f 	muleq	r4, pc, r0	; <UNPREDICTABLE>
    14a4:	00048800 	andeq	r8, r4, r0, lsl #16
    14a8:	91000400 	tstls	r0, r0, lsl #8
    14ac:	009f7fac 	addseq	r7, pc, ip, lsr #31
    14b0:	00000000 	andeq	r0, r0, r0
    14b4:	24000000 	strcs	r0, [r0], #-0
    14b8:	80000004 	andhi	r0, r0, r4
    14bc:	04000004 	streq	r0, [r0], #-4
    14c0:	7fac9100 	svcvc	0x00ac9100
    14c4:	0000009f 	muleq	r0, pc, r0	; <UNPREDICTABLE>
    14c8:	00000000 	andeq	r0, r0, r0
    14cc:	00042800 	andeq	r2, r4, r0, lsl #16
    14d0:	00044700 	andeq	r4, r4, r0, lsl #14
    14d4:	52000100 	andpl	r0, r0, #0
    14d8:	00000478 	andeq	r0, r0, r8, ror r4
    14dc:	00000480 	andeq	r0, r0, r0, lsl #9
    14e0:	00520001 	subseq	r0, r2, r1
    14e4:	00000000 	andeq	r0, r0, r0
    14e8:	78000000 	stmdavc	r0, {}	; <UNPREDICTABLE>
    14ec:	80000004 	andhi	r0, r0, r4
    14f0:	04000004 	streq	r0, [r0], #-4
    14f4:	7fac9100 	svcvc	0x00ac9100
    14f8:	0000009f 	muleq	r0, pc, r0	; <UNPREDICTABLE>
	...
    1504:	00000800 	andeq	r0, r0, r0, lsl #16
    1508:	7d000200 	sfmvc	f0, 4, [r0, #-0]
    150c:	00000800 	andeq	r0, r0, r0, lsl #16
    1510:	00001000 	andeq	r1, r0, r0
    1514:	7d000200 	sfmvc	f0, 4, [r0, #-0]
    1518:	00001014 	andeq	r1, r0, r4, lsl r0
    151c:	0000d000 	andeq	sp, r0, r0
    1520:	7d000200 	sfmvc	f0, 4, [r0, #-0]
    1524:	00000028 	andeq	r0, r0, r8, lsr #32
	...
    1530:	00001c00 	andeq	r1, r0, r0, lsl #24
    1534:	50000100 	andpl	r0, r0, r0, lsl #2
    1538:	00000024 	andeq	r0, r0, r4, lsr #32
    153c:	00000040 	andeq	r0, r0, r0, asr #32
    1540:	74500001 	ldrbvc	r0, [r0], #-1
    1544:	80000000 	andhi	r0, r0, r0
    1548:	01000000 	mrseq	r0, (UNDEF: 0)
    154c:	00805000 	addeq	r5, r0, r0
    1550:	00d00000 	sbcseq	r0, r0, r0
    1554:	00010000 	andeq	r0, r1, r0
    1558:	00000054 	andeq	r0, r0, r4, asr r0
	...
    1564:	00001c00 	andeq	r1, r0, r0, lsl #24
    1568:	51000100 	mrspl	r0, (UNDEF: 16)
    156c:	00000024 	andeq	r0, r0, r4, lsr #32
    1570:	00000040 	andeq	r0, r0, r0, asr #32
    1574:	74510001 	ldrbvc	r0, [r1], #-1
    1578:	80000000 	andhi	r0, r0, r0
    157c:	01000000 	mrseq	r0, (UNDEF: 0)
    1580:	00b05100 	adcseq	r5, r0, r0, lsl #2
    1584:	00c70000 	sbceq	r0, r7, r0
    1588:	00010000 	andeq	r0, r1, r0
    158c:	00000051 	andeq	r0, r0, r1, asr r0
	...
    1598:	00001c00 	andeq	r1, r0, r0, lsl #24
    159c:	52000100 	andpl	r0, r0, #0
    15a0:	00000024 	andeq	r0, r0, r4, lsr #32
    15a4:	0000003c 	andeq	r0, r0, ip, lsr r0
    15a8:	74520001 	ldrbvc	r0, [r2], #-1
    15ac:	80000000 	andhi	r0, r0, r0
    15b0:	01000000 	mrseq	r0, (UNDEF: 0)
    15b4:	00b05200 	adcseq	r5, r0, r0, lsl #4
    15b8:	00c70000 	sbceq	r0, r7, r0
    15bc:	00010000 	andeq	r0, r1, r0
    15c0:	00000052 	andeq	r0, r0, r2, asr r0
    15c4:	00000000 	andeq	r0, r0, r0
    15c8:	00008c00 	andeq	r8, r0, r0, lsl #24
    15cc:	00009800 	andeq	r9, r0, r0, lsl #16
    15d0:	53000100 	movwpl	r0, #256	; 0x100
    15d4:	00000098 	muleq	r0, r8, r0
    15d8:	000000a0 	andeq	r0, r0, r0, lsr #1
    15dc:	00500001 	subseq	r0, r0, r1
    15e0:	00000000 	andeq	r0, r0, r0
    15e4:	24000000 	strcs	r0, [r0], #-0
    15e8:	40000000 	andmi	r0, r0, r0
    15ec:	01000000 	mrseq	r0, (UNDEF: 0)
    15f0:	00405000 	subeq	r5, r0, r0
    15f4:	004c0000 	subeq	r0, ip, r0
    15f8:	00010000 	andeq	r0, r1, r0
    15fc:	00004c54 	andeq	r4, r0, r4, asr ip
    1600:	00005c00 	andeq	r5, r0, r0, lsl #24
    1604:	53000100 	movwpl	r0, #256	; 0x100
    1608:	0000005c 	andeq	r0, r0, ip, asr r0
    160c:	00000074 	andeq	r0, r0, r4, ror r0
    1610:	b0540001 	subslt	r0, r4, r1
    1614:	d0000000 	andle	r0, r0, r0
    1618:	01000000 	mrseq	r0, (UNDEF: 0)
    161c:	00005400 	andeq	r5, r0, r0, lsl #8
    1620:	00000000 	andeq	r0, r0, r0
    1624:	00240000 	eoreq	r0, r4, r0
    1628:	00400000 	subeq	r0, r0, r0
    162c:	00030000 	andeq	r0, r3, r0
    1630:	649f5f91 	ldrvs	r5, [pc], #3985	; 1638 <LOADER_PHYS_START-0x3fffe9c8>
    1634:	6f000000 	svcvs	0x00000000
    1638:	01000000 	mrseq	r0, (UNDEF: 0)
    163c:	00b05000 	adcseq	r5, r0, r0
    1640:	00bc0000 	adcseq	r0, ip, r0
    1644:	00030000 	andeq	r0, r3, r0
    1648:	bc9f5e91 	ldclt	14, cr5, [pc], {145}	; 0x91
    164c:	c7000000 	strgt	r0, [r0, -r0]
    1650:	01000000 	mrseq	r0, (UNDEF: 0)
    1654:	00c75000 	sbceq	r5, r7, r0
    1658:	00d00000 	sbcseq	r0, r0, r0
    165c:	00030000 	andeq	r0, r3, r0
    1660:	009f5e91 	umullseq	r5, pc, r1, lr	; <UNPREDICTABLE>
    1664:	00000000 	andeq	r0, r0, r0
    1668:	d0000000 	andle	r0, r0, r0
    166c:	d4000000 	strle	r0, [r0], #-0
    1670:	02000000 	andeq	r0, r0, #0
    1674:	d4007d00 	strle	r7, [r0], #-3328	; 0xd00
    1678:	f8000000 			; <UNDEFINED> instruction: 0xf8000000
    167c:	02000001 	andeq	r0, r0, #1
    1680:	00187d00 	andseq	r7, r8, r0, lsl #26
    1684:	00000000 	andeq	r0, r0, r0
    1688:	d0000000 	andle	r0, r0, r0
    168c:	dc000000 	stcle	0, cr0, [r0], {-0}
    1690:	01000000 	mrseq	r0, (UNDEF: 0)
    1694:	00dc5000 	sbcseq	r5, ip, r0
    1698:	00f00000 	rscseq	r0, r0, r0
    169c:	00010000 	andeq	r0, r1, r0
    16a0:	00000055 	andeq	r0, r0, r5, asr r0
    16a4:	00000000 	andeq	r0, r0, r0
    16a8:	0000d000 	andeq	sp, r0, r0
    16ac:	0000e000 	andeq	lr, r0, r0
    16b0:	51000100 	mrspl	r0, (UNDEF: 16)
    16b4:	000000e0 	andeq	r0, r0, r0, ror #1
    16b8:	000000f0 	strdeq	r0, [r0], -r0	; <UNPREDICTABLE>
    16bc:	93510003 	cmpls	r1, #3
    16c0:	0000f004 	andeq	pc, r0, r4
    16c4:	00010300 	andeq	r0, r1, r0, lsl #6
    16c8:	57000300 	strpl	r0, [r0, -r0, lsl #6]
    16cc:	01040493 			; <UNDEFINED> instruction: 0x01040493
    16d0:	01540000 	cmpeq	r4, r0
    16d4:	00030000 	andeq	r0, r3, r0
    16d8:	64049357 	strvs	r9, [r4], #-855	; 0x357
    16dc:	70000001 	andvc	r0, r0, r1
    16e0:	03000001 	movweq	r0, #1
    16e4:	04935700 	ldreq	r5, [r3], #1792	; 0x700
    16e8:	00000170 	andeq	r0, r0, r0, ror r1
    16ec:	0000017b 	andeq	r0, r0, fp, ror r1
    16f0:	93570003 	cmpls	r7, #3
    16f4:	00018c04 	andeq	r8, r1, r4, lsl #24
    16f8:	00019400 	andeq	r9, r1, r0, lsl #8
    16fc:	57000300 	strpl	r0, [r0, -r0, lsl #6]
    1700:	01a00493 	lsleq	r0, r3	; <illegal shifter operand>
    1704:	01a80000 			; <UNDEFINED> instruction: 0x01a80000
    1708:	00030000 	andeq	r0, r3, r0
    170c:	a8049357 	stmdage	r4, {r0, r1, r2, r4, r6, r8, r9, ip, pc}
    1710:	b0000001 	andlt	r0, r0, r1
    1714:	03000001 	movweq	r0, #1
    1718:	04935700 	ldreq	r5, [r3], #1792	; 0x700
    171c:	000001b0 			; <UNDEFINED> instruction: 0x000001b0
    1720:	000001b7 			; <UNDEFINED> instruction: 0x000001b7
    1724:	93570003 	cmpls	r7, #3
    1728:	0001c004 	andeq	ip, r1, r4
    172c:	0001c800 	andeq	ip, r1, r0, lsl #16
    1730:	57000300 	strpl	r0, [r0, -r0, lsl #6]
    1734:	01c80493 			; <UNDEFINED> instruction: 0x01c80493
    1738:	01cf0000 	biceq	r0, pc, r0
    173c:	00030000 	andeq	r0, r3, r0
    1740:	d8049357 	stmdale	r4, {r0, r1, r2, r4, r6, r8, r9, ip, pc}
    1744:	e0000001 	and	r0, r0, r1
    1748:	03000001 	movweq	r0, #1
    174c:	04935700 	ldreq	r5, [r3], #1792	; 0x700
    1750:	000001ec 	andeq	r0, r0, ip, ror #3
    1754:	000001f8 	strdeq	r0, [r0], -r8
    1758:	93570003 	cmpls	r7, #3
    175c:	00000004 	andeq	r0, r0, r4
    1760:	00000000 	andeq	r0, r0, r0
    1764:	00010400 	andeq	r0, r1, r0, lsl #8
    1768:	00010c00 	andeq	r0, r1, r0, lsl #24
    176c:	54000100 	strpl	r0, [r0], #-256	; 0x100
    1770:	0000010c 	andeq	r0, r0, ip, lsl #2
    1774:	00000114 	andeq	r0, r0, r4, lsl r1
    1778:	01740003 	cmneq	r4, r3
    177c:	0001249f 	muleq	r1, pc, r4	; <UNPREDICTABLE>
    1780:	00016800 	andeq	r6, r1, r0, lsl #16
    1784:	75000300 	strvc	r0, [r0, #-768]	; 0x300
    1788:	01689f01 	cmneq	r8, r1, lsl #30
    178c:	01700000 	cmneq	r0, r0
    1790:	00030000 	andeq	r0, r3, r0
    1794:	8c9f0174 	ldfhis	f0, [pc], {116}	; 0x74
    1798:	f8000001 			; <UNDEFINED> instruction: 0xf8000001
    179c:	01000001 	tsteq	r0, r1
    17a0:	00005400 	andeq	r5, r0, r0, lsl #8
	...
    17ac:	00080000 	andeq	r0, r8, r0
    17b0:	00010000 	andeq	r0, r1, r0
    17b4:	00000c51 	andeq	r0, r0, r1, asr ip
    17b8:	00002400 	andeq	r2, r0, r0, lsl #8
    17bc:	51000100 	mrspl	r0, (UNDEF: 16)
	...
    17c8:	00000004 	andeq	r0, r0, r4
    17cc:	0000000c 	andeq	r0, r0, ip
    17d0:	7f720003 	svcvc	0x00720003
    17d4:	0000009f 	muleq	r0, pc, r0	; <UNPREDICTABLE>
    17d8:	00000000 	andeq	r0, r0, r0
    17dc:	00000400 	andeq	r0, r0, r0, lsl #8
    17e0:	00000c00 	andeq	r0, r0, r0, lsl #24
    17e4:	50000100 	andpl	r0, r0, r0, lsl #2
	...
    17f0:	00000004 	andeq	r0, r0, r4
    17f4:	0000000c 	andeq	r0, r0, ip
    17f8:	00510001 	subseq	r0, r1, r1
    17fc:	00000000 	andeq	r0, r0, r0
    1800:	24000000 	strcs	r0, [r0], #-0
    1804:	2c000000 	stccs	0, cr0, [r0], {-0}
    1808:	02000000 	andeq	r0, r0, #0
    180c:	2c007d00 	stccs	13, cr7, [r0], {-0}
    1810:	8c000000 	stchi	0, cr0, [r0], {-0}
    1814:	02000000 	andeq	r0, r0, #0
    1818:	00047d00 	andeq	r7, r4, r0, lsl #26
    181c:	00000000 	andeq	r0, r0, r0
    1820:	24000000 	strcs	r0, [r0], #-0
    1824:	50000000 	andpl	r0, r0, r0
    1828:	01000000 	mrseq	r0, (UNDEF: 0)
    182c:	00585100 	subseq	r5, r8, r0, lsl #2
    1830:	00700000 	rsbseq	r0, r0, r0
    1834:	00010000 	andeq	r0, r1, r0
    1838:	00000051 	andeq	r0, r0, r1, asr r0
    183c:	00000000 	andeq	r0, r0, r0
    1840:	00002400 	andeq	r2, r0, r0, lsl #8
    1844:	00005000 	andeq	r5, r0, r0
    1848:	52000100 	andpl	r0, r0, #0
    184c:	00000058 	andeq	r0, r0, r8, asr r0
    1850:	00000060 	andeq	r0, r0, r0, rrx
    1854:	68520001 	ldmdavs	r2, {r0}^
    1858:	78000000 	stmdavc	r0, {}	; <UNPREDICTABLE>
    185c:	01000000 	mrseq	r0, (UNDEF: 0)
    1860:	00785200 	rsbseq	r5, r8, r0, lsl #4
    1864:	008c0000 	addeq	r0, ip, r0
    1868:	00030000 	andeq	r0, r3, r0
    186c:	009f0174 	addseq	r0, pc, r4, ror r1	; <UNPREDICTABLE>
    1870:	00000000 	andeq	r0, r0, r0
    1874:	30000000 	andcc	r0, r0, r0
    1878:	3c000000 	stccc	0, cr0, [r0], {-0}
    187c:	03000000 	movweq	r0, #0
    1880:	9f7f7200 	svcls	0x007f7200
	...
    188c:	00000030 	andeq	r0, r0, r0, lsr r0
    1890:	0000003c 	andeq	r0, r0, ip, lsr r0
    1894:	00500001 	subseq	r0, r0, r1
    1898:	00000000 	andeq	r0, r0, r0
    189c:	30000000 	andcc	r0, r0, r0
    18a0:	3c000000 	stccc	0, cr0, [r0], {-0}
    18a4:	01000000 	mrseq	r0, (UNDEF: 0)
    18a8:	00005100 	andeq	r5, r0, r0, lsl #2
    18ac:	00000000 	andeq	r0, r0, r0
    18b0:	00580000 	subseq	r0, r8, r0
    18b4:	00780000 	rsbseq	r0, r8, r0
    18b8:	00030000 	andeq	r0, r3, r0
    18bc:	009f7f72 	addseq	r7, pc, r2, ror pc	; <UNPREDICTABLE>
    18c0:	00000000 	andeq	r0, r0, r0
    18c4:	58000000 	stmdapl	r0, {}	; <UNPREDICTABLE>
    18c8:	70000000 	andvc	r0, r0, r0
    18cc:	01000000 	mrseq	r0, (UNDEF: 0)
    18d0:	00005100 	andeq	r5, r0, r0, lsl #2
    18d4:	00000000 	andeq	r0, r0, r0
    18d8:	00580000 	subseq	r0, r8, r0
    18dc:	00780000 	rsbseq	r0, r8, r0
    18e0:	00080000 	andeq	r0, r8, r0
    18e4:	00720070 	rsbseq	r0, r2, r0, ror r0
    18e8:	9f1c3122 	svcls	0x001c3122
	...
    18f4:	00000058 	andeq	r0, r0, r8, asr r0
    18f8:	00000070 	andeq	r0, r0, r0, ror r0
    18fc:	00710008 	rsbseq	r0, r1, r8
    1900:	31220072 	teqcc	r2, r2, ror r0
    1904:	00009f1c 	andeq	r9, r0, ip, lsl pc
    1908:	00000000 	andeq	r0, r0, r0
    190c:	008c0000 	addeq	r0, ip, r0
    1910:	00940000 	addseq	r0, r4, r0
    1914:	00010000 	andeq	r0, r1, r0
    1918:	00009c50 	andeq	r9, r0, r0, asr ip
    191c:	0000ac00 	andeq	sl, r0, r0, lsl #24
    1920:	50000100 	andpl	r0, r0, r0, lsl #2
	...
    192c:	0000008c 	andeq	r0, r0, ip, lsl #1
    1930:	00000098 	muleq	r0, r8, r0
    1934:	00510001 	subseq	r0, r1, r1
    1938:	00000000 	andeq	r0, r0, r0
    193c:	8c000000 	stchi	0, cr0, [r0], {-0}
    1940:	90000000 	andls	r0, r0, r0
    1944:	01000000 	mrseq	r0, (UNDEF: 0)
    1948:	00905200 	addseq	r5, r0, r0, lsl #4
    194c:	009c0000 	addseq	r0, ip, r0
    1950:	00030000 	andeq	r0, r3, r0
    1954:	009f7f72 	addseq	r7, pc, r2, ror pc	; <UNPREDICTABLE>
    1958:	00000000 	andeq	r0, r0, r0
    195c:	90000000 	andls	r0, r0, r0
    1960:	9c000000 	stcls	0, cr0, [r0], {-0}
    1964:	01000000 	mrseq	r0, (UNDEF: 0)
    1968:	009c5000 	addseq	r5, ip, r0
    196c:	00ac0000 	adceq	r0, ip, r0
    1970:	00010000 	andeq	r0, r1, r0
    1974:	00000053 	andeq	r0, r0, r3, asr r0
    1978:	00000000 	andeq	r0, r0, r0
    197c:	0000ac00 	andeq	sl, r0, r0, lsl #24
    1980:	0000b400 	andeq	fp, r0, r0, lsl #8
    1984:	50000100 	andpl	r0, r0, r0, lsl #2
    1988:	000000b4 	strheq	r0, [r0], -r4
    198c:	000000ec 	andeq	r0, r0, ip, ror #1
    1990:	00520001 	subseq	r0, r2, r1
    1994:	00000000 	andeq	r0, r0, r0
    1998:	ac000000 	stcge	0, cr0, [r0], {-0}
    199c:	c0000000 	andgt	r0, r0, r0
    19a0:	01000000 	mrseq	r0, (UNDEF: 0)
    19a4:	00e45100 	rsceq	r5, r4, r0, lsl #2
    19a8:	00ec0000 	rsceq	r0, ip, r0
    19ac:	00010000 	andeq	r0, r1, r0
    19b0:	00000051 	andeq	r0, r0, r1, asr r0
    19b4:	00000000 	andeq	r0, r0, r0
    19b8:	0000ac00 	andeq	sl, r0, r0, lsl #24
    19bc:	0000c000 	andeq	ip, r0, r0
    19c0:	30000200 	andcc	r0, r0, r0, lsl #4
    19c4:	0000cc9f 	muleq	r0, pc, ip	; <UNPREDICTABLE>
    19c8:	0000d400 	andeq	sp, r0, r0, lsl #8
    19cc:	53000100 	movwpl	r0, #256	; 0x100
    19d0:	000000e4 	andeq	r0, r0, r4, ror #1
    19d4:	000000ec 	andeq	r0, r0, ip, ror #1
    19d8:	9f300002 	svcls	0x00300002
	...
    19e4:	000000ec 	andeq	r0, r0, ip, ror #1
    19e8:	00000100 	andeq	r0, r0, r0, lsl #2
    19ec:	00500001 	subseq	r0, r0, r1
    19f0:	04000001 	streq	r0, [r0], #-1
    19f4:	01000001 	tsteq	r0, r1
    19f8:	01045200 	mrseq	r5, R12_usr
    19fc:	010c0000 	mrseq	r0, (UNDEF: 12)
    1a00:	00010000 	andeq	r0, r1, r0
    1a04:	00010c53 	andeq	r0, r1, r3, asr ip
    1a08:	00011400 	andeq	r1, r1, r0, lsl #8
    1a0c:	52000100 	andpl	r0, r0, #0
    1a10:	00000114 	andeq	r0, r0, r4, lsl r1
    1a14:	00000124 	andeq	r0, r0, r4, lsr #2
    1a18:	24530001 	ldrbcs	r0, [r3], #-1
    1a1c:	28000001 	stmdacs	r0, {r0}
    1a20:	01000001 	tsteq	r0, r1
    1a24:	01285000 	teqeq	r8, r0
    1a28:	01300000 	teqeq	r0, r0
    1a2c:	00010000 	andeq	r0, r1, r0
    1a30:	00013053 	andeq	r3, r1, r3, asr r0
    1a34:	00013800 	andeq	r3, r1, r0, lsl #16
    1a38:	50000100 	andpl	r0, r0, r0, lsl #2
    1a3c:	00000138 	andeq	r0, r0, r8, lsr r1
    1a40:	00000148 	andeq	r0, r0, r8, asr #2
    1a44:	00530001 	subseq	r0, r3, r1
    1a48:	00000000 	andeq	r0, r0, r0
    1a4c:	ec000000 	stc	0, cr0, [r0], {-0}
    1a50:	24000000 	strcs	r0, [r0], #-0
    1a54:	01000001 	tsteq	r0, r1
    1a58:	00005100 	andeq	r5, r0, r0, lsl #2
    1a5c:	00000000 	andeq	r0, r0, r0
    1a60:	01480000 	mrseq	r0, (UNDEF: 72)
    1a64:	01500000 	cmpeq	r0, r0
    1a68:	00020000 	andeq	r0, r2, r0
    1a6c:	0150007d 	cmpeq	r0, sp, ror r0
    1a70:	01a40000 			; <UNDEFINED> instruction: 0x01a40000
    1a74:	00020000 	andeq	r0, r2, r0
    1a78:	0000047d 	andeq	r0, r0, sp, ror r4
    1a7c:	00000000 	andeq	r0, r0, r0
    1a80:	01480000 	mrseq	r0, (UNDEF: 72)
    1a84:	01680000 	cmneq	r8, r0
    1a88:	00010000 	andeq	r0, r1, r0
    1a8c:	00016850 	andeq	r6, r1, r0, asr r8
    1a90:	00017000 	andeq	r7, r1, r0
    1a94:	53000100 	movwpl	r0, #256	; 0x100
    1a98:	0000019c 	muleq	r0, ip, r1
    1a9c:	000001a0 	andeq	r0, r0, r0, lsr #3
    1aa0:	00500001 	subseq	r0, r0, r1
    1aa4:	00000000 	andeq	r0, r0, r0
    1aa8:	48000000 	stmdami	r0, {}	; <UNPREDICTABLE>
    1aac:	6c000001 	stcvs	0, cr0, [r0], {1}
    1ab0:	01000001 	tsteq	r0, r1
    1ab4:	019c5200 	orrseq	r5, ip, r0, lsl #4
    1ab8:	01a40000 			; <UNDEFINED> instruction: 0x01a40000
    1abc:	00010000 	andeq	r0, r1, r0
    1ac0:	00000052 	andeq	r0, r0, r2, asr r0
    1ac4:	00000000 	andeq	r0, r0, r0
    1ac8:	00014c00 	andeq	r4, r1, r0, lsl #24
    1acc:	00016800 	andeq	r6, r1, r0, lsl #16
    1ad0:	50000100 	andpl	r0, r0, r0, lsl #2
    1ad4:	00000168 	andeq	r0, r0, r8, ror #2
    1ad8:	00000170 	andeq	r0, r0, r0, ror r1
    1adc:	9c530001 	mrrcls	0, 0, r0, r3, cr1
    1ae0:	a0000001 	andge	r0, r0, r1
    1ae4:	01000001 	tsteq	r0, r1
    1ae8:	00005000 	andeq	r5, r0, r0
    1aec:	00000000 	andeq	r0, r0, r0
    1af0:	01a40000 			; <UNDEFINED> instruction: 0x01a40000
    1af4:	01c40000 	biceq	r0, r4, r0
    1af8:	00010000 	andeq	r0, r1, r0
    1afc:	0001c850 	andeq	ip, r1, r0, asr r8
    1b00:	0001cc00 	andeq	ip, r1, r0, lsl #24
    1b04:	50000100 	andpl	r0, r0, r0, lsl #2
	...
    1b10:	000001a4 	andeq	r0, r0, r4, lsr #3
    1b14:	000001b4 			; <UNDEFINED> instruction: 0x000001b4
    1b18:	b4500001 	ldrblt	r0, [r0], #-1
    1b1c:	b8000001 	stmdalt	r0, {r0}
    1b20:	01000001 	tsteq	r0, r1
    1b24:	01b85300 			; <UNDEFINED> instruction: 0x01b85300
    1b28:	01c80000 	biceq	r0, r8, r0
    1b2c:	00030000 	andeq	r0, r3, r0
    1b30:	c89f7f73 	ldmgt	pc, {r0, r1, r4, r5, r6, r8, r9, sl, fp, ip, sp, lr}	; <UNPREDICTABLE>
    1b34:	cc000001 	stcgt	0, cr0, [r0], {1}
    1b38:	01000001 	tsteq	r0, r1
    1b3c:	00005000 	andeq	r5, r0, r0
    1b40:	00000000 	andeq	r0, r0, r0
    1b44:	01d00000 	bicseq	r0, r0, r0
    1b48:	01d80000 	bicseq	r0, r8, r0
    1b4c:	00020000 	andeq	r0, r2, r0
    1b50:	01d8007d 	bicseq	r0, r8, sp, ror r0
    1b54:	02480000 	subeq	r0, r8, #0
    1b58:	00020000 	andeq	r0, r2, r0
    1b5c:	0000047d 	andeq	r0, r0, sp, ror r4
    1b60:	00000000 	andeq	r0, r0, r0
    1b64:	01d00000 	bicseq	r0, r0, r0
    1b68:	02280000 	eoreq	r0, r8, #0
    1b6c:	00010000 	andeq	r0, r1, r0
    1b70:	00023050 	andeq	r3, r2, r0, asr r0
    1b74:	00023400 	andeq	r3, r2, r0, lsl #8
    1b78:	50000100 	andpl	r0, r0, r0, lsl #2
    1b7c:	00000238 	andeq	r0, r0, r8, lsr r2
    1b80:	0000023c 	andeq	r0, r0, ip, lsr r2
    1b84:	40500001 	subsmi	r0, r0, r1
    1b88:	44000002 	strmi	r0, [r0], #-2
    1b8c:	01000002 	tsteq	r0, r2
    1b90:	00005000 	andeq	r5, r0, r0
    1b94:	00000000 	andeq	r0, r0, r0
    1b98:	01d00000 	bicseq	r0, r0, r0
    1b9c:	01d40000 	bicseq	r0, r4, r0
    1ba0:	00010000 	andeq	r0, r1, r0
    1ba4:	0001d452 	andeq	sp, r1, r2, asr r4
    1ba8:	0001f400 	andeq	pc, r1, r0, lsl #8
    1bac:	72000300 	andvc	r0, r0, #0
    1bb0:	01f49f7f 	mvnseq	r9, pc, ror pc
    1bb4:	01fc0000 	mvnseq	r0, r0
    1bb8:	00010000 	andeq	r0, r1, r0
    1bbc:	00024052 	andeq	r4, r2, r2, asr r0
    1bc0:	00024800 	andeq	r4, r2, r0, lsl #16
    1bc4:	72000300 	andvc	r0, r0, #0
    1bc8:	00009f7f 	andeq	r9, r0, pc, ror pc
    1bcc:	00000000 	andeq	r0, r0, r0
    1bd0:	01d40000 	bicseq	r0, r4, r0
    1bd4:	01fc0000 	mvnseq	r0, r0
    1bd8:	00010000 	andeq	r0, r1, r0
    1bdc:	00024050 	andeq	r4, r2, r0, asr r0
    1be0:	00024400 	andeq	r4, r2, r0, lsl #8
    1be4:	50000100 	andpl	r0, r0, r0, lsl #2
	...
    1bf0:	000001d4 	ldrdeq	r0, [r0], -r4
    1bf4:	000001fc 	strdeq	r0, [r0], -ip
    1bf8:	40510001 	subsmi	r0, r1, r1
    1bfc:	48000002 	stmdami	r0, {r1}
    1c00:	01000002 	tsteq	r0, r2
    1c04:	00005100 	andeq	r5, r0, r0, lsl #2
    1c08:	00000000 	andeq	r0, r0, r0
    1c0c:	02480000 	subeq	r0, r8, #0
    1c10:	02740000 	rsbseq	r0, r4, #0
    1c14:	00010000 	andeq	r0, r1, r0
    1c18:	00000050 	andeq	r0, r0, r0, asr r0
    1c1c:	00000000 	andeq	r0, r0, r0
    1c20:	0002cc00 	andeq	ip, r2, r0, lsl #24
    1c24:	0002d000 	andeq	sp, r2, r0
    1c28:	7d000200 	sfmvc	f0, 4, [r0, #-0]
    1c2c:	0002d000 	andeq	sp, r2, r0
    1c30:	0003a400 	andeq	sl, r3, r0, lsl #8
    1c34:	7d000200 	sfmvc	f0, 4, [r0, #-0]
    1c38:	00000010 	andeq	r0, r0, r0, lsl r0
    1c3c:	00000000 	andeq	r0, r0, r0
    1c40:	0002cc00 	andeq	ip, r2, r0, lsl #24
    1c44:	00031000 	andeq	r1, r3, r0
    1c48:	50000100 	andpl	r0, r0, r0, lsl #2
    1c4c:	00000390 	muleq	r0, r0, r3
    1c50:	000003a4 	andeq	r0, r0, r4, lsr #7
    1c54:	00500001 	subseq	r0, r0, r1
    1c58:	00000000 	andeq	r0, r0, r0
    1c5c:	cc000000 	stcgt	0, cr0, [r0], {-0}
    1c60:	10000002 	andne	r0, r0, r2
    1c64:	01000003 	tsteq	r0, r3
    1c68:	03905100 	orrseq	r5, r0, #0
    1c6c:	03a40000 			; <UNDEFINED> instruction: 0x03a40000
    1c70:	00010000 	andeq	r0, r1, r0
    1c74:	00000051 	andeq	r0, r0, r1, asr r0
    1c78:	00000000 	andeq	r0, r0, r0
    1c7c:	0002cc00 	andeq	ip, r2, r0, lsl #24
    1c80:	0002f000 	andeq	pc, r2, r0
    1c84:	52000100 	andpl	r0, r0, #0
    1c88:	000002f0 	strdeq	r0, [r0], -r0	; <UNPREDICTABLE>
    1c8c:	00000310 	andeq	r0, r0, r0, lsl r3
    1c90:	10550001 	subsne	r0, r5, r1
    1c94:	78000003 	stmdavc	r0, {r0, r1}
    1c98:	01000003 	tsteq	r0, r3
    1c9c:	03905200 	orrseq	r5, r0, #0
    1ca0:	03980000 	orrseq	r0, r8, #0
    1ca4:	00010000 	andeq	r0, r1, r0
    1ca8:	00039852 	andeq	r9, r3, r2, asr r8
    1cac:	0003a400 	andeq	sl, r3, r0, lsl #8
    1cb0:	55000100 	strpl	r0, [r0, #-256]	; 0x100
	...
    1cbc:	000003a4 	andeq	r0, r0, r4, lsr #7
    1cc0:	000003bc 			; <UNDEFINED> instruction: 0x000003bc
    1cc4:	e0500001 	subs	r0, r0, r1
    1cc8:	e4000003 	str	r0, [r0], #-3
    1ccc:	01000003 	tsteq	r0, r3
    1cd0:	00005000 	andeq	r5, r0, r0
    1cd4:	00000000 	andeq	r0, r0, r0
    1cd8:	03a40000 			; <UNDEFINED> instruction: 0x03a40000
    1cdc:	03c40000 	biceq	r0, r4, #0
    1ce0:	00010000 	andeq	r0, r1, r0
    1ce4:	0003c450 	andeq	ip, r3, r0, asr r4
    1ce8:	0003cc00 	andeq	ip, r3, r0, lsl #24
    1cec:	70000300 	andvc	r0, r0, r0, lsl #6
    1cf0:	03cc9f01 	biceq	r9, ip, #4
    1cf4:	03d80000 	bicseq	r0, r8, #0
    1cf8:	00010000 	andeq	r0, r1, r0
    1cfc:	0003dc50 	andeq	sp, r3, r0, asr ip
    1d00:	0003e400 	andeq	lr, r3, r0, lsl #8
    1d04:	50000100 	andpl	r0, r0, r0, lsl #2
	...
    1d10:	000003e8 	andeq	r0, r0, r8, ror #7
    1d14:	000003ec 	andeq	r0, r0, ip, ror #7
    1d18:	007d0002 	rsbseq	r0, sp, r2
    1d1c:	000003ec 	andeq	r0, r0, ip, ror #7
    1d20:	0000049c 	muleq	r0, ip, r4
    1d24:	047d0002 	ldrbteq	r0, [sp], #-2
	...
    1d30:	000003e8 	andeq	r0, r0, r8, ror #7
    1d34:	00000414 	andeq	r0, r0, r4, lsl r4
    1d38:	74500001 	ldrbvc	r0, [r0], #-1
    1d3c:	8c000004 	stchi	0, cr0, [r0], {4}
    1d40:	01000004 	tsteq	r0, r4
    1d44:	04905000 	ldreq	r5, [r0], #0
    1d48:	049c0000 	ldreq	r0, [ip], #0
    1d4c:	00010000 	andeq	r0, r1, r0
    1d50:	00000050 	andeq	r0, r0, r0, asr r0
    1d54:	00000000 	andeq	r0, r0, r0
    1d58:	0003e800 	andeq	lr, r3, r0, lsl #16
    1d5c:	00041800 	andeq	r1, r4, r0, lsl #16
    1d60:	30000200 	andcc	r0, r0, r0, lsl #4
    1d64:	00041c9f 	muleq	r4, pc, ip	; <UNPREDICTABLE>
    1d68:	00042800 	andeq	r2, r4, r0, lsl #16
    1d6c:	50000100 	andpl	r0, r0, r0, lsl #2
    1d70:	00000454 	andeq	r0, r0, r4, asr r4
    1d74:	0000045c 	andeq	r0, r0, ip, asr r4
    1d78:	70500001 	subsvc	r0, r0, r1
    1d7c:	74000004 	strvc	r0, [r0], #-4
    1d80:	01000004 	tsteq	r0, r4
    1d84:	04745000 	ldrbteq	r5, [r4], #-0
    1d88:	049c0000 	ldreq	r0, [ip], #0
    1d8c:	00020000 	andeq	r0, r2, r0
    1d90:	00009f30 	andeq	r9, r0, r0, lsr pc
    1d94:	00000000 	andeq	r0, r0, r0
    1d98:	03e80000 	mvneq	r0, #0
    1d9c:	04000000 	streq	r0, [r0], #-0
    1da0:	00020000 	andeq	r0, r2, r0
    1da4:	04009f30 	streq	r9, [r0], #-3888	; 0xf30
    1da8:	040c0000 	streq	r0, [ip], #-0
    1dac:	00010000 	andeq	r0, r1, r0
    1db0:	00047452 	andeq	r7, r4, r2, asr r4
    1db4:	00048800 	andeq	r8, r4, r0, lsl #16
    1db8:	30000200 	andcc	r0, r0, r0, lsl #4
    1dbc:	0004889f 	muleq	r4, pc, r8	; <UNPREDICTABLE>
    1dc0:	00049000 	andeq	r9, r4, r0
    1dc4:	52000100 	andpl	r0, r0, #0
    1dc8:	00000490 	muleq	r0, r0, r4
    1dcc:	0000049c 	muleq	r0, ip, r4
    1dd0:	9f300002 	svcls	0x00300002
	...
    1ddc:	0000049c 	muleq	r0, ip, r4
    1de0:	000004ac 	andeq	r0, r0, ip, lsr #9
    1de4:	007d0002 	rsbseq	r0, sp, r2
    1de8:	000004ac 	andeq	r0, r0, ip, lsr #9
    1dec:	00000504 	andeq	r0, r0, r4, lsl #10
    1df0:	087d0002 	ldmdaeq	sp!, {r1}^
	...
    1dfc:	0000049c 	muleq	r0, ip, r4
    1e00:	000004ac 	andeq	r0, r0, ip, lsr #9
    1e04:	9f300002 	svcls	0x00300002
	...
    1e10:	0000049c 	muleq	r0, ip, r4
    1e14:	000004ac 	andeq	r0, r0, ip, lsr #9
    1e18:	9f300002 	svcls	0x00300002
    1e1c:	000004d0 	ldrdeq	r0, [r0], -r0	; <UNPREDICTABLE>
    1e20:	000004ec 	andeq	r0, r0, ip, ror #9
    1e24:	005c0001 	subseq	r0, ip, r1
    1e28:	00000000 	andeq	r0, r0, r0
    1e2c:	04000000 	streq	r0, [r0], #-0
    1e30:	28000005 	stmdacs	r0, {r0, r2}
    1e34:	01000005 	tsteq	r0, r5
    1e38:	05505000 	ldrbeq	r5, [r0, #-0]
    1e3c:	05540000 	ldrbeq	r0, [r4, #-0]
    1e40:	00010000 	andeq	r0, r1, r0
    1e44:	00000050 	andeq	r0, r0, r0, asr r0
    1e48:	00000000 	andeq	r0, r0, r0
    1e4c:	00050400 	andeq	r0, r5, r0, lsl #8
    1e50:	00052800 	andeq	r2, r5, r0, lsl #16
    1e54:	30000200 	andcc	r0, r0, r0, lsl #4
    1e58:	0005389f 	muleq	r5, pc, r8	; <UNPREDICTABLE>
    1e5c:	00054000 	andeq	r4, r5, r0
    1e60:	50000100 	andpl	r0, r0, r0, lsl #2
    1e64:	00000550 	andeq	r0, r0, r0, asr r5
    1e68:	00000558 	andeq	r0, r0, r8, asr r5
    1e6c:	9f300002 	svcls	0x00300002
	...
    1e78:	00000504 	andeq	r0, r0, r4, lsl #10
    1e7c:	00000514 	andeq	r0, r0, r4, lsl r5
    1e80:	9f300002 	svcls	0x00300002
    1e84:	00000514 	andeq	r0, r0, r4, lsl r5
    1e88:	00000528 	andeq	r0, r0, r8, lsr #10
    1e8c:	505c0001 	subspl	r0, ip, r1
    1e90:	58000005 	stmdapl	r0, {r0, r2}
    1e94:	01000005 	tsteq	r0, r5
    1e98:	00005c00 	andeq	r5, r0, r0, lsl #24
    1e9c:	00000000 	andeq	r0, r0, r0
    1ea0:	00080000 	andeq	r0, r8, r0
    1ea4:	00100000 	andseq	r0, r0, r0
    1ea8:	00010000 	andeq	r0, r1, r0
    1eac:	00001050 	andeq	r1, r0, r0, asr r0
    1eb0:	00001300 	andeq	r1, r0, r0, lsl #6
    1eb4:	51000100 	mrspl	r0, (UNDEF: 16)
	...
    1ec4:	00000014 	andeq	r0, r0, r4, lsl r0
    1ec8:	00500001 	subseq	r0, r0, r1
    1ecc:	00000000 	andeq	r0, r0, r0
    1ed0:	2c000000 	stccs	0, cr0, [r0], {-0}
    1ed4:	40000000 	andmi	r0, r0, r0
    1ed8:	01000000 	mrseq	r0, (UNDEF: 0)
    1edc:	00005000 	andeq	r5, r0, r0
    1ee0:	00000000 	andeq	r0, r0, r0
    1ee4:	00580000 	subseq	r0, r8, r0
    1ee8:	006c0000 	rsbeq	r0, ip, r0
    1eec:	00010000 	andeq	r0, r1, r0
    1ef0:	00006c50 	andeq	r6, r0, r0, asr ip
    1ef4:	00007000 	andeq	r7, r0, r0
    1ef8:	53000100 	movwpl	r0, #256	; 0x100
    1efc:	00000078 	andeq	r0, r0, r8, ror r0
    1f00:	0000007c 	andeq	r0, r0, ip, ror r0
    1f04:	7c500001 	mrrcvc	0, 0, r0, r0, cr1	; <UNPREDICTABLE>
    1f08:	84000000 	strhi	r0, [r0], #-0
    1f0c:	01000000 	mrseq	r0, (UNDEF: 0)
    1f10:	00005300 	andeq	r5, r0, r0, lsl #6
    1f14:	00000000 	andeq	r0, r0, r0
    1f18:	00580000 	subseq	r0, r8, r0
    1f1c:	00680000 	rsbeq	r0, r8, r0
    1f20:	00010000 	andeq	r0, r1, r0
    1f24:	00007852 	andeq	r7, r0, r2, asr r8
    1f28:	00008400 	andeq	r8, r0, r0, lsl #8
    1f2c:	52000100 	andpl	r0, r0, #0
	...
    1f38:	00000058 	andeq	r0, r0, r8, asr r0
    1f3c:	00000074 	andeq	r0, r0, r4, ror r0
    1f40:	fd090003 	stc2	0, cr0, [r9, #-12]
    1f44:	0000749f 	muleq	r0, pc, r4	; <UNPREDICTABLE>
    1f48:	00007800 	andeq	r7, r0, r0, lsl #16
    1f4c:	30000200 	andcc	r0, r0, r0, lsl #4
    1f50:	0000789f 	muleq	r0, pc, r8	; <UNPREDICTABLE>
    1f54:	00007c00 	andeq	r7, r0, r0, lsl #24
    1f58:	09000300 	stmdbeq	r0, {r8, r9}
    1f5c:	007c9ffd 	ldrshteq	r9, [ip], #-253	; 0xffffff03
    1f60:	00840000 	addeq	r0, r4, r0
    1f64:	00010000 	andeq	r0, r1, r0
    1f68:	00000050 	andeq	r0, r0, r0, asr r0
    1f6c:	00000000 	andeq	r0, r0, r0
    1f70:	00008400 	andeq	r8, r0, r0, lsl #8
    1f74:	00009000 	andeq	r9, r0, r0
    1f78:	7d000200 	sfmvc	f0, 4, [r0, #-0]
    1f7c:	00009000 	andeq	r9, r0, r0
    1f80:	00035000 	andeq	r5, r3, r0
    1f84:	7d000200 	sfmvc	f0, 4, [r0, #-0]
    1f88:	00000010 	andeq	r0, r0, r0, lsl r0
    1f8c:	00000000 	andeq	r0, r0, r0
    1f90:	00008400 	andeq	r8, r0, r0, lsl #8
    1f94:	0000f400 	andeq	pc, r0, r0, lsl #8
    1f98:	09000300 	stmdbeq	r0, {r8, r9}
    1f9c:	01349fff 			; <UNDEFINED> instruction: 0x01349fff
    1fa0:	01440000 	mrseq	r0, (UNDEF: 68)
    1fa4:	00020000 	andeq	r0, r2, r0
    1fa8:	01449f30 	cmpeq	r4, r0, lsr pc
    1fac:	016c0000 	cmneq	ip, r0
    1fb0:	00030000 	andeq	r0, r3, r0
    1fb4:	009fff09 	addseq	pc, pc, r9, lsl #30
    1fb8:	00000000 	andeq	r0, r0, r0
    1fbc:	84000000 	strhi	r0, [r0], #-0
    1fc0:	94000000 	strls	r0, [r0], #-0
    1fc4:	02000000 	andeq	r0, r0, #0
    1fc8:	349f3000 	ldrcc	r3, [pc], #0	; 1fd0 <LOADER_PHYS_START-0x3fffe030>
    1fcc:	38000001 	stmdacc	r0, {r0}
    1fd0:	02000001 	andeq	r0, r0, #1
    1fd4:	389f3100 	ldmcc	pc, {r8, ip, sp}	; <UNPREDICTABLE>
    1fd8:	3c000001 	stccc	0, cr0, [r0], {1}
    1fdc:	02000001 	andeq	r0, r0, #1
    1fe0:	3c9f3200 	lfmcc	f3, 4, [pc], {0}
    1fe4:	40000001 	andmi	r0, r0, r1
    1fe8:	02000001 	andeq	r0, r0, #1
    1fec:	409f3300 	addsmi	r3, pc, r0, lsl #6
    1ff0:	44000001 	strmi	r0, [r0], #-1
    1ff4:	02000001 	andeq	r0, r0, #1
    1ff8:	009f3400 	addseq	r3, pc, r0, lsl #8
    1ffc:	00000000 	andeq	r0, r0, r0
    2000:	a4000000 	strge	r0, [r0], #-0
    2004:	d8000000 	stmdale	r0, {}	; <UNPREDICTABLE>
    2008:	01000000 	mrseq	r0, (UNDEF: 0)
    200c:	01445400 	cmpeq	r4, r0, lsl #8
    2010:	01480000 	mrseq	r0, (UNDEF: 72)
    2014:	00010000 	andeq	r0, r1, r0
    2018:	00000054 	andeq	r0, r0, r4, asr r0
    201c:	00000000 	andeq	r0, r0, r0
    2020:	0000a000 	andeq	sl, r0, r0
    2024:	0000f400 	andeq	pc, r0, r0, lsl #8
    2028:	09000300 	stmdbeq	r0, {r8, r9}
    202c:	00f49fff 	ldrshteq	r9, [r4], #255	; 0xff
    2030:	01100000 	tsteq	r0, r0
    2034:	00030000 	andeq	r0, r3, r0
    2038:	449ffe09 	ldrmi	pc, [pc], #3593	; 2040 <LOADER_PHYS_START-0x3fffdfc0>
    203c:	6c000001 	stcvs	0, cr0, [r0], {1}
    2040:	03000001 	movweq	r0, #1
    2044:	9fff0900 	svcls	0x00ff0900
    2048:	0000016c 	andeq	r0, r0, ip, ror #2
    204c:	00000350 	andeq	r0, r0, r0, asr r3
    2050:	9f300002 	svcls	0x00300002
	...
    205c:	000002e0 	andeq	r0, r0, r0, ror #5
    2060:	000002eb 	andeq	r0, r0, fp, ror #5
    2064:	0403000a 	streq	r0, [r3], #-10
    2068:	0640003a 			; <UNDEFINED> instruction: 0x0640003a
    206c:	9f028023 	svcls	0x00028023
    2070:	000002f8 	strdeq	r0, [r0], -r8
    2074:	00000303 	andeq	r0, r0, r3, lsl #6
    2078:	0403000a 	streq	r0, [r3], #-10
    207c:	0640003a 			; <UNDEFINED> instruction: 0x0640003a
    2080:	9f038023 	svcls	0x00038023
	...
    208c:	00000350 	andeq	r0, r0, r0, asr r3
    2090:	00000354 	andeq	r0, r0, r4, asr r3
    2094:	007d0002 	rsbseq	r0, sp, r2
    2098:	00000354 	andeq	r0, r0, r4, asr r3
    209c:	00000358 	andeq	r0, r0, r8, asr r3
    20a0:	0c7d0002 	ldcleq	0, cr0, [sp], #-8
    20a4:	00000358 	andeq	r0, r0, r8, asr r3
    20a8:	00000414 	andeq	r0, r0, r4, lsl r4
    20ac:	187d0002 	ldmdane	sp!, {r1}^
	...
    20b8:	00000350 	andeq	r0, r0, r0, asr r3
    20bc:	00000394 	muleq	r0, r4, r3
    20c0:	b8500001 	ldmdalt	r0, {r0}^
    20c4:	bc000003 	stclt	0, cr0, [r0], {3}
    20c8:	01000003 	tsteq	r0, r3
    20cc:	00005000 	andeq	r5, r0, r0
    20d0:	00000000 	andeq	r0, r0, r0
    20d4:	03500000 	cmpeq	r0, #0
    20d8:	037c0000 	cmneq	ip, #0
    20dc:	00010000 	andeq	r0, r1, r0
    20e0:	0003b851 	andeq	fp, r3, r1, asr r8
    20e4:	0003c300 	andeq	ip, r3, r0, lsl #6
    20e8:	51000100 	mrspl	r0, (UNDEF: 16)
	...
    20f4:	0000036c 	andeq	r0, r0, ip, ror #6
    20f8:	00000370 	andeq	r0, r0, r0, ror r3
    20fc:	00540001 	subseq	r0, r4, r1
    2100:	00000000 	andeq	r0, r0, r0
    2104:	50000000 	andpl	r0, r0, r0
    2108:	94000003 	strls	r0, [r0], #-3
    210c:	01000003 	tsteq	r0, r3
    2110:	03b85100 			; <UNDEFINED> instruction: 0x03b85100
    2114:	03c30000 	biceq	r0, r3, #0
    2118:	00010000 	andeq	r0, r1, r0
    211c:	00000051 	andeq	r0, r0, r1, asr r0
	...
    2128:	00000400 	andeq	r0, r0, r0, lsl #8
    212c:	7d000200 	sfmvc	f0, 4, [r0, #-0]
    2130:	00000400 	andeq	r0, r0, r0, lsl #8
    2134:	0000e400 	andeq	lr, r0, r0, lsl #8
    2138:	7d000200 	sfmvc	f0, 4, [r0, #-0]
    213c:	00000010 	andeq	r0, r0, r0, lsl r0
	...
    2148:	00002000 	andeq	r2, r0, r0
    214c:	50000100 	andpl	r0, r0, r0, lsl #2
    2150:	00000074 	andeq	r0, r0, r4, ror r0
    2154:	0000008b 	andeq	r0, r0, fp, lsl #1
    2158:	00530001 	subseq	r0, r3, r1
    215c:	00000000 	andeq	r0, r0, r0
    2160:	0c000000 	stceq	0, cr0, [r0], {-0}
    2164:	20000000 	andcs	r0, r0, r0
    2168:	01000000 	mrseq	r0, (UNDEF: 0)
    216c:	00205000 	eoreq	r5, r0, r0
    2170:	008b0000 	addeq	r0, fp, r0
    2174:	00010000 	andeq	r0, r1, r0
    2178:	00000053 	andeq	r0, r0, r3, asr r0
    217c:	00000000 	andeq	r0, r0, r0
    2180:	00008000 	andeq	r8, r0, r0
    2184:	00008b00 	andeq	r8, r0, r0, lsl #22
    2188:	53000100 	movwpl	r0, #256	; 0x100
	...
    2194:	0000008c 	andeq	r0, r0, ip, lsl #1
    2198:	0000009c 	muleq	r0, ip, r0
    219c:	9c500001 	mrrcls	0, 0, r0, r0, cr1	; <UNPREDICTABLE>
    21a0:	b0000000 	andlt	r0, r0, r0
    21a4:	03000000 	movweq	r0, #0
    21a8:	9f737000 	svcls	0x00737000
	...
    21b4:	000000e4 	andeq	r0, r0, r4, ror #1
    21b8:	000000e8 	andeq	r0, r0, r8, ror #1
    21bc:	007d0002 	rsbseq	r0, sp, r2
    21c0:	000000e8 	andeq	r0, r0, r8, ror #1
    21c4:	00000110 	andeq	r0, r0, r0, lsl r1
    21c8:	087d0002 	ldmdaeq	sp!, {r1}^
	...
    21d8:	00000008 	andeq	r0, r0, r8
    21dc:	00500001 	subseq	r0, r0, r1
	...
    21e8:	08000000 	stmdaeq	r0, {}	; <UNPREDICTABLE>
    21ec:	01000000 	mrseq	r0, (UNDEF: 0)
    21f0:	00005200 	andeq	r5, r0, r0, lsl #4
    21f4:	00000000 	andeq	r0, r0, r0
    21f8:	00040000 	andeq	r0, r4, r0
    21fc:	00080000 	andeq	r0, r8, r0
    2200:	00010000 	andeq	r0, r1, r0
    2204:	00000050 	andeq	r0, r0, r0, asr r0
    2208:	00000000 	andeq	r0, r0, r0
    220c:	00001c00 	andeq	r1, r0, r0, lsl #24
    2210:	00002000 	andeq	r2, r0, r0
    2214:	7d000200 	sfmvc	f0, 4, [r0, #-0]
    2218:	00002000 	andeq	r2, r0, r0
    221c:	0000d800 	andeq	sp, r0, r0, lsl #16
    2220:	7d000200 	sfmvc	f0, 4, [r0, #-0]
    2224:	00000008 	andeq	r0, r0, r8
    2228:	00000000 	andeq	r0, r0, r0
    222c:	00001c00 	andeq	r1, r0, r0, lsl #24
    2230:	00002800 	andeq	r2, r0, r0, lsl #16
    2234:	50000100 	andpl	r0, r0, r0, lsl #2
    2238:	00000028 	andeq	r0, r0, r8, lsr #32
    223c:	000000d8 	ldrdeq	r0, [r0], -r8
    2240:	00540001 	subseq	r0, r4, r1
    2244:	00000000 	andeq	r0, r0, r0
    2248:	68000000 	stmdavs	r0, {}	; <UNPREDICTABLE>
    224c:	74000000 	strvc	r0, [r0], #-0
    2250:	01000000 	mrseq	r0, (UNDEF: 0)
    2254:	00005200 	andeq	r5, r0, r0, lsl #4
    2258:	00000000 	andeq	r0, r0, r0
    225c:	005c0000 	subseq	r0, ip, r0
    2260:	00600000 	rsbeq	r0, r0, r0
    2264:	00010000 	andeq	r0, r1, r0
    2268:	00000050 	andeq	r0, r0, r0, asr r0
    226c:	00000000 	andeq	r0, r0, r0
    2270:	00007000 	andeq	r7, r0, r0
    2274:	00009000 	andeq	r9, r0, r0
    2278:	0c000600 	stceq	6, cr0, [r0], {-0}
    227c:	40000000 	andmi	r0, r0, r0
    2280:	0000009f 	muleq	r0, pc, r0	; <UNPREDICTABLE>
    2284:	00000000 	andeq	r0, r0, r0
    2288:	00007000 	andeq	r7, r0, r0
    228c:	00008000 	andeq	r8, r0, r0
    2290:	0c000600 	stceq	6, cr0, [r0], {-0}
    2294:	40000000 	andmi	r0, r0, r0
    2298:	00008c9f 	muleq	r0, pc, ip	; <UNPREDICTABLE>
    229c:	00009000 	andeq	r9, r0, r0
    22a0:	51000100 	mrspl	r0, (UNDEF: 16)
	...
    22b0:	00000004 	andeq	r0, r0, r4
    22b4:	007d0002 	rsbseq	r0, sp, r2
    22b8:	00000004 	andeq	r0, r0, r4
    22bc:	000000cc 	andeq	r0, r0, ip, asr #1
    22c0:	187d0002 	ldmdane	sp!, {r1}^
	...
    22d0:	00000068 	andeq	r0, r0, r8, rrx
    22d4:	00500001 	subseq	r0, r0, r1
    22d8:	00000000 	andeq	r0, r0, r0
    22dc:	08000000 	stmdaeq	r0, {}	; <UNPREDICTABLE>
    22e0:	68000000 	stmdavs	r0, {}	; <UNPREDICTABLE>
    22e4:	01000000 	mrseq	r0, (UNDEF: 0)
    22e8:	00005000 	andeq	r5, r0, r0
    22ec:	00000000 	andeq	r0, r0, r0
    22f0:	00080000 	andeq	r0, r8, r0
    22f4:	00340000 	eorseq	r0, r4, r0
    22f8:	00020000 	andeq	r0, r2, r0
    22fc:	00009f30 	andeq	r9, r0, r0, lsr pc
    2300:	00000000 	andeq	r0, r0, r0
    2304:	00600000 	rsbeq	r0, r0, r0
    2308:	00680000 	rsbeq	r0, r8, r0
    230c:	00020000 	andeq	r0, r2, r0
    2310:	00849f30 	addeq	r9, r4, r0, lsr pc
    2314:	008c0000 	addeq	r0, ip, r0
    2318:	00010000 	andeq	r0, r1, r0
    231c:	00000055 	andeq	r0, r0, r5, asr r0
	...
    2328:	00000800 	andeq	r0, r0, r0, lsl #16
    232c:	7d000200 	sfmvc	f0, 4, [r0, #-0]
    2330:	00000800 	andeq	r0, r0, r0, lsl #16
    2334:	00007000 	andeq	r7, r0, r0
    2338:	7d000200 	sfmvc	f0, 4, [r0, #-0]
    233c:	00000010 	andeq	r0, r0, r0, lsl r0
	...
    2348:	00001400 	andeq	r1, r0, r0, lsl #8
    234c:	50000100 	andpl	r0, r0, r0, lsl #2
	...
    235c:	00000047 	andeq	r0, r0, r7, asr #32
    2360:	00510001 	subseq	r0, r1, r1
	...
    236c:	47000000 	strmi	r0, [r0, -r0]
    2370:	01000000 	mrseq	r0, (UNDEF: 0)
    2374:	00475200 	subeq	r5, r7, r0, lsl #4
    2378:	00700000 	rsbseq	r0, r0, r0
    237c:	00010000 	andeq	r0, r1, r0
    2380:	00000056 	andeq	r0, r0, r6, asr r0
	...
    238c:	00003400 	andeq	r3, r0, r0, lsl #8
    2390:	30000200 	andcc	r0, r0, r0, lsl #4
    2394:	00003c9f 	muleq	r0, pc, ip	; <UNPREDICTABLE>
    2398:	00005c00 	andeq	r5, r0, r0, lsl #24
    239c:	54000100 	strpl	r0, [r0], #-256	; 0x100
	...
    23a8:	00000084 	andeq	r0, r0, r4, lsl #1
    23ac:	0000008c 	andeq	r0, r0, ip, lsl #1
    23b0:	007d0002 	rsbseq	r0, sp, r2
    23b4:	0000008c 	andeq	r0, r0, ip, lsl #1
    23b8:	000000a8 	andeq	r0, r0, r8, lsr #1
    23bc:	087d0002 	ldmdaeq	sp!, {r1}^
	...
    23c8:	000000bc 	strheq	r0, [r0], -ip
    23cc:	000000c8 	andeq	r0, r0, r8, asr #1
    23d0:	007d0002 	rsbseq	r0, sp, r2
    23d4:	000000c8 	andeq	r0, r0, r8, asr #1
    23d8:	000000cc 	andeq	r0, r0, ip, asr #1
    23dc:	1c7d0002 	ldclne	0, cr0, [sp], #-8
    23e0:	000000cc 	andeq	r0, r0, ip, asr #1
    23e4:	00000450 	andeq	r0, r0, r0, asr r4
    23e8:	a87d0003 	ldmdage	sp!, {r0, r1}^
    23ec:	00000003 	andeq	r0, r0, r3
    23f0:	00000000 	andeq	r0, r0, r0
    23f4:	0001b400 	andeq	fp, r1, r0, lsl #8
    23f8:	0001bc00 	andeq	fp, r1, r0, lsl #24
    23fc:	56000100 	strpl	r0, [r0], -r0, lsl #2
	...
    2408:	000000f4 	strdeq	r0, [r0], -r4
    240c:	00000118 	andeq	r0, r0, r8, lsl r1
    2410:	d4910004 	ldrle	r0, [r1], #4
    2414:	01189f7c 	tsteq	r8, ip, ror pc
    2418:	012c0000 	teqeq	ip, r0
    241c:	00010000 	andeq	r0, r1, r0
    2420:	00012c5c 	andeq	r2, r1, ip, asr ip
    2424:	00013800 	andeq	r3, r1, r0, lsl #16
    2428:	91000400 	tstls	r0, r0, lsl #8
    242c:	389f7cd4 	ldmcc	pc, {r2, r4, r6, r7, sl, fp, ip, sp, lr}	; <UNPREDICTABLE>
    2430:	4c000001 	stcmi	0, cr0, [r0], {1}
    2434:	01000001 	tsteq	r0, r1
    2438:	014c5700 	cmpeq	ip, r0, lsl #14
    243c:	04500000 	ldrbeq	r0, [r0], #-0
    2440:	00040000 	andeq	r0, r4, r0
    2444:	9f7cd491 	svcls	0x007cd491
	...
    2450:	000000f4 	strdeq	r0, [r0], -r4
    2454:	0000012c 	andeq	r0, r0, ip, lsr #2
    2458:	9f300002 	svcls	0x00300002
    245c:	00000154 	andeq	r0, r0, r4, asr r1
    2460:	00000178 	andeq	r0, r0, r8, ror r1
    2464:	9c520001 	mrrcls	0, 0, r0, r2, cr1
    2468:	a4000001 	strge	r0, [r0], #-1
    246c:	02000001 	andeq	r0, r0, #1
    2470:	009f3000 	addseq	r3, pc, r0
    2474:	00000000 	andeq	r0, r0, r0
    2478:	f4000000 	vst4.8	{d0-d3}, [r0], r0
    247c:	2c000000 	stccs	0, cr0, [r0], {-0}
    2480:	02000001 	andeq	r0, r0, #1
    2484:	489f3000 	ldmmi	pc, {ip, sp}	; <UNPREDICTABLE>
    2488:	78000001 	stmdavc	r0, {r0}
    248c:	01000001 	tsteq	r0, r1
    2490:	019c5600 	orrseq	r5, ip, r0, lsl #12
    2494:	01a40000 			; <UNDEFINED> instruction: 0x01a40000
    2498:	00020000 	andeq	r0, r2, r0
    249c:	00009f30 	andeq	r9, r0, r0, lsr pc
    24a0:	00000000 	andeq	r0, r0, r0
    24a4:	00f40000 	rscseq	r0, r4, r0
    24a8:	012c0000 	teqeq	ip, r0
    24ac:	00020000 	andeq	r0, r2, r0
    24b0:	014c9f30 	cmpeq	ip, r0, lsr pc
    24b4:	01780000 	cmneq	r8, r0
    24b8:	00010000 	andeq	r0, r1, r0
    24bc:	00019450 	andeq	r9, r1, r0, asr r4
    24c0:	0001a400 	andeq	sl, r1, r0, lsl #8
    24c4:	30000200 	andcc	r0, r0, r0, lsl #4
    24c8:	0000009f 	muleq	r0, pc, r0	; <UNPREDICTABLE>
    24cc:	00000000 	andeq	r0, r0, r0
    24d0:	0001c000 	andeq	ip, r1, r0
    24d4:	0001c400 	andeq	ip, r1, r0, lsl #8
    24d8:	91000300 	mrsls	r0, LR_irq
    24dc:	01c47ed4 	ldrdeq	r7, [r4, #228]	; 0xe4
    24e0:	04500000 	ldrbeq	r0, [r0], #-0
    24e4:	00010000 	andeq	r0, r1, r0
    24e8:	00000058 	andeq	r0, r0, r8, asr r0
    24ec:	00000000 	andeq	r0, r0, r0
    24f0:	0001c000 	andeq	ip, r1, r0
    24f4:	0001c400 	andeq	ip, r1, r0, lsl #8
    24f8:	30000200 	andcc	r0, r0, r0, lsl #4
    24fc:	0001e09f 	muleq	r1, pc, r0	; <UNPREDICTABLE>
    2500:	0001e800 	andeq	lr, r1, r0, lsl #16
    2504:	57000100 	strpl	r0, [r0, -r0, lsl #2]
	...
    2510:	00000280 	andeq	r0, r0, r0, lsl #5
    2514:	000002b0 			; <UNDEFINED> instruction: 0x000002b0
    2518:	00560001 	subseq	r0, r6, r1
    251c:	00000000 	andeq	r0, r0, r0
    2520:	80000000 	andhi	r0, r0, r0
    2524:	0c000002 	stceq	0, cr0, [r0], {2}
    2528:	04000003 	streq	r0, [r0], #-3
    252c:	7ed49100 	atnvcs	f1, f0
    2530:	0000009f 	muleq	r0, pc, r0	; <UNPREDICTABLE>
    2534:	00000000 	andeq	r0, r0, r0
    2538:	0002c000 	andeq	ip, r2, r0
    253c:	0002d000 	andeq	sp, r2, r0
    2540:	50000100 	andpl	r0, r0, r0, lsl #2
    2544:	000002d0 	ldrdeq	r0, [r0], -r0	; <UNPREDICTABLE>
    2548:	000002ff 	strdeq	r0, [r0], -pc	; <UNPREDICTABLE>
    254c:	00510001 	subseq	r0, r1, r1
    2550:	00000000 	andeq	r0, r0, r0
    2554:	b0000000 	andlt	r0, r0, r0
    2558:	b4000002 	strlt	r0, [r0], #-2
    255c:	01000002 	tsteq	r0, r2
    2560:	02b45000 	adcseq	r5, r4, #0
    2564:	030c0000 	movweq	r0, #49152	; 0xc000
    2568:	00010000 	andeq	r0, r1, r0
    256c:	00000056 	andeq	r0, r0, r6, asr r0
    2570:	00000000 	andeq	r0, r0, r0
    2574:	00028000 	andeq	r8, r2, r0
    2578:	0002d000 	andeq	sp, r2, r0
    257c:	30000200 	andcc	r0, r0, r0, lsl #4
    2580:	0002d89f 	muleq	r2, pc, r8	; <UNPREDICTABLE>
    2584:	0002e800 	andeq	lr, r2, r0, lsl #16
    2588:	53000100 	movwpl	r0, #256	; 0x100
	...
    2594:	00000320 	andeq	r0, r0, r0, lsr #6
    2598:	00000354 	andeq	r0, r0, r4, asr r3
    259c:	00560001 	subseq	r0, r6, r1
    25a0:	00000000 	andeq	r0, r0, r0
    25a4:	20000000 	andcs	r0, r0, r0
    25a8:	54000003 	strpl	r0, [r0], #-3
    25ac:	04000003 	streq	r0, [r0], #-3
    25b0:	7ed49100 	atnvcs	f1, f0
    25b4:	0000009f 	muleq	r0, pc, r0	; <UNPREDICTABLE>
    25b8:	00000000 	andeq	r0, r0, r0
    25bc:	00037c00 	andeq	r7, r3, r0, lsl #24
    25c0:	0003b000 	andeq	fp, r3, r0
    25c4:	56000100 	strpl	r0, [r0], -r0, lsl #2
	...
    25d0:	0000037c 	andeq	r0, r0, ip, ror r3
    25d4:	000003b0 			; <UNDEFINED> instruction: 0x000003b0
    25d8:	d4910004 	ldrle	r0, [r1], #4
    25dc:	00009f7e 	andeq	r9, r0, lr, ror pc
    25e0:	00000000 	andeq	r0, r0, r0
    25e4:	03bc0000 			; <UNDEFINED> instruction: 0x03bc0000
    25e8:	03f00000 	mvnseq	r0, #0
    25ec:	00010000 	andeq	r0, r1, r0
    25f0:	00000056 	andeq	r0, r0, r6, asr r0
    25f4:	00000000 	andeq	r0, r0, r0
    25f8:	0003bc00 	andeq	fp, r3, r0, lsl #24
    25fc:	0003f000 	andeq	pc, r3, r0
    2600:	91000400 	tstls	r0, r0, lsl #8
    2604:	009f7ed4 			; <UNDEFINED> instruction: 0x009f7ed4
	...
    2610:	0c000000 	stceq	0, cr0, [r0], {-0}
    2614:	02000000 	andeq	r0, r0, #0
    2618:	0c007d00 	stceq	13, cr7, [r0], {-0}
    261c:	44000000 	strmi	r0, [r0], #-0
    2620:	02000000 	andeq	r0, r0, #0
    2624:	00047d00 	andeq	r7, r4, r0, lsl #26
	...
    2630:	0c000000 	stceq	0, cr0, [r0], {-0}
    2634:	01000000 	mrseq	r0, (UNDEF: 0)
    2638:	00005000 	andeq	r5, r0, r0
	...
    2644:	000c0000 	andeq	r0, ip, r0
    2648:	00020000 	andeq	r0, r2, r0
    264c:	00009f30 	andeq	r9, r0, r0, lsr pc
    2650:	00000000 	andeq	r0, r0, r0
    2654:	00180000 	andseq	r0, r8, r0
    2658:	00240000 	eoreq	r0, r4, r0
    265c:	00010000 	andeq	r0, r1, r0
    2660:	0000005c 	andeq	r0, r0, ip, asr r0
    2664:	00000000 	andeq	r0, r0, r0
    2668:	00004400 	andeq	r4, r0, r0, lsl #8
    266c:	00007000 	andeq	r7, r0, r0
    2670:	50000100 	andpl	r0, r0, r0, lsl #2
    2674:	00000074 	andeq	r0, r0, r4, ror r0
    2678:	00000078 	andeq	r0, r0, r8, ror r0
    267c:	7c500001 	mrrcvc	0, 0, r0, r0, cr1	; <UNPREDICTABLE>
    2680:	80000000 	andhi	r0, r0, r0
    2684:	01000000 	mrseq	r0, (UNDEF: 0)
    2688:	00845000 	addeq	r5, r4, r0
    268c:	00880000 	addeq	r0, r8, r0
    2690:	00010000 	andeq	r0, r1, r0
    2694:	00000050 	andeq	r0, r0, r0, asr r0
    2698:	00000000 	andeq	r0, r0, r0
    269c:	00006000 	andeq	r6, r0, r0
    26a0:	00007000 	andeq	r7, r0, r0
    26a4:	50000100 	andpl	r0, r0, r0, lsl #2
    26a8:	00000070 	andeq	r0, r0, r0, ror r0
    26ac:	00000074 	andeq	r0, r0, r4, ror r0
    26b0:	c1730004 	cmngt	r3, r4
    26b4:	00849f00 	addeq	r9, r4, r0, lsl #30
    26b8:	00880000 	addeq	r0, r8, r0
    26bc:	00010000 	andeq	r0, r1, r0
    26c0:	00008850 	andeq	r8, r0, r0, asr r8
    26c4:	00008c00 	andeq	r8, r0, r0, lsl #24
    26c8:	73000400 	movwvc	r0, #1024	; 0x400
    26cc:	009f00c1 	addseq	r0, pc, r1, asr #1
    26d0:	00000000 	andeq	r0, r0, r0
    26d4:	8c000000 	stchi	0, cr0, [r0], {-0}
    26d8:	90000000 	andls	r0, r0, r0
    26dc:	02000000 	andeq	r0, r0, #0
    26e0:	90007d00 	andls	r7, r0, r0, lsl #26
    26e4:	b8000000 	stmdalt	r0, {}	; <UNPREDICTABLE>
    26e8:	02000000 	andeq	r0, r0, #0
    26ec:	00107d00 	andseq	r7, r0, r0, lsl #26
    26f0:	00000000 	andeq	r0, r0, r0
    26f4:	8c000000 	stchi	0, cr0, [r0], {-0}
    26f8:	a0000000 	andge	r0, r0, r0
    26fc:	01000000 	mrseq	r0, (UNDEF: 0)
    2700:	00a05000 	adceq	r5, r0, r0
    2704:	00b80000 	adcseq	r0, r8, r0
    2708:	00010000 	andeq	r0, r1, r0
    270c:	00000055 	andeq	r0, r0, r5, asr r0
    2710:	00000000 	andeq	r0, r0, r0
    2714:	00008c00 	andeq	r8, r0, r0, lsl #24
    2718:	0000a000 	andeq	sl, r0, r0
    271c:	51000100 	mrspl	r0, (UNDEF: 16)
    2720:	000000a0 	andeq	r0, r0, r0, lsr #1
    2724:	000000b8 	strheq	r0, [r0], -r8
    2728:	00560001 	subseq	r0, r6, r1
    272c:	00000000 	andeq	r0, r0, r0
    2730:	8c000000 	stchi	0, cr0, [r0], {-0}
    2734:	a0000000 	andge	r0, r0, r0
    2738:	02000000 	andeq	r0, r0, #0
    273c:	ac9f3000 	ldcge	0, cr3, [pc], {0}
    2740:	b8000000 	stmdalt	r0, {}	; <UNPREDICTABLE>
    2744:	01000000 	mrseq	r0, (UNDEF: 0)
    2748:	00005400 	andeq	r5, r0, r0, lsl #8
    274c:	00000000 	andeq	r0, r0, r0
    2750:	00b80000 	adcseq	r0, r8, r0
    2754:	00bc0000 	adcseq	r0, ip, r0
    2758:	00020000 	andeq	r0, r2, r0
    275c:	00bc007d 	adcseq	r0, ip, sp, ror r0
    2760:	00c80000 	sbceq	r0, r8, r0
    2764:	00020000 	andeq	r0, r2, r0
    2768:	00c8187d 	sbceq	r1, r8, sp, ror r8
    276c:	01780000 	cmneq	r8, r0
    2770:	00020000 	andeq	r0, r2, r0
    2774:	0000207d 	andeq	r2, r0, sp, ror r0
    2778:	00000000 	andeq	r0, r0, r0
    277c:	00b80000 	adcseq	r0, r8, r0
    2780:	00cc0000 	sbceq	r0, ip, r0
    2784:	00010000 	andeq	r0, r1, r0
    2788:	0000cc50 	andeq	ip, r0, r0, asr ip
    278c:	00017800 	andeq	r7, r1, r0, lsl #16
    2790:	54000100 	strpl	r0, [r0], #-256	; 0x100
	...
    279c:	000000d4 	ldrdeq	r0, [r0], -r4
    27a0:	000000ec 	andeq	r0, r0, ip, ror #1
    27a4:	9f300002 	svcls	0x00300002
    27a8:	000000f8 	strdeq	r0, [r0], -r8
    27ac:	00000110 	andeq	r0, r0, r0, lsl r1
    27b0:	64510001 	ldrbvs	r0, [r1], #-1
    27b4:	78000001 	stmdavc	r0, {r0}
    27b8:	02000001 	andeq	r0, r0, #1
    27bc:	009f3000 	addseq	r3, pc, r0
    27c0:	00000000 	andeq	r0, r0, r0
    27c4:	d4000000 	strle	r0, [r0], #-0
    27c8:	ec000000 	stc	0, cr0, [r0], {-0}
    27cc:	02000000 	andeq	r0, r0, #0
    27d0:	f09f3000 			; <UNDEFINED> instruction: 0xf09f3000
    27d4:	04000000 	streq	r0, [r0], #-0
    27d8:	01000001 	tsteq	r0, r1
    27dc:	01645200 	cmneq	r4, r0, lsl #4
    27e0:	01780000 	cmneq	r8, r0
    27e4:	00020000 	andeq	r0, r2, r0
    27e8:	00009f30 	andeq	r9, r0, r0, lsr pc
    27ec:	00000000 	andeq	r0, r0, r0
    27f0:	01540000 	cmpeq	r4, r0
    27f4:	01640000 	cmneq	r4, r0
    27f8:	00070000 	andeq	r0, r7, r0
    27fc:	24480070 	strbcs	r0, [r8], #-112	; 0x70
    2800:	009f2548 	addseq	r2, pc, r8, asr #10
    2804:	00000000 	andeq	r0, r0, r0
    2808:	2c000000 	stccs	0, cr0, [r0], {-0}
    280c:	64000001 	strvs	r0, [r0], #-1
    2810:	03000001 	movweq	r0, #1
    2814:	9f5d9100 	svcls	0x005d9100
	...
    2820:	00000178 	andeq	r0, r0, r8, ror r1
    2824:	0000017c 	andeq	r0, r0, ip, ror r1
    2828:	007d0002 	rsbseq	r0, sp, r2
    282c:	0000017c 	andeq	r0, r0, ip, ror r1
    2830:	00000180 	andeq	r0, r0, r0, lsl #3
    2834:	107d0002 	rsbsne	r0, sp, r2
    2838:	00000180 	andeq	r0, r0, r0, lsl #3
    283c:	00000280 	andeq	r0, r0, r0, lsl #5
    2840:	187d0002 	ldmdane	sp!, {r1}^
	...
    284c:	00000178 	andeq	r0, r0, r8, ror r1
    2850:	00000193 	muleq	r0, r3, r1
    2854:	00500001 	subseq	r0, r0, r1
    2858:	00000000 	andeq	r0, r0, r0
    285c:	78000000 	stmdavc	r0, {}	; <UNPREDICTABLE>
    2860:	8c000001 	stchi	0, cr0, [r0], {1}
    2864:	01000001 	tsteq	r0, r1
    2868:	018c5100 	orreq	r5, ip, r0, lsl #2
    286c:	02800000 	addeq	r0, r0, #0
    2870:	00010000 	andeq	r0, r1, r0
    2874:	00000054 	andeq	r0, r0, r4, asr r0
    2878:	00000000 	andeq	r0, r0, r0
    287c:	0001b800 	andeq	fp, r1, r0, lsl #16
    2880:	0001c000 	andeq	ip, r1, r0
    2884:	91000200 	mrsls	r0, R8_usr
    2888:	0001f060 	andeq	pc, r1, r0, rrx
    288c:	00028000 	andeq	r8, r2, r0
    2890:	91000200 	mrsls	r0, R8_usr
    2894:	00000060 	andeq	r0, r0, r0, rrx
    2898:	00000000 	andeq	r0, r0, r0
    289c:	00022400 	andeq	r2, r2, r0, lsl #8
    28a0:	00024800 	andeq	r4, r2, r0, lsl #16
    28a4:	30000200 	andcc	r0, r0, r0, lsl #4
    28a8:	0000009f 	muleq	r0, pc, r0	; <UNPREDICTABLE>
    28ac:	00000000 	andeq	r0, r0, r0
    28b0:	00019c00 	andeq	r9, r1, r0, lsl #24
    28b4:	0001b800 	andeq	fp, r1, r0, lsl #16
    28b8:	54000100 	strpl	r0, [r0], #-256	; 0x100
	...
    28c4:	0000019c 	muleq	r0, ip, r1
    28c8:	000001b8 			; <UNDEFINED> instruction: 0x000001b8
    28cc:	9f300002 	svcls	0x00300002
	...
    28d8:	000001b4 			; <UNDEFINED> instruction: 0x000001b4
    28dc:	000001b8 			; <UNDEFINED> instruction: 0x000001b8
    28e0:	9f300002 	svcls	0x00300002
    28e4:	000001d4 	ldrdeq	r0, [r0], -r4
    28e8:	000001f0 	strdeq	r0, [r0], -r0	; <UNPREDICTABLE>
    28ec:	9f310002 	svcls	0x00310002
	...
    28f8:	000001b4 			; <UNDEFINED> instruction: 0x000001b4
    28fc:	000001b8 			; <UNDEFINED> instruction: 0x000001b8
    2900:	01740003 	cmneq	r4, r3
    2904:	0001d49f 	muleq	r1, pc, r4	; <UNPREDICTABLE>
    2908:	0001f000 	andeq	pc, r1, r0
    290c:	74000300 	strvc	r0, [r0], #-768	; 0x300
    2910:	00009f01 	andeq	r9, r0, r1, lsl #30
    2914:	00000000 	andeq	r0, r0, r0
    2918:	01cc0000 	biceq	r0, ip, r0
    291c:	01f00000 	mvnseq	r0, r0
    2920:	00010000 	andeq	r0, r1, r0
    2924:	00000054 	andeq	r0, r0, r4, asr r0
    2928:	00000000 	andeq	r0, r0, r0
    292c:	0001cc00 	andeq	ip, r1, r0, lsl #24
    2930:	0001f000 	andeq	pc, r1, r0
    2934:	31000200 	mrscc	r0, R8_usr
    2938:	0000009f 	muleq	r0, pc, r0	; <UNPREDICTABLE>
    293c:	00000000 	andeq	r0, r0, r0
    2940:	00024c00 	andeq	r4, r2, r0, lsl #24
    2944:	00025400 	andeq	r5, r2, r0, lsl #8
    2948:	51000100 	mrspl	r0, (UNDEF: 16)
	...
    2954:	00000280 	andeq	r0, r0, r0, lsl #5
    2958:	00000288 	andeq	r0, r0, r8, lsl #5
    295c:	007d0002 	rsbseq	r0, sp, r2
    2960:	00000288 	andeq	r0, r0, r8, lsl #5
    2964:	00000290 	muleq	r0, r0, r2
    2968:	0c7d0002 	ldcleq	0, cr0, [sp], #-8
    296c:	00000290 	muleq	r0, r0, r2
    2970:	0000032c 	andeq	r0, r0, ip, lsr #6
    2974:	c87d0003 	ldmdagt	sp!, {r0, r1}^
	...
    2980:	0002e000 	andeq	lr, r2, r0
    2984:	0002f000 	andeq	pc, r2, r0
    2988:	50000100 	andpl	r0, r0, r0, lsl #2
    298c:	000002f0 	strdeq	r0, [r0], -r0	; <UNPREDICTABLE>
    2990:	0000032c 	andeq	r0, r0, ip, lsr #6
    2994:	00550001 	subseq	r0, r5, r1
    2998:	00000000 	andeq	r0, r0, r0
    299c:	50000000 	andpl	r0, r0, r0
    29a0:	58000003 	stmdapl	r0, {r0, r1}
    29a4:	02000003 	andeq	r0, r0, #3
    29a8:	58007d00 	stmdapl	r0, {r8, sl, fp, ip, sp, lr}
    29ac:	64000003 	strvs	r0, [r0], #-3
    29b0:	02000003 	andeq	r0, r0, #3
    29b4:	64247d00 	strtvs	r7, [r4], #-3328	; 0xd00
    29b8:	b4000003 	strlt	r0, [r0], #-3
    29bc:	03000008 	movweq	r0, #8
    29c0:	01807d00 	orreq	r7, r0, r0, lsl #26
	...
    29cc:	0000036c 	andeq	r0, r0, ip, ror #6
    29d0:	00000748 	andeq	r0, r0, r8, asr #14
    29d4:	9f300002 	svcls	0x00300002
    29d8:	00000748 	andeq	r0, r0, r8, asr #14
    29dc:	0000074c 	andeq	r0, r0, ip, asr #14
    29e0:	9f310002 	svcls	0x00310002
    29e4:	0000074c 	andeq	r0, r0, ip, asr #14
    29e8:	000008b4 			; <UNDEFINED> instruction: 0x000008b4
    29ec:	9f300002 	svcls	0x00300002
	...
    29f8:	000003c8 	andeq	r0, r0, r8, asr #7
    29fc:	000003e0 	andeq	r0, r0, r0, ror #7
    2a00:	ec560001 	mrrc	0, 0, r0, r6, cr1
    2a04:	f4000003 	vst4.8	{d0-d3}, [r0], r3
    2a08:	01000003 	tsteq	r0, r3
    2a0c:	00005600 	andeq	r5, r0, r0, lsl #12
    2a10:	00000000 	andeq	r0, r0, r0
    2a14:	03c40000 	biceq	r0, r4, #0
    2a18:	03e00000 	mvneq	r0, #0
    2a1c:	00010000 	andeq	r0, r1, r0
    2a20:	0003e858 	andeq	lr, r3, r8, asr r8
    2a24:	0003f400 	andeq	pc, r3, r0, lsl #8
    2a28:	58000100 	stmdapl	r0, {r8}
    2a2c:	00000404 	andeq	r0, r0, r4, lsl #8
    2a30:	0000040c 	andeq	r0, r0, ip, lsl #8
    2a34:	00580001 	subseq	r0, r8, r1
    2a38:	00000000 	andeq	r0, r0, r0
    2a3c:	c8000000 	stmdagt	r0, {}	; <UNPREDICTABLE>
    2a40:	e0000003 	and	r0, r0, r3
    2a44:	01000003 	tsteq	r0, r3
    2a48:	03e05700 	mvneq	r5, #0
    2a4c:	03f40000 	mvnseq	r0, #0
    2a50:	00020000 	andeq	r0, r2, r0
    2a54:	04009f30 	streq	r9, [r0], #-3888	; 0xf30
    2a58:	040c0000 	streq	r0, [ip], #-0
    2a5c:	00020000 	andeq	r0, r2, r0
    2a60:	00009f31 	andeq	r9, r0, r1, lsr pc
    2a64:	00000000 	andeq	r0, r0, r0
    2a68:	03800000 	orreq	r0, r0, #0
    2a6c:	03940000 	orrseq	r0, r4, #0
    2a70:	00070000 	andeq	r0, r7, r0
    2a74:	24480070 	strbcs	r0, [r8], #-112	; 0x70
    2a78:	989f2548 	ldmls	pc, {r3, r6, r8, sl, sp}	; <UNPREDICTABLE>
    2a7c:	c8000003 	stmdagt	r0, {r0, r1}
    2a80:	01000003 	tsteq	r0, r3
    2a84:	03d05000 	bicseq	r5, r0, #0
    2a88:	040c0000 	streq	r0, [ip], #-0
    2a8c:	00010000 	andeq	r0, r1, r0
    2a90:	00040c50 	andeq	r0, r4, r0, asr ip
    2a94:	00041000 	andeq	r1, r4, r0
    2a98:	08000300 	stmdaeq	r0, {r8, r9}
    2a9c:	04149f23 	ldreq	r9, [r4], #-3875	; 0xf23
    2aa0:	04170000 	ldreq	r0, [r7], #-0
    2aa4:	00070000 	andeq	r0, r7, r0
    2aa8:	24480070 	strbcs	r0, [r8], #-112	; 0x70
    2aac:	249f2548 	ldrcs	r2, [pc], #1352	; 2ab4 <LOADER_PHYS_START-0x3fffd54c>
    2ab0:	27000004 	strcs	r0, [r0, -r4]
    2ab4:	07000004 	streq	r0, [r0, -r4]
    2ab8:	48007000 	stmdami	r0, {ip, sp, lr}
    2abc:	9f254824 	svcls	0x00254824
	...
    2ac8:	0000041c 	andeq	r0, r0, ip, lsl r4
    2acc:	00000428 	andeq	r0, r0, r8, lsr #8
    2ad0:	28560001 	ldmdacs	r6, {r0}^
    2ad4:	2c000004 	stccs	0, cr0, [r0], {4}
    2ad8:	06000004 	streq	r0, [r0], -r4
    2adc:	70007600 	andvc	r7, r0, r0, lsl #12
    2ae0:	2c9f2200 	lfmcs	f2, 4, [pc], {0}
    2ae4:	34000004 	strcc	r0, [r0], #-4
    2ae8:	01000004 	tsteq	r0, r4
    2aec:	00005000 	andeq	r5, r0, r0
    2af0:	00000000 	andeq	r0, r0, r0
    2af4:	05600000 	strbeq	r0, [r0, #-0]!
    2af8:	05840000 	streq	r0, [r4]
    2afc:	00060000 	andeq	r0, r6, r0
    2b00:	003fc403 	eorseq	ip, pc, r3, lsl #8
    2b04:	07d89f40 	ldrbeq	r9, [r8, r0, asr #30]
    2b08:	085c0000 	ldmdaeq	ip, {}^	; <UNPREDICTABLE>
    2b0c:	00060000 	andeq	r0, r6, r0
    2b10:	003fc403 	eorseq	ip, pc, r3, lsl #8
    2b14:	086c9f40 	stmdaeq	ip!, {r6, r8, r9, sl, fp, ip, pc}^
    2b18:	08b40000 	ldmeq	r4!, {}	; <UNPREDICTABLE>
    2b1c:	00060000 	andeq	r0, r6, r0
    2b20:	003fc403 	eorseq	ip, pc, r3, lsl #8
    2b24:	00009f40 	andeq	r9, r0, r0, asr #30
    2b28:	00000000 	andeq	r0, r0, r0
    2b2c:	05600000 	strbeq	r0, [r0, #-0]!
    2b30:	05840000 	streq	r0, [r4]
    2b34:	00060000 	andeq	r0, r6, r0
    2b38:	003bc503 	eorseq	ip, fp, r3, lsl #10
    2b3c:	07d89f40 	ldrbeq	r9, [r8, r0, asr #30]
    2b40:	085c0000 	ldmdaeq	ip, {}^	; <UNPREDICTABLE>
    2b44:	00060000 	andeq	r0, r6, r0
    2b48:	003bc503 	eorseq	ip, fp, r3, lsl #10
    2b4c:	086c9f40 	stmdaeq	ip!, {r6, r8, r9, sl, fp, ip, pc}^
    2b50:	08b40000 	ldmeq	r4!, {}	; <UNPREDICTABLE>
    2b54:	00060000 	andeq	r0, r6, r0
    2b58:	003bc503 	eorseq	ip, fp, r3, lsl #10
    2b5c:	00009f40 	andeq	r9, r0, r0, asr #30
    2b60:	00000000 	andeq	r0, r0, r0
    2b64:	05e80000 	strbeq	r0, [r8, #0]!
    2b68:	06140000 	ldreq	r0, [r4], -r0
    2b6c:	00020000 	andeq	r0, r2, r0
    2b70:	00009f30 	andeq	r9, r0, r0, lsr pc
    2b74:	00000000 	andeq	r0, r0, r0
    2b78:	05b80000 	ldreq	r0, [r8, #0]!
    2b7c:	066c0000 	strbteq	r0, [ip], -r0
    2b80:	00060000 	andeq	r0, r6, r0
    2b84:	ffd0300c 			; <UNDEFINED> instruction: 0xffd0300c
    2b88:	00009f3f 	andeq	r9, r0, pc, lsr pc
    2b8c:	00000000 	andeq	r0, r0, r0
    2b90:	05b80000 	ldreq	r0, [r8, #0]!
    2b94:	066c0000 	strbteq	r0, [ip], -r0
    2b98:	00060000 	andeq	r0, r6, r0
    2b9c:	003fc403 	eorseq	ip, pc, r3, lsl #8
    2ba0:	00009f40 	andeq	r9, r0, r0, asr #30
    2ba4:	00000000 	andeq	r0, r0, r0
    2ba8:	05b80000 	ldreq	r0, [r8, #0]!
    2bac:	05c00000 	strbeq	r0, [r0]
    2bb0:	00060000 	andeq	r0, r6, r0
    2bb4:	003bc503 	eorseq	ip, fp, r3, lsl #10
    2bb8:	05c09f40 	strbeq	r9, [r0, #3904]	; 0xf40
    2bbc:	05db0000 	ldrbeq	r0, [fp]
    2bc0:	00010000 	andeq	r0, r1, r0
    2bc4:	0005db50 	andeq	sp, r5, r0, asr fp
    2bc8:	00066c00 	andeq	r6, r6, r0, lsl #24
    2bcc:	03000600 	movweq	r0, #1536	; 0x600
    2bd0:	40003bc5 	andmi	r3, r0, r5, asr #23
    2bd4:	0000009f 	muleq	r0, pc, r0	; <UNPREDICTABLE>
    2bd8:	00000000 	andeq	r0, r0, r0
    2bdc:	00058400 	andeq	r8, r5, r0, lsl #8
    2be0:	0005a000 	andeq	sl, r5, r0
    2be4:	03000600 	movweq	r0, #1536	; 0x600
    2be8:	40003fc4 	andmi	r3, r0, r4, asr #31
    2bec:	0000009f 	muleq	r0, pc, r0	; <UNPREDICTABLE>
    2bf0:	00000000 	andeq	r0, r0, r0
    2bf4:	00058400 	andeq	r8, r5, r0, lsl #8
    2bf8:	0005a000 	andeq	sl, r5, r0
    2bfc:	30000200 	andcc	r0, r0, r0, lsl #4
    2c00:	0000009f 	muleq	r0, pc, r0	; <UNPREDICTABLE>
    2c04:	00000000 	andeq	r0, r0, r0
    2c08:	00059c00 	andeq	r9, r5, r0, lsl #24
    2c0c:	0005a000 	andeq	sl, r5, r0
    2c10:	30000200 	andcc	r0, r0, r0, lsl #4
    2c14:	0000009f 	muleq	r0, pc, r0	; <UNPREDICTABLE>
    2c18:	00000000 	andeq	r0, r0, r0
    2c1c:	00059c00 	andeq	r9, r5, r0, lsl #24
    2c20:	0005a000 	andeq	sl, r5, r0
    2c24:	03000600 	movweq	r0, #1536	; 0x600
    2c28:	40003fc5 	andmi	r3, r0, r5, asr #31
    2c2c:	0000009f 	muleq	r0, pc, r0	; <UNPREDICTABLE>
    2c30:	00000000 	andeq	r0, r0, r0
    2c34:	00065c00 	andeq	r5, r6, r0, lsl #24
    2c38:	00066c00 	andeq	r6, r6, r0, lsl #24
    2c3c:	03000600 	movweq	r0, #1536	; 0x600
    2c40:	40003fc4 	andmi	r3, r0, r4, asr #31
    2c44:	0000009f 	muleq	r0, pc, r0	; <UNPREDICTABLE>
    2c48:	00000000 	andeq	r0, r0, r0
    2c4c:	0006c800 	andeq	ip, r6, r0, lsl #16
    2c50:	0006e000 	andeq	lr, r6, r0
    2c54:	56000100 	strpl	r0, [r0], -r0, lsl #2
	...
    2c60:	000006c8 	andeq	r0, r0, r8, asr #13
    2c64:	000006d4 	ldrdeq	r0, [r0], -r4
    2c68:	e4570001 	ldrb	r0, [r7], #-1
    2c6c:	f0000006 			; <UNDEFINED> instruction: 0xf0000006
    2c70:	06000006 	streq	r0, [r0], -r6
    2c74:	40340300 	eorsmi	r0, r4, r0, lsl #6
    2c78:	f09f4000 			; <UNDEFINED> instruction: 0xf09f4000
    2c7c:	fc000006 	stc2	0, cr0, [r0], {6}
    2c80:	06000006 	streq	r0, [r0], -r6
    2c84:	403c0300 	eorsmi	r0, ip, r0, lsl #6
    2c88:	109f4000 	addsne	r4, pc, r0
    2c8c:	24000007 	strcs	r0, [r0], #-7
    2c90:	01000007 	tsteq	r0, r7
    2c94:	07245600 	streq	r5, [r4, -r0, lsl #12]!
    2c98:	073c0000 	ldreq	r0, [ip, -r0]!
    2c9c:	00060000 	andeq	r0, r6, r0
    2ca0:	0040cc03 	subeq	ip, r0, r3, lsl #24
    2ca4:	00009f40 	andeq	r9, r0, r0, asr #30
    2ca8:	00000000 	andeq	r0, r0, r0
    2cac:	06980000 	ldreq	r0, [r8], r0
    2cb0:	073c0000 	ldreq	r0, [ip, -r0]!
    2cb4:	00060000 	andeq	r0, r6, r0
    2cb8:	003fc403 	eorseq	ip, pc, r3, lsl #8
    2cbc:	00009f40 	andeq	r9, r0, r0, asr #30
    2cc0:	00000000 	andeq	r0, r0, r0
    2cc4:	074c0000 	strbeq	r0, [ip, -r0]
    2cc8:	075c0000 	ldrbeq	r0, [ip, -r0]
    2ccc:	00060000 	andeq	r0, r6, r0
    2cd0:	003fc403 	eorseq	ip, pc, r3, lsl #8
    2cd4:	00009f40 	andeq	r9, r0, r0, asr #30
    2cd8:	00000000 	andeq	r0, r0, r0
    2cdc:	07800000 	streq	r0, [r0, r0]
    2ce0:	07a40000 	streq	r0, [r4, r0]!
    2ce4:	00060000 	andeq	r0, r6, r0
    2ce8:	003fc403 	eorseq	ip, pc, r3, lsl #8
    2cec:	00009f40 	andeq	r9, r0, r0, asr #30
    2cf0:	00000000 	andeq	r0, r0, r0
    2cf4:	07800000 	streq	r0, [r0, r0]
    2cf8:	07a40000 	streq	r0, [r4, r0]!
    2cfc:	00020000 	andeq	r0, r2, r0
    2d00:	00009f30 	andeq	r9, r0, r0, lsr pc
    2d04:	00000000 	andeq	r0, r0, r0
    2d08:	07880000 	streq	r0, [r8, r0]
    2d0c:	07a40000 	streq	r0, [r4, r0]!
    2d10:	00020000 	andeq	r0, r2, r0
    2d14:	00009f35 	andeq	r9, r0, r5, lsr pc
    2d18:	00000000 	andeq	r0, r0, r0
    2d1c:	07880000 	streq	r0, [r8, r0]
    2d20:	07a40000 	streq	r0, [r4, r0]!
    2d24:	00060000 	andeq	r0, r6, r0
    2d28:	003fc503 	eorseq	ip, pc, r3, lsl #10
    2d2c:	00009f40 	andeq	r9, r0, r0, asr #30
	...
    2d38:	00080000 	andeq	r0, r8, r0
    2d3c:	00020000 	andeq	r0, r2, r0
    2d40:	0008007d 	andeq	r0, r8, sp, ror r0
    2d44:	006c0000 	rsbeq	r0, ip, r0
    2d48:	00020000 	andeq	r0, r2, r0
    2d4c:	0000087d 	andeq	r0, r0, sp, ror r8
	...
    2d58:	00140000 	andseq	r0, r4, r0
    2d5c:	00010000 	andeq	r0, r1, r0
    2d60:	00001450 	andeq	r1, r0, r0, asr r4
    2d64:	00006c00 	andeq	r6, r0, r0, lsl #24
    2d68:	5c000100 	stfpls	f0, [r0], {-0}
	...
    2d78:	00000048 	andeq	r0, r0, r8, asr #32
    2d7c:	50530001 	subspl	r0, r3, r1
    2d80:	60000000 	andvs	r0, r0, r0
    2d84:	01000000 	mrseq	r0, (UNDEF: 0)
    2d88:	00005300 	andeq	r5, r0, r0, lsl #6
    2d8c:	00000000 	andeq	r0, r0, r0
    2d90:	00140000 	andseq	r0, r4, r0
    2d94:	00200000 	eoreq	r0, r0, r0
    2d98:	00010000 	andeq	r0, r1, r0
    2d9c:	00003450 	andeq	r3, r0, r0, asr r4
    2da0:	00004800 	andeq	r4, r0, r0, lsl #16
    2da4:	50000100 	andpl	r0, r0, r0, lsl #2
	...
    2db0:	0000006c 	andeq	r0, r0, ip, rrx
    2db4:	00000070 	andeq	r0, r0, r0, ror r0
    2db8:	007d0002 	rsbseq	r0, sp, r2
    2dbc:	00000070 	andeq	r0, r0, r0, ror r0
    2dc0:	00000078 	andeq	r0, r0, r8, ror r0
    2dc4:	147d0002 	ldrbtne	r0, [sp], #-2
    2dc8:	00000078 	andeq	r0, r0, r8, ror r0
    2dcc:	00000154 	andeq	r0, r0, r4, asr r1
    2dd0:	807d0003 	rsbshi	r0, sp, r3
    2dd4:	00000001 	andeq	r0, r0, r1
    2dd8:	00000000 	andeq	r0, r0, r0
    2ddc:	0000b400 	andeq	fp, r0, r0, lsl #8
    2de0:	0000d000 	andeq	sp, r0, r0
    2de4:	30000200 	andcc	r0, r0, r0, lsl #4
    2de8:	0000d09f 	muleq	r0, pc, r0	; <UNPREDICTABLE>
    2dec:	0000d800 	andeq	sp, r0, r0, lsl #16
    2df0:	53000100 	movwpl	r0, #256	; 0x100
    2df4:	000000e4 	andeq	r0, r0, r4, ror #1
    2df8:	000000f0 	strdeq	r0, [r0], -r0	; <UNPREDICTABLE>
    2dfc:	34530001 	ldrbcc	r0, [r3], #-1
    2e00:	54000001 	strpl	r0, [r0], #-1
    2e04:	02000001 	andeq	r0, r0, #1
    2e08:	009f3000 	addseq	r3, pc, r0
    2e0c:	00000000 	andeq	r0, r0, r0
    2e10:	8c000000 	stchi	0, cr0, [r0], {-0}
    2e14:	98000000 	stmdals	r0, {}	; <UNPREDICTABLE>
    2e18:	01000000 	mrseq	r0, (UNDEF: 0)
    2e1c:	00985500 	addseq	r5, r8, r0, lsl #10
    2e20:	00ac0000 	adceq	r0, ip, r0
    2e24:	00030000 	andeq	r0, r3, r0
    2e28:	ac9f0175 	ldfges	f0, [pc], {117}	; 0x75
    2e2c:	b4000000 	strlt	r0, [r0], #-0
    2e30:	03000000 	movweq	r0, #0
    2e34:	9f027500 	svcls	0x00027500
    2e38:	000000b4 	strheq	r0, [r0], -r4
    2e3c:	000000bc 	strheq	r0, [r0], -ip
    2e40:	03750003 	cmneq	r5, #3
    2e44:	0000bc9f 	muleq	r0, pc, ip	; <UNPREDICTABLE>
    2e48:	0000d000 	andeq	sp, r0, r0
    2e4c:	50000100 	andpl	r0, r0, r0, lsl #2
    2e50:	00000104 	andeq	r0, r0, r4, lsl #2
    2e54:	00000130 	andeq	r0, r0, r0, lsr r1
    2e58:	01750003 	cmneq	r5, r3
    2e5c:	0001309f 	muleq	r1, pc, r0	; <UNPREDICTABLE>
    2e60:	00013400 	andeq	r3, r1, r0, lsl #8
    2e64:	75000300 	strvc	r0, [r0, #-768]	; 0x300
    2e68:	01349f02 	teqeq	r4, r2, lsl #30
    2e6c:	013c0000 	teqeq	ip, r0
    2e70:	00030000 	andeq	r0, r3, r0
    2e74:	3c9f0375 	ldccc	3, cr0, [pc], {117}	; 0x75
    2e78:	54000001 	strpl	r0, [r0], #-1
    2e7c:	01000001 	tsteq	r0, r1
    2e80:	00005000 	andeq	r5, r0, r0
    2e84:	00000000 	andeq	r0, r0, r0
    2e88:	006c0000 	rsbeq	r0, ip, r0
    2e8c:	00880000 	addeq	r0, r8, r0
    2e90:	00020000 	andeq	r0, r2, r0
    2e94:	00009f30 	andeq	r9, r0, r0, lsr pc
    2e98:	00000000 	andeq	r0, r0, r0
    2e9c:	006c0000 	rsbeq	r0, ip, r0
    2ea0:	00880000 	addeq	r0, r8, r0
    2ea4:	00020000 	andeq	r0, r2, r0
    2ea8:	00889f30 	addeq	r9, r8, r0, lsr pc
    2eac:	01540000 	cmpeq	r4, r0
    2eb0:	00010000 	andeq	r0, r1, r0
    2eb4:	00000056 	andeq	r0, r0, r6, asr r0
    2eb8:	00000000 	andeq	r0, r0, r0
    2ebc:	00015400 	andeq	r5, r1, r0, lsl #8
    2ec0:	00015800 	andeq	r5, r1, r0, lsl #16
    2ec4:	7d000200 	sfmvc	f0, 4, [r0, #-0]
    2ec8:	00015800 	andeq	r5, r1, r0, lsl #16
    2ecc:	00016400 	andeq	r6, r1, r0, lsl #8
    2ed0:	7d000200 	sfmvc	f0, 4, [r0, #-0]
    2ed4:	00016424 	andeq	r6, r1, r4, lsr #8
    2ed8:	0002a400 	andeq	sl, r2, r0, lsl #8
    2edc:	7d000300 	stcvc	3, cr0, [r0, #-0]
    2ee0:	00000198 	muleq	r0, r8, r1
    2ee4:	00000000 	andeq	r0, r0, r0
    2ee8:	01780000 	cmneq	r8, r0
    2eec:	018c0000 	orreq	r0, ip, r0
    2ef0:	00010000 	andeq	r0, r1, r0
    2ef4:	0001d054 	andeq	sp, r1, r4, asr r0
    2ef8:	0001d800 	andeq	sp, r1, r0, lsl #16
    2efc:	7a000300 	bvc	3b04 <LOADER_PHYS_START-0x3fffc4fc>
    2f00:	01d89f01 	bicseq	r9, r8, r1, lsl #30
    2f04:	02a40000 	adceq	r0, r4, #0
    2f08:	00010000 	andeq	r0, r1, r0
    2f0c:	00000054 	andeq	r0, r0, r4, asr r0
    2f10:	00000000 	andeq	r0, r0, r0
    2f14:	00015400 	andeq	r5, r1, r0, lsl #8
    2f18:	00017800 	andeq	r7, r1, r0, lsl #16
    2f1c:	30000200 	andcc	r0, r0, r0, lsl #4
    2f20:	0000009f 	muleq	r0, pc, r0	; <UNPREDICTABLE>
    2f24:	00000000 	andeq	r0, r0, r0
    2f28:	00015400 	andeq	r5, r1, r0, lsl #8
    2f2c:	00017800 	andeq	r7, r1, r0, lsl #16
    2f30:	30000200 	andcc	r0, r0, r0, lsl #4
    2f34:	0001789f 	muleq	r1, pc, r8	; <UNPREDICTABLE>
    2f38:	0002a400 	andeq	sl, r2, r0, lsl #8
    2f3c:	56000100 	strpl	r0, [r0], -r0, lsl #2
	...
    2f48:	00000178 	andeq	r0, r0, r8, ror r1
    2f4c:	0000018c 	andeq	r0, r0, ip, lsl #3
    2f50:	9f300002 	svcls	0x00300002
    2f54:	00000198 	muleq	r0, r8, r1
    2f58:	000001a4 	andeq	r0, r0, r4, lsr #3
    2f5c:	d8530001 	ldmdale	r3, {r0}^
    2f60:	f0000001 			; <UNDEFINED> instruction: 0xf0000001
    2f64:	02000001 	andeq	r0, r0, #1
    2f68:	f09f3000 			; <UNDEFINED> instruction: 0xf09f3000
    2f6c:	f8000001 			; <UNDEFINED> instruction: 0xf8000001
    2f70:	01000001 	tsteq	r0, r1
    2f74:	02085300 	andeq	r5, r8, #0
    2f78:	02180000 	andseq	r0, r8, #0
    2f7c:	00010000 	andeq	r0, r1, r0
    2f80:	00027453 	andeq	r7, r2, r3, asr r4
    2f84:	00028800 	andeq	r8, r2, r0, lsl #16
    2f88:	30000200 	andcc	r0, r0, r0, lsl #4
    2f8c:	0002909f 	muleq	r2, pc, r0	; <UNPREDICTABLE>
    2f90:	0002a400 	andeq	sl, r2, r0, lsl #8
    2f94:	30000200 	andcc	r0, r0, r0, lsl #4
    2f98:	0000009f 	muleq	r0, pc, r0	; <UNPREDICTABLE>
    2f9c:	00000000 	andeq	r0, r0, r0
    2fa0:	0002a400 	andeq	sl, r2, r0, lsl #8
    2fa4:	0002b000 	andeq	fp, r2, r0
    2fa8:	50000100 	andpl	r0, r0, r0, lsl #2
	...
    2fb4:	000002dc 	ldrdeq	r0, [r0], -ip
    2fb8:	000002e8 	andeq	r0, r0, r8, ror #5
    2fbc:	007d0002 	rsbseq	r0, sp, r2
    2fc0:	000002e8 	andeq	r0, r0, r8, ror #5
    2fc4:	000002f4 	strdeq	r0, [r0], -r4
    2fc8:	147d0002 	ldrbtne	r0, [sp], #-2
    2fcc:	000002f4 	strdeq	r0, [r0], -r4
    2fd0:	000003a4 	andeq	r0, r0, r4, lsr #7
    2fd4:	307d0002 	rsbscc	r0, sp, r2
	...
    2fe0:	000002dc 	ldrdeq	r0, [r0], -ip
    2fe4:	00000304 	andeq	r0, r0, r4, lsl #6
    2fe8:	04500001 	ldrbeq	r0, [r0], #-1
    2fec:	0b000003 	bleq	3000 <LOADER_PHYS_START-0x3fffd000>
    2ff0:	01000003 	tsteq	r0, r3
    2ff4:	030b5100 	movweq	r5, #45312	; 0xb100
    2ff8:	03a40000 			; <UNDEFINED> instruction: 0x03a40000
    2ffc:	00010000 	andeq	r0, r1, r0
    3000:	00000055 	andeq	r0, r0, r5, asr r0
    3004:	00000000 	andeq	r0, r0, r0
    3008:	0002dc00 	andeq	sp, r2, r0, lsl #24
    300c:	0002fc00 	andeq	pc, r2, r0, lsl #24
    3010:	51000100 	mrspl	r0, (UNDEF: 16)
    3014:	000002fc 	strdeq	r0, [r0], -ip
    3018:	000003a4 	andeq	r0, r0, r4, lsr #7
    301c:	00560001 	subseq	r0, r6, r1
    3020:	00000000 	andeq	r0, r0, r0
    3024:	14000000 	strne	r0, [r0], #-0
    3028:	20000003 	andcs	r0, r0, r3
    302c:	01000003 	tsteq	r0, r3
    3030:	03845000 	orreq	r5, r4, #0
    3034:	03880000 	orreq	r0, r8, #0
    3038:	00010000 	andeq	r0, r1, r0
    303c:	00038850 	andeq	r8, r3, r0, asr r8
    3040:	0003a400 	andeq	sl, r3, r0, lsl #8
    3044:	57000100 	strpl	r0, [r0, -r0, lsl #2]
	...
    3050:	000003a4 	andeq	r0, r0, r4, lsr #7
    3054:	000003a8 	andeq	r0, r0, r8, lsr #7
    3058:	007d0002 	rsbseq	r0, sp, r2
    305c:	000003a8 	andeq	r0, r0, r8, lsr #7
    3060:	000003ac 	andeq	r0, r0, ip, lsr #7
    3064:	1c7d0002 	ldclne	0, cr0, [sp], #-8
    3068:	000003ac 	andeq	r0, r0, ip, lsr #7
    306c:	00000674 	andeq	r0, r0, r4, ror r6
    3070:	b07d0003 	rsbslt	r0, sp, r3
    3074:	00000002 	andeq	r0, r0, r2
    3078:	00000000 	andeq	r0, r0, r0
    307c:	0003a400 	andeq	sl, r3, r0, lsl #8
    3080:	0003d400 	andeq	sp, r3, r0, lsl #8
    3084:	50000100 	andpl	r0, r0, r0, lsl #2
    3088:	00000410 	andeq	r0, r0, r0, lsl r4
    308c:	00000430 	andeq	r0, r0, r0, lsr r4
    3090:	14500001 	ldrbne	r0, [r0], #-1
    3094:	1c000005 	stcne	0, cr0, [r0], {5}
    3098:	01000005 	tsteq	r0, r5
    309c:	057c5000 	ldrbeq	r5, [ip, #-0]!
    30a0:	05b80000 	ldreq	r0, [r8, #0]!
    30a4:	00010000 	andeq	r0, r1, r0
    30a8:	00000050 	andeq	r0, r0, r0, asr r0
    30ac:	00000000 	andeq	r0, r0, r0
    30b0:	0003a400 	andeq	sl, r3, r0, lsl #8
    30b4:	0003d400 	andeq	sp, r3, r0, lsl #8
    30b8:	51000100 	mrspl	r0, (UNDEF: 16)
    30bc:	00000410 	andeq	r0, r0, r0, lsl r4
    30c0:	00000430 	andeq	r0, r0, r0, lsr r4
    30c4:	14510001 	ldrbne	r0, [r1], #-1
    30c8:	18000005 	stmdane	r0, {r0, r2}
    30cc:	01000005 	tsteq	r0, r5
    30d0:	057c5100 	ldrbeq	r5, [ip, #-256]!	; 0x100
    30d4:	05b80000 	ldreq	r0, [r8, #0]!
    30d8:	00010000 	andeq	r0, r1, r0
    30dc:	00000051 	andeq	r0, r0, r1, asr r0
    30e0:	00000000 	andeq	r0, r0, r0
    30e4:	0003a400 	andeq	sl, r3, r0, lsl #8
    30e8:	0003d400 	andeq	sp, r3, r0, lsl #8
    30ec:	52000100 	andpl	r0, r0, #0
    30f0:	00000410 	andeq	r0, r0, r0, lsl r4
    30f4:	00000430 	andeq	r0, r0, r0, lsr r4
    30f8:	14520001 	ldrbne	r0, [r2], #-1
    30fc:	1f000005 	svcne	0x00000005
    3100:	01000005 	tsteq	r0, r5
    3104:	057c5200 	ldrbeq	r5, [ip, #-512]!	; 0x200
    3108:	05b80000 	ldreq	r0, [r8, #0]!
    310c:	00010000 	andeq	r0, r1, r0
    3110:	00000052 	andeq	r0, r0, r2, asr r0
    3114:	00000000 	andeq	r0, r0, r0
    3118:	0003c400 	andeq	ip, r3, r0, lsl #8
    311c:	0003d400 	andeq	sp, r3, r0, lsl #8
    3120:	30000200 	andcc	r0, r0, r0, lsl #4
    3124:	0003fc9f 	muleq	r3, pc, ip	; <UNPREDICTABLE>
    3128:	00040800 	andeq	r0, r4, r0, lsl #16
    312c:	55000100 	strpl	r0, [r0, #-256]	; 0x100
	...
    3138:	000003d8 	ldrdeq	r0, [r0], -r8
    313c:	000003e7 	andeq	r0, r0, r7, ror #7
    3140:	00760002 	rsbseq	r0, r6, r2
    3144:	000003e7 	andeq	r0, r0, r7, ror #7
    3148:	00000408 	andeq	r0, r0, r8, lsl #8
    314c:	00570001 	subseq	r0, r7, r1
    3150:	00000000 	andeq	r0, r0, r0
    3154:	e8000000 	stmda	r0, {}	; <UNPREDICTABLE>
    3158:	fb000003 	blx	316e <LOADER_PHYS_START-0x3fffce92>
    315c:	02000003 	andeq	r0, r0, #3
    3160:	00047600 	andeq	r7, r4, r0, lsl #12
    3164:	00000000 	andeq	r0, r0, r0
    3168:	40000000 	andmi	r0, r0, r0
    316c:	44000004 	strmi	r0, [r0], #-4
    3170:	0a000004 	beq	3188 <LOADER_PHYS_START-0x3fffce78>
    3174:	93707600 	cmnls	r0, #0
    3178:	93207404 	teqls	r0, #67108864	; 0x4000000
    317c:	44389304 	ldrtmi	r9, [r8], #-772	; 0x304
    3180:	4c000004 	stcmi	0, cr0, [r0], {4}
    3184:	0a000004 	beq	319c <LOADER_PHYS_START-0x3fffce64>
    3188:	93607600 	cmnls	r0, #0
    318c:	93207404 	teqls	r0, #67108864	; 0x4000000
    3190:	4c389304 	ldcmi	3, cr9, [r8], #-16
    3194:	c0000004 	andgt	r0, r0, r4
    3198:	0a000004 	beq	31b0 <LOADER_PHYS_START-0x3fffce50>
    319c:	93507600 	cmpls	r0, #0
    31a0:	93207404 	teqls	r0, #67108864	; 0x4000000
    31a4:	c0389304 	eorsgt	r9, r8, r4, lsl #6
    31a8:	c7000004 	strgt	r0, [r0, -r4]
    31ac:	0a000004 	beq	31c4 <LOADER_PHYS_START-0x3fffce3c>
    31b0:	93507600 	cmpls	r0, #0
    31b4:	93547604 	cmpls	r4, #4194304	; 0x400000
    31b8:	c7389304 	ldrgt	r9, [r8, -r4, lsl #6]!
    31bc:	08000004 	stmdaeq	r0, {r2}
    31c0:	08000005 	stmdaeq	r0, {r0, r2}
    31c4:	04935800 	ldreq	r5, [r3], #2048	; 0x800
    31c8:	9304935a 	movwls	r9, #17242	; 0x435a
    31cc:	00061438 	andeq	r1, r6, r8, lsr r4
    31d0:	00062000 	andeq	r2, r6, r0
    31d4:	58000800 	stmdapl	r0, {fp}
    31d8:	935a0493 	cmpls	sl, #-1828716544	; 0x93000000
    31dc:	00389304 	eorseq	r9, r8, r4, lsl #6
    31e0:	00000000 	andeq	r0, r0, r0
    31e4:	78000000 	stmdavc	r0, {}	; <UNPREDICTABLE>
    31e8:	98000004 	stmdals	r0, {r2}
    31ec:	01000004 	tsteq	r0, r4
    31f0:	04d05c00 	ldrbeq	r5, [r0], #3072	; 0xc00
    31f4:	04d40000 	ldrbeq	r0, [r4], #0
    31f8:	00020000 	andeq	r0, r2, r0
    31fc:	05009f30 	streq	r9, [r0, #-3888]	; 0xf30
    3200:	05080000 	streq	r0, [r8, #-0]
    3204:	00010000 	andeq	r0, r1, r0
    3208:	00000054 	andeq	r0, r0, r4, asr r0
    320c:	00000000 	andeq	r0, r0, r0
    3210:	00059400 	andeq	r9, r5, r0, lsl #8
    3214:	0005b800 	andeq	fp, r5, r0, lsl #16
    3218:	30000200 	andcc	r0, r0, r0, lsl #4
    321c:	0005d49f 	muleq	r5, pc, r4	; <UNPREDICTABLE>
    3220:	0005ec00 	andeq	lr, r5, r0, lsl #24
    3224:	55000100 	strpl	r0, [r0, #-256]	; 0x100
	...
    3230:	00000594 	muleq	r0, r4, r5
    3234:	000005b8 			; <UNDEFINED> instruction: 0x000005b8
    3238:	14740002 	ldrbtne	r0, [r4], #-2
    323c:	000005b8 			; <UNDEFINED> instruction: 0x000005b8
    3240:	0000060c 	andeq	r0, r0, ip, lsl #12
    3244:	0c580001 	mrrceq	0, 0, r0, r8, cr1
    3248:	10000006 	andne	r0, r0, r6
    324c:	03000006 	movweq	r0, #6
    3250:	9f707800 	svcls	0x00707800
    3254:	00000610 	andeq	r0, r0, r0, lsl r6
    3258:	00000614 	andeq	r0, r0, r4, lsl r6
    325c:	20580001 	subscs	r0, r8, r1
    3260:	74000006 	strvc	r0, [r0], #-6
    3264:	01000006 	tsteq	r0, r6
    3268:	00005800 	andeq	r5, r0, r0, lsl #16
    326c:	00000000 	andeq	r0, r0, r0
    3270:	06980000 	ldreq	r0, [r8], r0
    3274:	069c0000 	ldreq	r0, [ip], r0
    3278:	00020000 	andeq	r0, r2, r0
    327c:	069c007d 			; <UNDEFINED> instruction: 0x069c007d
    3280:	070c0000 	streq	r0, [ip, -r0]
    3284:	00020000 	andeq	r0, r2, r0
    3288:	0000107d 	andeq	r1, r0, sp, ror r0
    328c:	00000000 	andeq	r0, r0, r0
    3290:	06980000 	ldreq	r0, [r8], r0
    3294:	06a70000 	strteq	r0, [r7], r0
    3298:	00010000 	andeq	r0, r1, r0
    329c:	0006a750 	andeq	sl, r6, r0, asr r7
    32a0:	00070c00 	andeq	r0, r7, r0, lsl #24
    32a4:	54000100 	strpl	r0, [r0], #-256	; 0x100
	...
    32b0:	00000698 	muleq	r0, r8, r6
    32b4:	000006a7 	andeq	r0, r0, r7, lsr #13
    32b8:	a7510001 	ldrbge	r0, [r1, -r1]
    32bc:	0c000006 	stceq	0, cr0, [r0], {6}
    32c0:	01000007 	tsteq	r0, r7
    32c4:	00005500 	andeq	r5, r0, r0, lsl #10
    32c8:	00000000 	andeq	r0, r0, r0
    32cc:	06d80000 	ldrbeq	r0, [r8], r0
    32d0:	06f80000 	ldrbteq	r0, [r8], r0
    32d4:	00010000 	andeq	r0, r1, r0
    32d8:	00000053 	andeq	r0, r0, r3, asr r0
    32dc:	00000000 	andeq	r0, r0, r0
    32e0:	00070c00 	andeq	r0, r7, r0, lsl #24
    32e4:	00071000 	andeq	r1, r7, r0
    32e8:	7d000200 	sfmvc	f0, 4, [r0, #-0]
    32ec:	00071000 	andeq	r1, r7, r0
    32f0:	00075400 	andeq	r5, r7, r0, lsl #8
    32f4:	7d000200 	sfmvc	f0, 4, [r0, #-0]
    32f8:	00000018 	andeq	r0, r0, r8, lsl r0
    32fc:	00000000 	andeq	r0, r0, r0
    3300:	00070c00 	andeq	r0, r7, r0, lsl #24
    3304:	00072c00 	andeq	r2, r7, r0, lsl #24
    3308:	30000200 	andcc	r0, r0, r0, lsl #4
    330c:	00073c9f 	muleq	r7, pc, ip	; <UNPREDICTABLE>
    3310:	00075400 	andeq	r5, r7, r0, lsl #8
    3314:	55000100 	strpl	r0, [r0, #-256]	; 0x100
	...
    3320:	00000754 	andeq	r0, r0, r4, asr r7
    3324:	00000764 	andeq	r0, r0, r4, ror #14
    3328:	007d0002 	rsbseq	r0, sp, r2
    332c:	00000764 	andeq	r0, r0, r4, ror #14
    3330:	0000078c 	andeq	r0, r0, ip, lsl #15
    3334:	087d0002 	ldmdaeq	sp!, {r1}^
	...
    3340:	0000078c 	andeq	r0, r0, ip, lsl #15
    3344:	00000794 	muleq	r0, r4, r7
    3348:	007d0002 	rsbseq	r0, sp, r2
    334c:	00000794 	muleq	r0, r4, r7
    3350:	000007bc 			; <UNDEFINED> instruction: 0x000007bc
    3354:	087d0002 	ldmdaeq	sp!, {r1}^
	...

Disassembly of section .debug_ranges:

00000000 <.debug_ranges>:
   0:	40002fb0 			; <UNDEFINED> instruction: 0x40002fb0
   4:	40002fc8 	andmi	r2, r0, r8, asr #31
   8:	40002fcc 	andmi	r2, r0, ip, asr #31
   c:	40002fd0 	ldrdmi	r2, [r0], -r0
	...
  18:	400000c0 	andmi	r0, r0, r0, asr #1
  1c:	400000d0 	ldrdmi	r0, [r0], -r0	; <UNPREDICTABLE>
  20:	40002fa0 	andmi	r2, r0, r0, lsr #31
  24:	4000300c 	andmi	r3, r0, ip
	...
  30:	00000104 	andeq	r0, r0, r4, lsl #2
  34:	00000110 	andeq	r0, r0, r0, lsl r1
  38:	00000118 	andeq	r0, r0, r8, lsl r1
  3c:	0000011c 	andeq	r0, r0, ip, lsl r1
	...
  48:	00000020 	andeq	r0, r0, r0, lsr #32
  4c:	00000028 	andeq	r0, r0, r8, lsr #32
  50:	0000002c 	andeq	r0, r0, ip, lsr #32
  54:	00000034 	andeq	r0, r0, r4, lsr r0
  58:	00000038 	andeq	r0, r0, r8, lsr r0
  5c:	00000044 	andeq	r0, r0, r4, asr #32
	...
  68:	00000020 	andeq	r0, r0, r0, lsr #32
  6c:	00000028 	andeq	r0, r0, r8, lsr #32
  70:	0000002c 	andeq	r0, r0, ip, lsr #32
  74:	00000034 	andeq	r0, r0, r4, lsr r0
  78:	00000038 	andeq	r0, r0, r8, lsr r0
  7c:	00000044 	andeq	r0, r0, r4, asr #32
	...
  88:	000000cc 	andeq	r0, r0, ip, asr #1
  8c:	000000d0 	ldrdeq	r0, [r0], -r0	; <UNPREDICTABLE>
  90:	000000d8 	ldrdeq	r0, [r0], -r8
  94:	000000dc 	ldrdeq	r0, [r0], -ip
	...
  a0:	0000017c 	andeq	r0, r0, ip, ror r1
  a4:	00000180 	andeq	r0, r0, r0, lsl #3
  a8:	00000184 	andeq	r0, r0, r4, lsl #3
  ac:	00000194 	muleq	r0, r4, r1
  b0:	000001b8 			; <UNDEFINED> instruction: 0x000001b8
  b4:	000001d0 	ldrdeq	r0, [r0], -r0	; <UNPREDICTABLE>
	...
  c0:	0000017c 	andeq	r0, r0, ip, ror r1
  c4:	00000180 	andeq	r0, r0, r0, lsl #3
  c8:	00000184 	andeq	r0, r0, r4, lsl #3
  cc:	00000194 	muleq	r0, r4, r1
  d0:	000001b8 			; <UNDEFINED> instruction: 0x000001b8
  d4:	000001d0 	ldrdeq	r0, [r0], -r0	; <UNPREDICTABLE>
	...
  e0:	0000017c 	andeq	r0, r0, ip, ror r1
  e4:	00000180 	andeq	r0, r0, r0, lsl #3
  e8:	00000184 	andeq	r0, r0, r4, lsl #3
  ec:	00000188 	andeq	r0, r0, r8, lsl #3
	...
  f8:	00000194 	muleq	r0, r4, r1
  fc:	00000198 	muleq	r0, r8, r1
 100:	0000019c 	muleq	r0, ip, r1
 104:	000001a4 	andeq	r0, r0, r4, lsr #3
 108:	000001a8 	andeq	r0, r0, r8, lsr #3
 10c:	000001b0 			; <UNDEFINED> instruction: 0x000001b0
	...
 118:	00000194 	muleq	r0, r4, r1
 11c:	00000198 	muleq	r0, r8, r1
 120:	0000019c 	muleq	r0, ip, r1
 124:	000001a4 	andeq	r0, r0, r4, lsr #3
 128:	000001a8 	andeq	r0, r0, r8, lsr #3
 12c:	000001b0 			; <UNDEFINED> instruction: 0x000001b0
	...
 138:	00000194 	muleq	r0, r4, r1
 13c:	00000198 	muleq	r0, r8, r1
 140:	0000019c 	muleq	r0, ip, r1
 144:	000001a4 	andeq	r0, r0, r4, lsr #3
 148:	000001a8 	andeq	r0, r0, r8, lsr #3
 14c:	000001b0 			; <UNDEFINED> instruction: 0x000001b0
	...
 158:	000001d0 	ldrdeq	r0, [r0], -r0	; <UNPREDICTABLE>
 15c:	000001d4 	ldrdeq	r0, [r0], -r4
 160:	000001e0 	andeq	r0, r0, r0, ror #3
 164:	000001f0 	strdeq	r0, [r0], -r0	; <UNPREDICTABLE>
 168:	00000204 	andeq	r0, r0, r4, lsl #4
 16c:	0000021c 	andeq	r0, r0, ip, lsl r2
	...
 178:	000001d0 	ldrdeq	r0, [r0], -r0	; <UNPREDICTABLE>
 17c:	000001d4 	ldrdeq	r0, [r0], -r4
 180:	000001e0 	andeq	r0, r0, r0, ror #3
 184:	000001f0 	strdeq	r0, [r0], -r0	; <UNPREDICTABLE>
 188:	00000204 	andeq	r0, r0, r4, lsl #4
 18c:	0000021c 	andeq	r0, r0, ip, lsl r2
	...
 198:	000001d0 	ldrdeq	r0, [r0], -r0	; <UNPREDICTABLE>
 19c:	000001d4 	ldrdeq	r0, [r0], -r4
 1a0:	000001e0 	andeq	r0, r0, r0, ror #3
 1a4:	000001e4 	andeq	r0, r0, r4, ror #3
	...
 1b0:	0000021c 	andeq	r0, r0, ip, lsl r2
 1b4:	00000234 	andeq	r0, r0, r4, lsr r2
 1b8:	00000250 	andeq	r0, r0, r0, asr r2
 1bc:	00000268 	andeq	r0, r0, r8, ror #4
	...
 1c8:	0000021c 	andeq	r0, r0, ip, lsl r2
 1cc:	00000234 	andeq	r0, r0, r4, lsr r2
 1d0:	00000250 	andeq	r0, r0, r0, asr r2
 1d4:	00000268 	andeq	r0, r0, r8, ror #4
	...
 1e0:	00000268 	andeq	r0, r0, r8, ror #4
 1e4:	00000280 	andeq	r0, r0, r0, lsl #5
 1e8:	000002a8 	andeq	r0, r0, r8, lsr #5
 1ec:	000002c0 	andeq	r0, r0, r0, asr #5
	...
 1f8:	00000268 	andeq	r0, r0, r8, ror #4
 1fc:	00000280 	andeq	r0, r0, r0, lsl #5
 200:	000002a8 	andeq	r0, r0, r8, lsr #5
 204:	000002c0 	andeq	r0, r0, r0, asr #5
	...
 210:	00000280 	andeq	r0, r0, r0, lsl #5
 214:	0000028c 	andeq	r0, r0, ip, lsl #5
 218:	00000290 	muleq	r0, r0, r2
 21c:	0000029c 	muleq	r0, ip, r2
 220:	000002a0 	andeq	r0, r0, r0, lsr #5
 224:	000002a4 	andeq	r0, r0, r4, lsr #5
	...
 230:	00000280 	andeq	r0, r0, r0, lsl #5
 234:	0000028c 	andeq	r0, r0, ip, lsl #5
 238:	00000290 	muleq	r0, r0, r2
 23c:	0000029c 	muleq	r0, ip, r2
 240:	000002a0 	andeq	r0, r0, r0, lsr #5
 244:	000002a4 	andeq	r0, r0, r4, lsr #5
	...
 250:	0000001c 	andeq	r0, r0, ip, lsl r0
 254:	00000020 	andeq	r0, r0, r0, lsr #32
 258:	00000028 	andeq	r0, r0, r8, lsr #32
 25c:	0000002c 	andeq	r0, r0, ip, lsr #32
	...
 268:	0000002c 	andeq	r0, r0, ip, lsr #32
 26c:	00000048 	andeq	r0, r0, r8, asr #32
 270:	000000c4 	andeq	r0, r0, r4, asr #1
 274:	000000d8 	ldrdeq	r0, [r0], -r8
	...
 280:	00000074 	andeq	r0, r0, r4, ror r0
 284:	0000009c 	muleq	r0, ip, r0
 288:	000000ac 	andeq	r0, r0, ip, lsr #1
 28c:	000000b0 	strheq	r0, [r0], -r0	; <UNPREDICTABLE>
	...
 298:	000000d8 	ldrdeq	r0, [r0], -r8
 29c:	000000dc 	ldrdeq	r0, [r0], -ip
 2a0:	000000e4 	andeq	r0, r0, r4, ror #1
 2a4:	000000e8 	andeq	r0, r0, r8, ror #1
	...
 2b0:	00000108 	andeq	r0, r0, r8, lsl #2
 2b4:	0000010c 	andeq	r0, r0, ip, lsl #2
 2b8:	00000114 	andeq	r0, r0, r4, lsl r1
 2bc:	00000118 	andeq	r0, r0, r8, lsl r1
 2c0:	0000011c 	andeq	r0, r0, ip, lsl r1
 2c4:	00000120 	andeq	r0, r0, r0, lsr #2
	...
 2d0:	00000198 	muleq	r0, r8, r1
 2d4:	00000230 	andeq	r0, r0, r0, lsr r2
 2d8:	00000244 	andeq	r0, r0, r4, asr #4
 2dc:	000003bc 			; <UNDEFINED> instruction: 0x000003bc
 2e0:	000003c4 	andeq	r0, r0, r4, asr #7
 2e4:	000004ec 	andeq	r0, r0, ip, ror #9
	...
 2f0:	00000198 	muleq	r0, r8, r1
 2f4:	000001d4 	ldrdeq	r0, [r0], -r4
 2f8:	000001d8 	ldrdeq	r0, [r0], -r8
 2fc:	00000230 	andeq	r0, r0, r0, lsr r2
 300:	00000244 	andeq	r0, r0, r4, asr #4
 304:	000003bc 			; <UNDEFINED> instruction: 0x000003bc
 308:	000003c4 	andeq	r0, r0, r4, asr #7
 30c:	000004ec 	andeq	r0, r0, ip, ror #9
	...
 318:	00000198 	muleq	r0, r8, r1
 31c:	000001b4 			; <UNDEFINED> instruction: 0x000001b4
 320:	000001c0 	andeq	r0, r0, r0, asr #3
 324:	000001c8 	andeq	r0, r0, r8, asr #3
 328:	000001d8 	ldrdeq	r0, [r0], -r8
 32c:	000001dc 	ldrdeq	r0, [r0], -ip
 330:	000001e4 	andeq	r0, r0, r4, ror #3
 334:	00000230 	andeq	r0, r0, r0, lsr r2
 338:	00000244 	andeq	r0, r0, r4, asr #4
 33c:	000003bc 			; <UNDEFINED> instruction: 0x000003bc
 340:	000003c4 	andeq	r0, r0, r4, asr #7
 344:	000004ec 	andeq	r0, r0, ip, ror #9
	...
 350:	00000198 	muleq	r0, r8, r1
 354:	000001a8 	andeq	r0, r0, r8, lsr #3
 358:	000001d8 	ldrdeq	r0, [r0], -r8
 35c:	000001dc 	ldrdeq	r0, [r0], -ip
 360:	000001e4 	andeq	r0, r0, r4, ror #3
 364:	000001f8 	strdeq	r0, [r0], -r8
	...
 370:	00000198 	muleq	r0, r8, r1
 374:	000001a8 	andeq	r0, r0, r8, lsr #3
 378:	000001d8 	ldrdeq	r0, [r0], -r8
 37c:	000001dc 	ldrdeq	r0, [r0], -ip
 380:	000001e4 	andeq	r0, r0, r4, ror #3
 384:	000001f8 	strdeq	r0, [r0], -r8
	...
 390:	00000198 	muleq	r0, r8, r1
 394:	000001a8 	andeq	r0, r0, r8, lsr #3
 398:	000001d8 	ldrdeq	r0, [r0], -r8
 39c:	000001dc 	ldrdeq	r0, [r0], -ip
 3a0:	000001e4 	andeq	r0, r0, r4, ror #3
 3a4:	000001ec 	andeq	r0, r0, ip, ror #3
	...
 3b0:	00000270 	andeq	r0, r0, r0, ror r2
 3b4:	0000028c 	andeq	r0, r0, ip, lsl #5
 3b8:	000002c4 	andeq	r0, r0, r4, asr #5
 3bc:	000002cc 	andeq	r0, r0, ip, asr #5
	...
 3c8:	00000270 	andeq	r0, r0, r0, ror r2
 3cc:	0000028c 	andeq	r0, r0, ip, lsl #5
 3d0:	000002c4 	andeq	r0, r0, r4, asr #5
 3d4:	000002cc 	andeq	r0, r0, ip, asr #5
	...
 3e0:	000002fc 	strdeq	r0, [r0], -ip
 3e4:	00000300 	andeq	r0, r0, r0, lsl #6
 3e8:	00000304 	andeq	r0, r0, r4, lsl #6
 3ec:	0000030c 	andeq	r0, r0, ip, lsl #6
	...
 3f8:	00000318 	andeq	r0, r0, r8, lsl r3
 3fc:	0000031c 	andeq	r0, r0, ip, lsl r3
 400:	00000320 	andeq	r0, r0, r0, lsr #6
 404:	00000324 	andeq	r0, r0, r4, lsr #6
 408:	00000328 	andeq	r0, r0, r8, lsr #6
 40c:	00000340 	andeq	r0, r0, r0, asr #6
 410:	00000364 	andeq	r0, r0, r4, ror #6
 414:	0000036c 	andeq	r0, r0, ip, ror #6
	...
 420:	00000318 	andeq	r0, r0, r8, lsl r3
 424:	0000031c 	andeq	r0, r0, ip, lsl r3
 428:	00000320 	andeq	r0, r0, r0, lsr #6
 42c:	00000324 	andeq	r0, r0, r4, lsr #6
 430:	00000328 	andeq	r0, r0, r8, lsr #6
 434:	00000340 	andeq	r0, r0, r0, asr #6
 438:	00000364 	andeq	r0, r0, r4, ror #6
 43c:	0000036c 	andeq	r0, r0, ip, ror #6
	...
 448:	00000318 	andeq	r0, r0, r8, lsl r3
 44c:	0000031c 	andeq	r0, r0, ip, lsl r3
 450:	00000320 	andeq	r0, r0, r0, lsr #6
 454:	00000324 	andeq	r0, r0, r4, lsr #6
	...
 460:	0000037c 	andeq	r0, r0, ip, ror r3
 464:	00000398 	muleq	r0, r8, r3
 468:	000003b0 			; <UNDEFINED> instruction: 0x000003b0
 46c:	000003b8 			; <UNDEFINED> instruction: 0x000003b8
	...
 478:	0000037c 	andeq	r0, r0, ip, ror r3
 47c:	00000398 	muleq	r0, r8, r3
 480:	000003b0 			; <UNDEFINED> instruction: 0x000003b0
 484:	000003b8 			; <UNDEFINED> instruction: 0x000003b8
	...
 490:	000003c4 	andeq	r0, r0, r4, asr #7
 494:	000003d4 	ldrdeq	r0, [r0], -r4
 498:	000003f4 	strdeq	r0, [r0], -r4
 49c:	000003fc 	strdeq	r0, [r0], -ip
	...
 4a8:	000003e0 	andeq	r0, r0, r0, ror #7
 4ac:	000003e4 	andeq	r0, r0, r4, ror #7
 4b0:	000003e8 	andeq	r0, r0, r8, ror #7
 4b4:	000003f0 	strdeq	r0, [r0], -r0	; <UNPREDICTABLE>
	...
 4c0:	00000424 	andeq	r0, r0, r4, lsr #8
 4c4:	00000440 	andeq	r0, r0, r0, asr #8
 4c8:	00000478 	andeq	r0, r0, r8, ror r4
 4cc:	00000480 	andeq	r0, r0, r0, lsl #9
	...
 4d8:	00000424 	andeq	r0, r0, r4, lsr #8
 4dc:	00000440 	andeq	r0, r0, r0, asr #8
 4e0:	00000478 	andeq	r0, r0, r8, ror r4
 4e4:	00000480 	andeq	r0, r0, r0, lsl #9
	...
 4f0:	00000024 	andeq	r0, r0, r4, lsr #32
 4f4:	00000078 	andeq	r0, r0, r8, ror r0
 4f8:	000000b0 	strheq	r0, [r0], -r0	; <UNPREDICTABLE>
 4fc:	000000d0 	ldrdeq	r0, [r0], -r0	; <UNPREDICTABLE>
	...
 508:	00000024 	andeq	r0, r0, r4, lsr #32
 50c:	00000078 	andeq	r0, r0, r8, ror r0
 510:	000000b0 	strheq	r0, [r0], -r0	; <UNPREDICTABLE>
 514:	000000d0 	ldrdeq	r0, [r0], -r0	; <UNPREDICTABLE>
	...
 520:	000000a0 	andeq	r0, r0, r0, lsr #1
 524:	000000d4 	ldrdeq	r0, [r0], -r4
 528:	000000d8 	ldrdeq	r0, [r0], -r8
 52c:	000000f4 	strdeq	r0, [r0], -r4
 530:	00000144 	andeq	r0, r0, r4, asr #2
 534:	00000164 	andeq	r0, r0, r4, ror #2
 538:	00000168 	andeq	r0, r0, r8, ror #2
 53c:	0000016c 	andeq	r0, r0, ip, ror #2
	...
 548:	000000a0 	andeq	r0, r0, r0, lsr #1
 54c:	000000d4 	ldrdeq	r0, [r0], -r4
 550:	000000d8 	ldrdeq	r0, [r0], -r8
 554:	000000f4 	strdeq	r0, [r0], -r4
 558:	00000144 	andeq	r0, r0, r4, asr #2
 55c:	00000164 	andeq	r0, r0, r4, ror #2
 560:	00000168 	andeq	r0, r0, r8, ror #2
 564:	0000016c 	andeq	r0, r0, ip, ror #2
	...
 570:	000001b0 			; <UNDEFINED> instruction: 0x000001b0
 574:	000001b4 			; <UNDEFINED> instruction: 0x000001b4
 578:	000002bc 			; <UNDEFINED> instruction: 0x000002bc
 57c:	00000350 	andeq	r0, r0, r0, asr r3
	...
 588:	000001b0 			; <UNDEFINED> instruction: 0x000001b0
 58c:	000001b4 			; <UNDEFINED> instruction: 0x000001b4
 590:	000002bc 			; <UNDEFINED> instruction: 0x000002bc
 594:	00000350 	andeq	r0, r0, r0, asr r3
	...
 5a0:	00000004 	andeq	r0, r0, r4
 5a4:	00000008 	andeq	r0, r0, r8
 5a8:	0000000c 	andeq	r0, r0, ip
 5ac:	00000014 	andeq	r0, r0, r4, lsl r0
 5b0:	00000024 	andeq	r0, r0, r4, lsr #32
 5b4:	0000002c 	andeq	r0, r0, ip, lsr #32
 5b8:	00000030 	andeq	r0, r0, r0, lsr r0
 5bc:	00000034 	andeq	r0, r0, r4, lsr r0
 5c0:	00000044 	andeq	r0, r0, r4, asr #32
 5c4:	00000048 	andeq	r0, r0, r8, asr #32
 5c8:	0000004c 	andeq	r0, r0, ip, asr #32
 5cc:	0000005c 	andeq	r0, r0, ip, asr r0
 5d0:	0000006c 	andeq	r0, r0, ip, rrx
 5d4:	00000070 	andeq	r0, r0, r0, ror r0
 5d8:	00000074 	andeq	r0, r0, r4, ror r0
 5dc:	00000078 	andeq	r0, r0, r8, ror r0
	...
 5e8:	00000014 	andeq	r0, r0, r4, lsl r0
 5ec:	00000018 	andeq	r0, r0, r8, lsl r0
 5f0:	00000020 	andeq	r0, r0, r0, lsr #32
 5f4:	00000024 	andeq	r0, r0, r4, lsr #32
 5f8:	00000034 	andeq	r0, r0, r4, lsr r0
 5fc:	00000040 	andeq	r0, r0, r0, asr #32
 600:	00000064 	andeq	r0, r0, r4, rrx
 604:	0000006c 	andeq	r0, r0, ip, rrx
 608:	00000070 	andeq	r0, r0, r0, ror r0
 60c:	00000074 	andeq	r0, r0, r4, ror r0
 610:	00000080 	andeq	r0, r0, r0, lsl #1
 614:	00000088 	andeq	r0, r0, r8, lsl #1
	...
 620:	00000018 	andeq	r0, r0, r8, lsl r0
 624:	0000001c 	andeq	r0, r0, ip, lsl r0
 628:	0000002c 	andeq	r0, r0, ip, lsr #32
 62c:	00000030 	andeq	r0, r0, r0, lsr r0
 630:	00000040 	andeq	r0, r0, r0, asr #32
 634:	00000044 	andeq	r0, r0, r4, asr #32
 638:	00000048 	andeq	r0, r0, r8, asr #32
 63c:	0000004c 	andeq	r0, r0, ip, asr #32
 640:	0000005c 	andeq	r0, r0, ip, asr r0
 644:	00000064 	andeq	r0, r0, r4, rrx
 648:	00000078 	andeq	r0, r0, r8, ror r0
 64c:	00000080 	andeq	r0, r0, r0, lsl #1
	...
 658:	0000001c 	andeq	r0, r0, ip, lsl r0
 65c:	00000020 	andeq	r0, r0, r0, lsr #32
 660:	00000088 	andeq	r0, r0, r8, lsl #1
 664:	000000cc 	andeq	r0, r0, ip, asr #1
	...
 670:	0000001c 	andeq	r0, r0, ip, lsl r0
 674:	00000020 	andeq	r0, r0, r0, lsr #32
 678:	00000088 	andeq	r0, r0, r8, lsl #1
 67c:	000000cc 	andeq	r0, r0, ip, asr #1
	...
 688:	00000034 	andeq	r0, r0, r4, lsr r0
 68c:	00000048 	andeq	r0, r0, r8, asr #32
 690:	0000004c 	andeq	r0, r0, ip, asr #32
 694:	00000060 	andeq	r0, r0, r0, rrx
	...
 6a0:	00000034 	andeq	r0, r0, r4, lsr r0
 6a4:	00000048 	andeq	r0, r0, r8, asr #32
 6a8:	0000004c 	andeq	r0, r0, ip, asr #32
 6ac:	00000060 	andeq	r0, r0, r0, rrx
	...
 6b8:	00000008 	andeq	r0, r0, r8
 6bc:	00000064 	andeq	r0, r0, r4, rrx
 6c0:	00000068 	andeq	r0, r0, r8, rrx
 6c4:	0000008c 	andeq	r0, r0, ip, lsl #1
 6c8:	00000098 	muleq	r0, r8, r0
 6cc:	000000a0 	andeq	r0, r0, r0, lsr #1
	...
 6d8:	00000008 	andeq	r0, r0, r8
 6dc:	00000064 	andeq	r0, r0, r4, rrx
 6e0:	00000068 	andeq	r0, r0, r8, rrx
 6e4:	0000008c 	andeq	r0, r0, ip, lsl #1
 6e8:	00000098 	muleq	r0, r8, r0
 6ec:	000000a0 	andeq	r0, r0, r0, lsr #1
	...
 6f8:	0000002c 	andeq	r0, r0, ip, lsr #32
 6fc:	00000034 	andeq	r0, r0, r4, lsr r0
 700:	00000068 	andeq	r0, r0, r8, rrx
 704:	0000008c 	andeq	r0, r0, ip, lsl #1
 708:	00000098 	muleq	r0, r8, r0
 70c:	000000a0 	andeq	r0, r0, r0, lsr #1
	...
 718:	0000002c 	andeq	r0, r0, ip, lsr #32
 71c:	00000034 	andeq	r0, r0, r4, lsr r0
 720:	00000068 	andeq	r0, r0, r8, rrx
 724:	0000008c 	andeq	r0, r0, ip, lsl #1
 728:	00000098 	muleq	r0, r8, r0
 72c:	000000a0 	andeq	r0, r0, r0, lsr #1
	...
 738:	00000068 	andeq	r0, r0, r8, rrx
 73c:	00000074 	andeq	r0, r0, r4, ror r0
 740:	00000078 	andeq	r0, r0, r8, ror r0
 744:	00000084 	andeq	r0, r0, r4, lsl #1
 748:	00000098 	muleq	r0, r8, r0
 74c:	000000a0 	andeq	r0, r0, r0, lsr #1
	...
 758:	0000008c 	andeq	r0, r0, ip, lsl #1
 75c:	00000090 	muleq	r0, r0, r0
 760:	00000094 	muleq	r0, r4, r0
 764:	00000098 	muleq	r0, r8, r0
	...
 770:	000000f4 	strdeq	r0, [r0], -r4
 774:	000001e8 	andeq	r0, r0, r8, ror #3
 778:	000001f4 	strdeq	r0, [r0], -r4
 77c:	000001fc 	strdeq	r0, [r0], -ip
	...
 788:	000000f4 	strdeq	r0, [r0], -r4
 78c:	000001e8 	andeq	r0, r0, r8, ror #3
 790:	000001f4 	strdeq	r0, [r0], -r4
 794:	000001fc 	strdeq	r0, [r0], -ip
	...
 7a0:	000001c4 	andeq	r0, r0, r4, asr #3
 7a4:	000001e8 	andeq	r0, r0, r8, ror #3
 7a8:	000001f4 	strdeq	r0, [r0], -r4
 7ac:	000001fc 	strdeq	r0, [r0], -ip
	...
 7b8:	000001c4 	andeq	r0, r0, r4, asr #3
 7bc:	000001e8 	andeq	r0, r0, r8, ror #3
 7c0:	000001f4 	strdeq	r0, [r0], -r4
 7c4:	000001fc 	strdeq	r0, [r0], -ip
	...
 7d0:	000001c4 	andeq	r0, r0, r4, asr #3
 7d4:	000001d0 	ldrdeq	r0, [r0], -r0	; <UNPREDICTABLE>
 7d8:	000001d4 	ldrdeq	r0, [r0], -r4
 7dc:	000001e0 	andeq	r0, r0, r0, ror #3
 7e0:	000001f4 	strdeq	r0, [r0], -r4
 7e4:	000001fc 	strdeq	r0, [r0], -ip
	...
 7f0:	000001e8 	andeq	r0, r0, r8, ror #3
 7f4:	000001f4 	strdeq	r0, [r0], -r4
 7f8:	00000280 	andeq	r0, r0, r0, lsl #5
 7fc:	0000030c 	andeq	r0, r0, ip, lsl #6
	...
 808:	000001e8 	andeq	r0, r0, r8, ror #3
 80c:	000001f4 	strdeq	r0, [r0], -r4
 810:	00000280 	andeq	r0, r0, r0, lsl #5
 814:	0000030c 	andeq	r0, r0, ip, lsl #6
	...
 820:	00000354 	andeq	r0, r0, r4, asr r3
 824:	00000360 	andeq	r0, r0, r0, ror #6
 828:	00000364 	andeq	r0, r0, r4, ror #6
 82c:	00000368 	andeq	r0, r0, r8, ror #6
	...
 838:	00000010 	andeq	r0, r0, r0, lsl r0
 83c:	00000014 	andeq	r0, r0, r4, lsl r0
 840:	0000001c 	andeq	r0, r0, ip, lsl r0
 844:	00000034 	andeq	r0, r0, r4, lsr r0
	...
 850:	00000060 	andeq	r0, r0, r0, rrx
 854:	00000074 	andeq	r0, r0, r4, ror r0
 858:	00000084 	andeq	r0, r0, r4, lsl #1
 85c:	00000088 	andeq	r0, r0, r8, lsl #1
	...
 868:	0000019c 	muleq	r0, ip, r1
 86c:	000001a0 	andeq	r0, r0, r0, lsr #3
 870:	000001a4 	andeq	r0, r0, r4, lsr #3
 874:	000001ac 	andeq	r0, r0, ip, lsr #3
	...
 880:	0000024c 	andeq	r0, r0, ip, asr #4
 884:	00000254 	andeq	r0, r0, r4, asr r2
 888:	00000258 	andeq	r0, r0, r8, asr r2
 88c:	00000268 	andeq	r0, r0, r8, ror #4
	...
 898:	00000370 	andeq	r0, r0, r0, ror r3
 89c:	00000378 	andeq	r0, r0, r8, ror r3
 8a0:	0000037c 	andeq	r0, r0, ip, ror r3
 8a4:	0000046c 	andeq	r0, r0, ip, ror #8
	...
 8b0:	00000370 	andeq	r0, r0, r0, ror r3
 8b4:	00000378 	andeq	r0, r0, r8, ror r3
 8b8:	0000037c 	andeq	r0, r0, ip, ror r3
 8bc:	0000046c 	andeq	r0, r0, ip, ror #8
	...
 8c8:	00000560 	andeq	r0, r0, r0, ror #10
 8cc:	000005a0 	andeq	r0, r0, r0, lsr #11
 8d0:	000005b8 			; <UNDEFINED> instruction: 0x000005b8
 8d4:	00000690 	muleq	r0, r0, r6
 8d8:	00000698 	muleq	r0, r8, r6
 8dc:	000008b4 			; <UNDEFINED> instruction: 0x000008b4
	...
 8e8:	00000560 	andeq	r0, r0, r0, ror #10
 8ec:	00000584 	andeq	r0, r0, r4, lsl #11
 8f0:	000007d8 	ldrdeq	r0, [r0], -r8
 8f4:	0000085c 	andeq	r0, r0, ip, asr r8
 8f8:	0000086c 	andeq	r0, r0, ip, ror #16
 8fc:	000008b4 			; <UNDEFINED> instruction: 0x000008b4
	...
 908:	00000560 	andeq	r0, r0, r0, ror #10
 90c:	00000584 	andeq	r0, r0, r4, lsl #11
 910:	000007d8 	ldrdeq	r0, [r0], -r8
 914:	0000085c 	andeq	r0, r0, ip, asr r8
 918:	0000086c 	andeq	r0, r0, ip, ror #16
 91c:	000008b4 			; <UNDEFINED> instruction: 0x000008b4
	...
 928:	00000584 	andeq	r0, r0, r4, lsl #11
 92c:	000005a0 	andeq	r0, r0, r0, lsr #11
 930:	000005b8 			; <UNDEFINED> instruction: 0x000005b8
 934:	00000600 	andeq	r0, r0, r0, lsl #12
 938:	00000604 	andeq	r0, r0, r4, lsl #12
 93c:	00000610 	andeq	r0, r0, r0, lsl r6
 940:	00000614 	andeq	r0, r0, r4, lsl r6
 944:	0000066c 	andeq	r0, r0, ip, ror #12
	...
 950:	00000584 	andeq	r0, r0, r4, lsl #11
 954:	000005a0 	andeq	r0, r0, r0, lsr #11
 958:	000005b8 			; <UNDEFINED> instruction: 0x000005b8
 95c:	00000600 	andeq	r0, r0, r0, lsl #12
 960:	00000604 	andeq	r0, r0, r4, lsl #12
 964:	00000610 	andeq	r0, r0, r0, lsl r6
 968:	00000614 	andeq	r0, r0, r4, lsl r6
 96c:	0000066c 	andeq	r0, r0, ip, ror #12
	...
 978:	00000584 	andeq	r0, r0, r4, lsl #11
 97c:	000005a0 	andeq	r0, r0, r0, lsr #11
 980:	000005f4 	strdeq	r0, [r0], -r4
 984:	00000600 	andeq	r0, r0, r0, lsl #12
 988:	00000604 	andeq	r0, r0, r4, lsl #12
 98c:	00000610 	andeq	r0, r0, r0, lsl r6
	...
 998:	00000584 	andeq	r0, r0, r4, lsl #11
 99c:	00000588 	andeq	r0, r0, r8, lsl #11
 9a0:	0000058c 	andeq	r0, r0, ip, lsl #11
 9a4:	00000594 	muleq	r0, r4, r5
	...
 9b0:	00000614 	andeq	r0, r0, r4, lsl r6
 9b4:	00000618 	andeq	r0, r0, r8, lsl r6
 9b8:	0000061c 	andeq	r0, r0, ip, lsl r6
 9bc:	00000630 	andeq	r0, r0, r0, lsr r6
	...
 9c8:	00000600 	andeq	r0, r0, r0, lsl #12
 9cc:	00000604 	andeq	r0, r0, r4, lsl #12
 9d0:	00000610 	andeq	r0, r0, r0, lsl r6
 9d4:	00000614 	andeq	r0, r0, r4, lsl r6
 9d8:	00000698 	muleq	r0, r8, r6
 9dc:	0000073c 	andeq	r0, r0, ip, lsr r7
	...
 9e8:	00000600 	andeq	r0, r0, r0, lsl #12
 9ec:	00000604 	andeq	r0, r0, r4, lsl #12
 9f0:	00000610 	andeq	r0, r0, r0, lsl r6
 9f4:	00000614 	andeq	r0, r0, r4, lsl r6
 9f8:	00000698 	muleq	r0, r8, r6
 9fc:	0000073c 	andeq	r0, r0, ip, lsr r7
	...
 a08:	00000420 	andeq	r0, r0, r0, lsr #8
 a0c:	00000514 	andeq	r0, r0, r4, lsl r5
 a10:	00000614 	andeq	r0, r0, r4, lsl r6
 a14:	00000620 	andeq	r0, r0, r0, lsr #12
	...
 a20:	0000058c 	andeq	r0, r0, ip, lsl #11
 a24:	00000614 	andeq	r0, r0, r4, lsl r6
 a28:	00000620 	andeq	r0, r0, r0, lsr #12
 a2c:	00000674 	andeq	r0, r0, r4, ror r6
	...

Disassembly of section .debug_str:

00000000 <.debug_str>:
       0:	75706e69 	ldrbvc	r6, [r0, #-3689]!	; 0xe69
       4:	6d635f74 	stclvs	15, cr5, [r3, #-464]!	; 0xfffffe30
       8:	616d0064 	cmnvs	sp, r4, rrx
       c:	632e6e69 	teqvs	lr, #1680	; 0x690
      10:	6e6f6c00 	cdpvs	12, 6, cr6, cr15, cr0, {0}
      14:	6f6c2067 	svcvs	0x006c2067
      18:	7520676e 	strvc	r6, [r0, #-1902]!	; 0x76e
      1c:	6769736e 	strbvs	r7, [r9, -lr, ror #6]!
      20:	2064656e 	rsbcs	r6, r4, lr, ror #10
      24:	00746e69 	rsbseq	r6, r4, r9, ror #28
      28:	69736e75 	ldmdbvs	r3!, {r0, r2, r4, r5, r6, r9, sl, fp, sp, lr}^
      2c:	64656e67 	strbtvs	r6, [r5], #-3687	; 0xe67
      30:	61686320 	cmnvs	r8, r0, lsr #6
      34:	616d0072 	smcvs	53250	; 0xd002
      38:	67006e69 	strvs	r6, [r0, -r9, ror #28]
      3c:	74736575 	ldrbtvc	r6, [r3], #-1397	; 0x575
      40:	64616f6c 	strbtvs	r6, [r1], #-3948	; 0xf6c
      44:	695f7265 	ldmdbvs	pc, {r0, r2, r5, r6, r9, ip, sp, lr}^	; <UNPREDICTABLE>
      48:	0074696e 	rsbseq	r6, r4, lr, ror #18
      4c:	20554e47 	subscs	r4, r5, r7, asr #28
      50:	2e342043 	cdpcs	0, 3, cr2, cr4, cr3, {2}
      54:	00332e36 	eorseq	r2, r3, r6, lsr lr
      58:	6d6f682f 	stclvs	8, cr6, [pc, #-188]!	; ffffffa4 <restore_guest_end+0x8f8fffa4>
      5c:	61632f65 	cmnvs	r3, r5, ror #30
      60:	6e6f6973 	mcrvs	9, 3, r6, cr15, cr3, {3}
      64:	2f6f6f77 	svccs	0x006f6f77
      68:	7079686b 	rsbsvc	r6, r9, fp, ror #16
      6c:	69767265 	ldmdbvs	r6!, {r0, r2, r5, r6, r9, ip, sp, lr}^
      70:	2f726f73 	svccs	0x00726f73
      74:	74616c70 	strbtvc	r6, [r1], #-3184	; 0xc70
      78:	6d726f66 	ldclvs	15, cr6, [r2, #-408]!	; 0xfffffe68
      7c:	7665642d 	strbtvc	r6, [r5], -sp, lsr #8
      80:	2f656369 	svccs	0x00656369
      84:	74726f63 	ldrbtvc	r6, [r2], #-3939	; 0xf63
      88:	615f7865 	cmpvs	pc, r5, ror #16
      8c:	32783531 	rsbscc	r3, r8, #205520896	; 0xc400000
      90:	6e72615f 	mrcvs	1, 3, r6, cr2, cr15, {2}
      94:	656c6164 	strbvs	r6, [ip, #-356]!	; 0x164
      98:	6575672f 	ldrbvs	r6, [r5, #-1839]!	; 0x72f
      9c:	736f7473 	cmnvc	pc, #1929379840	; 0x73000000
      a0:	6575672f 	ldrbvs	r6, [r5, #-1839]!	; 0x72f
      a4:	6f6c7473 	svcvs	0x006c7473
      a8:	72656461 	rsbvc	r6, r5, #1627389952	; 0x61000000
      ac:	65756700 	ldrbvs	r6, [r5, #-1792]!	; 0x700
      b0:	6f6c7473 	svcvs	0x006c7473
      b4:	72656461 	rsbvc	r6, r5, #1627389952	; 0x61000000
      b8:	616c665f 	cmnvs	ip, pc, asr r6
      bc:	75615f67 	strbvc	r5, [r1, #-3943]!	; 0xf67
      c0:	6f626f74 	svcvs	0x00626f74
      c4:	7300746f 	movwvc	r7, #1135	; 0x46f
      c8:	74726f68 	ldrbtvc	r6, [r2], #-3944	; 0xf68
      cc:	736e7520 	cmnvc	lr, #134217728	; 0x8000000
      d0:	656e6769 	strbvs	r6, [lr, #-1897]!	; 0x769
      d4:	6e692064 	cdpvs	0, 6, cr2, cr9, cr4, {3}
      d8:	6f620074 	svcvs	0x00620074
      dc:	735f746f 	cmpvc	pc, #1862270976	; 0x6f000000
      e0:	75746174 	ldrbvc	r6, [r4, #-372]!	; 0x174
      e4:	75670073 	strbvc	r0, [r7, #-115]!	; 0x73
      e8:	6c747365 	ldclvs	3, cr7, [r4], #-404	; 0xfffffe6c
      ec:	6564616f 	strbvs	r6, [r4, #-367]!	; 0x16f
      f0:	6c635f72 	stclvs	15, cr5, [r3], #-456	; 0xfffffe38
      f4:	6f6f6269 	svcvs	0x006f6269
      f8:	6c660074 	stclvs	0, cr0, [r6], #-464	; 0xfffffe30
      fc:	75006761 	strvc	r6, [r0, #-1889]	; 0x761
     100:	74737265 	ldrbtvc	r7, [r3], #-613	; 0x265
     104:	73007461 	movwvc	r7, #1121	; 0x461
     108:	61697265 	cmnvs	r9, r5, ror #4
     10c:	6e695f6c 	cdpvs	15, 6, cr5, cr9, cr12, {3}
     110:	73007469 	movwvc	r7, #1129	; 0x469
     114:	61697265 	cmnvs	r9, r5, ror #4
     118:	65735f6c 	ldrbvs	r5, [r3, #-3948]!	; 0xf6c
     11c:	67726274 			; <UNDEFINED> instruction: 0x67726274
     120:	7665645f 			; <UNDEFINED> instruction: 0x7665645f
     124:	72627500 	rsbvc	r7, r2, #0
     128:	00766964 	rsbseq	r6, r6, r4, ror #18
     12c:	6f636d75 	svcvs	0x00636d75
     130:	6175006e 	cmnvs	r5, lr, rrx
     134:	625f7472 	subsvs	r7, pc, #1912602624	; 0x72000000
     138:	5f657361 	svcpl	0x00657361
     13c:	73006e69 	movwvc	r6, #3689	; 0xe69
     140:	61697265 	cmnvs	r9, r5, ror #4
     144:	72655f6c 	rsbvc	r5, r5, #432	; 0x1b0
     148:	68635f72 	stmdavs	r3!, {r1, r4, r5, r6, r8, r9, sl, fp, ip, lr}^
     14c:	006b6365 	rsbeq	r6, fp, r5, ror #6
     150:	69726573 	ldmdbvs	r2!, {r0, r1, r4, r5, r6, r8, sl, sp, lr}^
     154:	705f6c61 	subsvc	r6, pc, r1, ror #24
     158:	00637475 	rsbeq	r7, r3, r5, ror r4
     15c:	6b6c6375 	blvs	1b18f38 <LOADER_PHYS_START-0x3e4e70c8>
     160:	73657200 	cmnvc	r5, #0
     164:	6d750031 	ldclvs	0, cr0, [r5, #-196]!	; 0xffffff3c
     168:	74617473 	strbtvc	r7, [r1], #-1139	; 0x473
     16c:	70357300 	eorsvc	r7, r5, r0, lsl #6
     170:	7261755f 	rsbvc	r7, r1, #398458880	; 0x17c00000
     174:	65730074 	ldrbvs	r0, [r3, #-116]!	; 0x74
     178:	61755f74 	cmnvs	r5, r4, ror pc
     17c:	6d5f7472 	cfldrdvs	mvd7, [pc, #-456]	; ffffffbc <restore_guest_end+0x8f8fffbc>
     180:	0065646f 	rsbeq	r6, r5, pc, ror #8
     184:	76697264 	strbtvc	r7, [r9], -r4, ror #4
     188:	2f737265 	svccs	0x00737265
     18c:	69726573 	ldmdbvs	r2!, {r0, r1, r4, r5, r6, r8, sl, sp, lr}^
     190:	735f6c61 	cmpvc	pc, #24832	; 0x6100
     194:	632e7035 	teqvs	lr, #53	; 0x35
     198:	75616200 	strbvc	r6, [r1, #-512]!	; 0x200
     19c:	74617264 	strbtvc	r7, [r1], #-612	; 0x264
     1a0:	65730065 	ldrbvs	r0, [r3, #-101]!	; 0x65
     1a4:	6c616972 	stclvs	9, cr6, [r1], #-456	; 0xfffffe38
     1a8:	7465675f 	strbtvc	r6, [r5], #-1887	; 0x75f
     1ac:	74750063 	ldrbtvc	r0, [r5], #-99	; 0x63
     1b0:	75006878 	strvc	r6, [r0, #-2168]	; 0x878
     1b4:	38746e69 	ldmdacc	r4!, {r0, r3, r5, r6, r9, sl, fp, sp, lr}^
     1b8:	7200745f 	andvc	r7, r0, #1593835520	; 0x5f000000
     1bc:	00327365 	eorseq	r7, r2, r5, ror #6
     1c0:	33736572 	cmncc	r3, #478150656	; 0x1c800000
     1c4:	73667500 	cmnvc	r6, #0
     1c8:	00746174 	rsbseq	r6, r4, r4, ror r1
     1cc:	746f6c73 	strbtvc	r6, [pc], #-3187	; 1d4 <LOADER_PHYS_START-0x3ffffe2c>
     1d0:	72747500 	rsbsvc	r7, r4, #0
     1d4:	74617473 	strbtvc	r7, [r1], #-1139	; 0x473
     1d8:	63667500 	cmnvs	r6, #0
     1dc:	75006e6f 	strvc	r6, [r0, #-3695]	; 0xe6f
     1e0:	5f747261 	svcpl	0x00747261
     1e4:	65736162 	ldrbvs	r6, [r3, #-354]!	; 0x162
     1e8:	74756f5f 	ldrbtvc	r6, [r5], #-3935	; 0xf5f
     1ec:	5f726200 	svcpl	0x00726200
     1f0:	74736572 	ldrbtvc	r6, [r3], #-1394	; 0x572
     1f4:	78727500 	ldmdavc	r2!, {r8, sl, ip, sp, lr}^
     1f8:	68630068 	stmdavs	r3!, {r3, r5, r6}^
     1fc:	5f6b6365 	svcpl	0x006b6365
     200:	74726175 	ldrbtvc	r6, [r2], #-373	; 0x175
     204:	646f6d5f 	strbtvs	r6, [pc], #-3423	; 20c <LOADER_PHYS_START-0x3ffffdf4>
     208:	69750065 	ldmdbvs	r5!, {r0, r2, r5, r6}^
     20c:	3233746e 	eorscc	r7, r3, #1845493760	; 0x6e000000
     210:	7300745f 	movwvc	r7, #1119	; 0x45f
     214:	61697265 	cmnvs	r9, r5, ror #4
     218:	73745f6c 	cmnvc	r4, #432	; 0x1b0
     21c:	69665f74 	stmdbvs	r6!, {r2, r4, r5, r6, r8, r9, sl, fp, ip, lr}^
     220:	75006f66 	strvc	r6, [r0, #-3942]	; 0xf66
     224:	006e6f63 	rsbeq	r6, lr, r3, ror #30
     228:	6f636c75 	svcvs	0x00636c75
     22c:	6975006e 	ldmdbvs	r5!, {r1, r2, r3, r5, r6}^
     230:	3436746e 	ldrtcc	r7, [r6], #-1134	; 0x46e
     234:	7500745f 	strvc	r7, [r0, #-1119]	; 0x45f
     238:	5f747261 	svcpl	0x00747261
     23c:	5f747374 	svcpl	0x00747374
     240:	6f666966 	svcvs	0x00666966
     244:	72617500 	rsbvc	r7, r1, #0
     248:	72705f74 	rsbsvc	r5, r0, #464	; 0x1d0
     24c:	5f746e69 	svcpl	0x00746e69
     250:	33786568 	cmncc	r8, #436207616	; 0x1a000000
     254:	65720032 	ldrbvs	r0, [r2, #-50]!	; 0x32
     258:	6c617674 	stclvs	6, cr7, [r1], #-464	; 0xfffffe30
     25c:	72617500 	rsbvc	r7, r1, #0
     260:	72705f74 	rsbsvc	r5, r0, #464	; 0x1d0
     264:	00746e69 	rsbseq	r6, r4, r9, ror #28
     268:	74726175 	ldrbtvc	r6, [r2], #-373	; 0x175
     26c:	7465675f 	strbtvc	r6, [r5], #-1887	; 0x75f
     270:	61750063 	cmnvs	r5, r3, rrx
     274:	695f7472 	ldmdbvs	pc, {r1, r4, r5, r6, sl, ip, sp, lr}^	; <UNPREDICTABLE>
     278:	0074696e 	rsbseq	r6, r4, lr, ror #18
     27c:	74726175 	ldrbtvc	r6, [r2], #-373	; 0x175
     280:	6972705f 	ldmdbvs	r2!, {r0, r1, r2, r3, r4, r6, ip, sp, lr}^
     284:	685f746e 	ldmdavs	pc, {r1, r2, r3, r5, r6, sl, ip, sp, lr}^	; <UNPREDICTABLE>
     288:	34367865 	ldrtcc	r7, [r6], #-2149	; 0x865
     28c:	72617500 	rsbvc	r7, r1, #0
     290:	65675f74 	strbvs	r5, [r7, #-3956]!	; 0xf74
     294:	64007374 	strvs	r7, [r0], #-884	; 0x374
     298:	65766972 	ldrbvs	r6, [r6, #-2418]!	; 0x972
     29c:	752f7372 	strvc	r7, [pc, #-882]!	; ffffff32 <restore_guest_end+0x8f8fff32>
     2a0:	2e747261 	cdpcs	2, 7, cr7, cr4, cr1, {3}
     2a4:	616d0063 	cmnvs	sp, r3, rrx
     2a8:	00386b73 	eorseq	r6, r8, r3, ror fp
     2ac:	74726175 	ldrbtvc	r6, [r2], #-373	; 0x175
     2b0:	7475705f 	ldrbtvc	r7, [r5], #-95	; 0x5f
     2b4:	616d0063 	cmnvs	sp, r3, rrx
     2b8:	6f635f78 	svcvs	0x00635f78
     2bc:	6e6d756c 	cdpvs	5, 6, cr7, cr13, cr12, {3}
     2c0:	6d697400 	cfstrdvs	mvd7, [r9, #-0]
     2c4:	685f7265 	ldmdavs	pc, {r0, r2, r5, r6, r9, ip, sp, lr}^	; <UNPREDICTABLE>
     2c8:	6c646e61 	stclvs	14, cr6, [r4], #-388	; 0xfffffe7c
     2cc:	64007265 	strvs	r7, [r0], #-613	; 0x265
     2d0:	65766972 	ldrbvs	r6, [r6, #-2418]!	; 0x972
     2d4:	742f7372 	strtvc	r7, [pc], #-882	; 2dc <LOADER_PHYS_START-0x3ffffd24>
     2d8:	72656d69 	rsbvc	r6, r5, #6720	; 0x1a40
     2dc:	7000632e 	andvc	r6, r0, lr, lsr #6
     2e0:	73676572 	cmnvc	r7, #478150656	; 0x1c800000
     2e4:	61647000 	cmnvs	r4, r0
     2e8:	74006174 	strvc	r6, [r0], #-372	; 0x174
     2ec:	72656d69 	rsbvc	r6, r5, #6720	; 0x1a40
     2f0:	7369645f 	cmnvc	r9, #1593835520	; 0x5f000000
     2f4:	656c6261 	strbvs	r6, [ip, #-609]!	; 0x261
     2f8:	6d697400 	cfstrdvs	mvd7, [r9, #-0]
     2fc:	695f7265 	ldmdbvs	pc, {r0, r2, r5, r6, r9, ip, sp, lr}^	; <UNPREDICTABLE>
     300:	0074696e 	rsbseq	r6, r4, lr, ror #18
     304:	656d6974 	strbvs	r6, [sp, #-2420]!	; 0x974
     308:	6e655f72 	mcrvs	15, 3, r5, cr5, cr2, {3}
     30c:	656c6261 	strbvs	r6, [ip, #-609]!	; 0x261
     310:	6f6f6200 	svcvs	0x006f6200
     314:	756f6374 	strbvc	r6, [pc, #-884]!	; ffffffa8 <restore_guest_end+0x8f8fffa8>
     318:	7300746e 	movwvc	r7, #1134	; 0x46e
     31c:	675f7035 	smmlarvs	pc, r5, r0, r7	; <UNPREDICTABLE>
     320:	5f6f6970 	svcpl	0x006f6970
     324:	5f746567 	svcpl	0x00746567
     328:	6b6e6162 	blvs	1b988b8 <LOADER_PHYS_START-0x3e467748>
     32c:	62616c00 	rsbvs	r6, r1, #0
     330:	73006c65 	movwvc	r6, #3173	; 0xc65
     334:	675f7035 	smmlarvs	pc, r5, r0, r7	; <UNPREDICTABLE>
     338:	5f6f6970 	svcpl	0x006f6970
     33c:	5f676663 	svcpl	0x00676663
     340:	006e6970 	rsbeq	r6, lr, r0, ror r9
     344:	5f703573 	svcpl	0x00703573
     348:	6f697067 	svcvs	0x00697067
     34c:	7269645f 	rsbvc	r6, r9, #1593835520	; 0x5f000000
     350:	69746365 	ldmdbvs	r4!, {r0, r2, r5, r6, r8, r9, sp, lr}^
     354:	695f6e6f 	ldmdbvs	pc, {r0, r1, r2, r3, r5, r6, r9, sl, fp, sp, lr}^	; <UNPREDICTABLE>
     358:	7475706e 	ldrbtvc	r7, [r5], #-110	; 0x6e
     35c:	70357300 	eorsvc	r7, r5, r0, lsl #6
     360:	6970675f 	ldmdbvs	r0!, {r0, r1, r2, r3, r4, r6, r8, r9, sl, sp, lr}^
     364:	65735f6f 	ldrbvs	r5, [r3, #-3951]!	; 0xf6f
     368:	61765f74 	cmnvs	r6, r4, ror pc
     36c:	0065756c 	rsbeq	r7, r5, ip, ror #10
     370:	5f703573 	svcpl	0x00703573
     374:	6f697067 	svcvs	0x00697067
     378:	7465735f 	strbtvc	r7, [r5], #-863	; 0x35f
     37c:	7461725f 	strbtvc	r7, [r1], #-607	; 0x25f
     380:	35730065 	ldrbcc	r0, [r3, #-101]!	; 0x65
     384:	70675f70 	rsbvc	r5, r7, r0, ror pc
     388:	735f6f69 	cmpvc	pc, #420	; 0x1a4
     38c:	705f7465 	subsvc	r7, pc, r5, ror #8
     390:	006c6c75 	rsbeq	r6, ip, r5, ror ip
     394:	6f697067 	svcvs	0x00697067
     398:	6572665f 	ldrbvs	r6, [r2, #-1631]!	; 0x65f
     39c:	72640065 	rsbvc	r0, r4, #101	; 0x65
     3a0:	72657669 	rsbvc	r7, r5, #110100480	; 0x6900000
     3a4:	70672f73 	rsbvc	r2, r7, r3, ror pc
     3a8:	632e6f69 	teqvs	lr, #420	; 0x1a4
     3ac:	70357300 	eorsvc	r7, r5, r0, lsl #6
     3b0:	6970675f 	ldmdbvs	r0!, {r0, r1, r2, r3, r4, r6, r8, r9, sl, sp, lr}^
     3b4:	61625f6f 	cmnvs	r2, pc, ror #30
     3b8:	73006573 	movwvc	r6, #1395	; 0x573
     3bc:	675f7035 	smmlarvs	pc, r5, r0, r7	; <UNPREDICTABLE>
     3c0:	5f6f6970 	svcpl	0x006f6970
     3c4:	74726170 	ldrbtvc	r6, [r2], #-368	; 0x170
     3c8:	78616d5f 	stmdavc	r1!, {r0, r1, r2, r3, r4, r6, r8, sl, fp, sp, lr}^
     3cc:	69706700 	ldmdbvs	r0!, {r8, r9, sl, sp, lr}^
     3d0:	65725f6f 	ldrbvs	r5, [r2, #-3951]!	; 0xf6f
     3d4:	73657571 	cmnvc	r5, #473956352	; 0x1c400000
     3d8:	35730074 	ldrbcc	r0, [r3, #-116]!	; 0x74
     3dc:	70675f70 	rsbvc	r5, r7, r0, ror pc
     3e0:	675f6f69 	ldrbvs	r6, [pc, -r9, ror #30]
     3e4:	705f7465 	subsvc	r7, pc, r5, ror #8
     3e8:	70006e69 	andvc	r6, r0, r9, ror #28
     3ec:	705f6e64 	subsvc	r6, pc, r4, ror #28
     3f0:	006c6c75 	rsbeq	r6, ip, r5, ror ip
     3f4:	5f703573 	svcpl	0x00703573
     3f8:	6f697067 	svcvs	0x00697067
     3fc:	6e61625f 	mcrvs	2, 3, r6, cr1, cr15, {2}
     400:	3573006b 	ldrbcc	r0, [r3, #-107]!	; 0x6b
     404:	70675f70 	rsbvc	r5, r7, r0, ror pc
     408:	735f6f69 	cmpvc	pc, #420	; 0x1a4
     40c:	645f7465 	ldrbvs	r7, [pc], #-1125	; 414 <LOADER_PHYS_START-0x3ffffbec>
     410:	73007672 	movwvc	r7, #1650	; 0x672
     414:	675f7035 	smmlarvs	pc, r5, r0, r7	; <UNPREDICTABLE>
     418:	5f6f6970 	svcpl	0x006f6970
     41c:	65726964 	ldrbvs	r6, [r2, #-2404]!	; 0x964
     420:	6f697463 	svcvs	0x00697463
     424:	756f5f6e 	strbvc	r5, [pc, #-3950]!	; fffff4be <restore_guest_end+0x8f8ff4be>
     428:	74757074 	ldrbtvc	r7, [r5], #-116	; 0x74
     42c:	69706700 	ldmdbvs	r0!, {r8, r9, sl, sp, lr}^
     430:	6470006f 	ldrbtvs	r0, [r0], #-111	; 0x6f
     434:	6f635f6e 	svcvs	0x00635f6e
     438:	3573006e 	ldrbcc	r0, [r3, #-110]!	; 0x6e
     43c:	70675f70 	rsbvc	r5, r7, r0, ror pc
     440:	675f6f69 	ldrbvs	r6, [pc, -r9, ror #30]
     444:	765f7465 	ldrbvc	r7, [pc], -r5, ror #8
     448:	65756c61 	ldrbvs	r6, [r5, #-3169]!	; 0xc61
     44c:	696e6900 	stmdbvs	lr!, {r8, fp, sp, lr}^
     450:	72705f74 	rsbsvc	r5, r0, #464	; 0x1d0
     454:	00746e69 	rsbseq	r6, r4, r9, ror #28
     458:	2e2f2e2e 	cdpcs	14, 2, cr2, cr15, cr14, {1}
     45c:	2e2e2f2e 	cdpcs	15, 2, cr2, cr14, cr14, {1}
     460:	2f2e2e2f 	svccs	0x002e2e2f
     464:	6d6d6f63 	stclvs	15, cr6, [sp, #-396]!	; 0xfffffe74
     468:	6c2f6e6f 	stcvs	14, cr6, [pc], #-444	; 2b4 <LOADER_PHYS_START-0x3ffffd4c>
     46c:	702f676f 	eorvc	r6, pc, pc, ror #14
     470:	746e6972 	strbtvc	r6, [lr], #-2418	; 0x972
     474:	5f00632e 	svcpl	0x0000632e
     478:	0070615f 	rsbseq	r6, r0, pc, asr r1
     47c:	61765f5f 	cmnvs	r6, pc, asr pc
     480:	73696c5f 	cmnvc	r9, #24320	; 0x5f00
     484:	6f660074 	svcvs	0x00660074
     488:	74616d72 	strbtvc	r6, [r1], #-3442	; 0xd72
     48c:	69727000 	ldmdbvs	r2!, {ip, sp, lr}^
     490:	0048746e 	subeq	r7, r8, lr, ror #8
     494:	6e616373 	mcrvs	3, 3, r6, cr1, cr3, {3}
     498:	696b7300 	stmdbvs	fp!, {r8, r9, ip, sp, lr}^
     49c:	5f6e0070 	svcpl	0x006e0070
     4a0:	72616863 	rsbvc	r6, r1, #6488064	; 0x630000
     4a4:	73690073 	cmnvc	r9, #115	; 0x73
     4a8:	63617073 	cmnvs	r1, #115	; 0x73
     4ac:	696c0065 	stmdbvs	ip!, {r0, r2, r5, r6}^
     4b0:	61726574 	cmnvs	r2, r4, ror r5
     4b4:	6170006c 	cmnvs	r0, ip, rrx
     4b8:	5f657372 	svcpl	0x00657372
     4bc:	00786568 	rsbseq	r6, r8, r8, ror #10
     4c0:	64787369 	ldrbtvs	r7, [r8], #-873	; 0x369
     4c4:	74696769 	strbtvc	r6, [r9], #-1897	; 0x769
     4c8:	64736900 	ldrbtvs	r6, [r3], #-2304	; 0x900
     4cc:	74696769 	strbtvc	r6, [r9], #-1897	; 0x769
     4d0:	766c7500 	strbtvc	r7, [ip], -r0, lsl #10
     4d4:	73006c61 	movwvc	r6, #3169	; 0xc61
     4d8:	706f7073 	rsbvc	r7, pc, r3, ror r0	; <UNPREDICTABLE>
     4dc:	6e696d00 	cdpvs	13, 6, cr6, cr9, cr0, {0}
     4e0:	73007375 	movwvc	r7, #885	; 0x375
     4e4:	65657073 	strbvs	r7, [r5, #-115]!	; 0x73
     4e8:	6b73006b 	blvs	1cc069c <LOADER_PHYS_START-0x3e33f964>
     4ec:	735f7069 	cmpvc	pc, #105	; 0x69
     4f0:	65636170 	strbvs	r6, [r3, #-368]!	; 0x170
     4f4:	2e2e0073 	mcrcs	0, 1, r0, cr14, cr3, {3}
     4f8:	2f2e2e2f 	svccs	0x002e2e2f
     4fc:	2e2f2e2e 	cdpcs	14, 2, cr2, cr15, cr14, {1}
     500:	6f632f2e 	svcvs	0x00632f2e
     504:	6e6f6d6d 	cdpvs	13, 6, cr6, cr15, cr13, {3}
     508:	676f6c2f 	strbvs	r6, [pc, -pc, lsr #24]!
     50c:	6373732f 	cmnvs	r3, #-1140850688	; 0xbc000000
     510:	2e666e61 	cdpcs	14, 6, cr6, cr6, cr1, {3}
     514:	61700063 	cmnvs	r0, r3, rrx
     518:	5f657372 	svcpl	0x00657372
     51c:	00636564 	rsbeq	r6, r3, r4, ror #10
     520:	72657375 	rsbvc	r7, r5, #-738197503	; 0xd4000001
     524:	61700070 	cmnvs	r0, r0, ror r0
     528:	5f657372 	svcpl	0x00657372
     52c:	72616863 	rsbvc	r6, r1, #6488064	; 0x630000
     530:	6f6c0073 	svcvs	0x006c0073
     534:	6920676e 	stmdbvs	r0!, {r1, r2, r3, r5, r6, r8, r9, sl, sp, lr}
     538:	7300746e 	movwvc	r7, #1134	; 0x46e
     53c:	6e616373 	mcrvs	3, 3, r6, cr1, cr3, {3}
     540:	61660066 	cmnvs	r6, r6, rrx
     544:	4800656b 	stmdami	r0, {r0, r1, r3, r5, r6, r8, sl, sp, lr}
     548:	44415845 	strbmi	r5, [r1], #-2117	; 0x845
     54c:	4d494345 	stclmi	3, cr4, [r9, #-276]	; 0xfffffeec
     550:	66004c41 	strvs	r4, [r0], -r1, asr #24
     554:	7367616c 	cmnvc	r7, #27
     558:	726f6600 	rsbvc	r6, pc, #0
     55c:	5f74616d 	svcpl	0x0074616d
     560:	6e697270 	mcrvs	2, 3, r7, cr9, cr0, {3}
     564:	2e006974 	mcrcs	9, 0, r6, cr0, cr4, {3}
     568:	2e2e2f2e 	cdpcs	15, 2, cr2, cr14, cr14, {1}
     56c:	2f2e2e2f 	svccs	0x002e2e2f
     570:	632f2e2e 	teqvs	pc, #736	; 0x2e0
     574:	6f6d6d6f 	svcvs	0x006d6d6f
     578:	6f6c2f6e 	svcvs	0x006c2f6e
     57c:	6f662f67 	svcvs	0x00662f67
     580:	74616d72 	strbtvc	r6, [r1], #-3442	; 0xd72
     584:	7000632e 	andvc	r6, r0, lr, lsr #6
     588:	746e6972 	strbtvc	r6, [lr], #-2418	; 0x972
     58c:	6675625f 			; <UNDEFINED> instruction: 0x6675625f
     590:	726f6600 	rsbvc	r6, pc, #0
     594:	5f74616d 	svcpl	0x0074616d
     598:	6e697270 	mcrvs	2, 3, r7, cr9, cr0, {3}
     59c:	6f660074 	svcvs	0x00660074
     5a0:	74616d72 	strbtvc	r6, [r1], #-3442	; 0xd72
     5a4:	7475705f 	ldrbtvc	r7, [r5], #-95	; 0x5f
     5a8:	00745f63 	rsbseq	r5, r4, r3, ror #30
     5ac:	6d726f66 	ldclvs	15, cr6, [r2, #-408]!	; 0xfffffe68
     5b0:	725f7461 	subsvc	r7, pc, #1627389952	; 0x61000000
     5b4:	705f6765 	subsvc	r6, pc, r5, ror #14
     5b8:	00637475 	rsbeq	r7, r3, r5, ror r4
     5bc:	656d756e 	strbvs	r7, [sp, #-1390]!	; 0x56e
     5c0:	61636972 	smcvs	13970	; 0x3692
     5c4:	6f66006c 	svcvs	0x0066006c
     5c8:	74616d72 	strbtvc	r6, [r1], #-3442	; 0xd72
     5cc:	6765725f 			; <UNDEFINED> instruction: 0x6765725f
     5d0:	7475705f 	ldrbtvc	r7, [r5], #-95	; 0x5f
     5d4:	6f660073 	svcvs	0x00660073
     5d8:	74616d72 	strbtvc	r6, [r1], #-3442	; 0xd72
     5dc:	7475705f 	ldrbtvc	r7, [r5], #-95	; 0x5f
     5e0:	6f660073 	svcvs	0x00660073
     5e4:	74616d72 	strbtvc	r6, [r1], #-3442	; 0xd72
     5e8:	7475705f 	ldrbtvc	r7, [r5], #-95	; 0x5f
     5ec:	6f660063 	svcvs	0x00660063
     5f0:	74616d72 	strbtvc	r6, [r1], #-3442	; 0xd72
     5f4:	7475705f 	ldrbtvc	r7, [r5], #-95	; 0x5f
     5f8:	00745f73 	rsbseq	r5, r4, r3, ror pc
     5fc:	72735f5f 	rsbsvc	r5, r3, #380	; 0x17c
     600:	69730063 	ldmdbvs	r3!, {r0, r1, r5, r6}^
     604:	745f657a 	ldrbvc	r6, [pc], #-1402	; 60c <LOADER_PHYS_START-0x3ffff9f4>
     608:	6d656d00 	stclvs	13, cr6, [r5, #-0]
     60c:	00706d63 	rsbseq	r6, r0, r3, ror #26
     610:	6d6d656d 	cfstr64vs	mvdx6, [sp, #-436]!	; 0xfffffe4c
     614:	0065766f 	rsbeq	r7, r5, pc, ror #12
     618:	65645f5f 	strbvs	r5, [r4, #-3935]!	; 0xf5f
     61c:	6d007473 	cfstrsvs	mvf7, [r0, #-460]	; 0xfffffe34
     620:	68636d65 	stmdavs	r3!, {r0, r2, r5, r6, r8, sl, fp, sp, lr}^
     624:	74730072 	ldrbtvc	r0, [r3], #-114	; 0x72
     628:	72686372 	rsbvc	r6, r8, #-939524095	; 0xc8000001
     62c:	72747300 	rsbsvc	r7, r4, #0
     630:	006e656c 	rsbeq	r6, lr, ip, ror #10
     634:	5f6d7261 	svcpl	0x006d7261
     638:	73786568 	cmnvc	r8, #436207616	; 0x1a000000
     63c:	75327274 	ldrvc	r7, [r2, #-628]!	; 0x274
     640:	00746e69 	rsbseq	r6, r4, r9, ror #28
     644:	63727473 	cmnvs	r2, #1929379840	; 0x73000000
     648:	73007970 	movwvc	r7, #2416	; 0x970
     64c:	61637274 	smcvs	14116	; 0x3724
     650:	656d0074 	strbvs	r0, [sp, #-116]!	; 0x74
     654:	7465736d 	strbtvc	r7, [r5], #-877	; 0x36d
     658:	6d5f5f00 	ldclvs	15, cr5, [pc, #-0]	; 660 <LOADER_PHYS_START-0x3ffff9a0>
     65c:	6f6d6d65 	svcvs	0x006d6d65
     660:	645f6576 	ldrbvs	r6, [pc], #-1398	; 668 <LOADER_PHYS_START-0x3ffff998>
     664:	006e776f 	rsbeq	r7, lr, pc, ror #14
     668:	5f6d7261 	svcpl	0x006d7261
     66c:	746e6975 	strbtvc	r6, [lr], #-2421	; 0x975
     670:	78656832 	stmdavc	r5!, {r1, r4, r5, fp, sp, lr}^
     674:	00727473 	rsbseq	r7, r2, r3, ror r4
     678:	63786568 	cmnvs	r8, #436207616	; 0x1a000000
     67c:	73726168 	cmnvc	r2, #26
     680:	6d726100 	ldfvse	f6, [r2, #-0]
     684:	7274735f 	rsbsvc	r7, r4, #2080374785	; 0x7c000001
     688:	746e6932 	strbtvc	r6, [lr], #-2354	; 0x932
     68c:	6d5f5f00 	ldclvs	15, cr5, [pc, #-0]	; 694 <LOADER_PHYS_START-0x3ffff96c>
     690:	6f6d6d65 	svcvs	0x006d6d65
     694:	755f6576 	ldrbvc	r6, [pc, #-1398]	; 126 <LOADER_PHYS_START-0x3ffffeda>
     698:	74730070 	ldrbtvc	r0, [r3], #-112	; 0x70
     69c:	706d6372 	rsbvc	r6, sp, r2, ror r3
     6a0:	6d656d00 	stclvs	13, cr6, [r5, #-0]
     6a4:	00797063 	rsbseq	r7, r9, r3, rrx
     6a8:	6e727473 	mrcvs	4, 3, r7, cr2, cr3, {3}
     6ac:	00706d63 	rsbseq	r6, r0, r3, ror #26
     6b0:	2e2f2e2e 	cdpcs	14, 2, cr2, cr15, cr14, {1}
     6b4:	2e2e2f2e 	cdpcs	15, 2, cr2, cr14, cr14, {1}
     6b8:	2f2e2e2f 	svccs	0x002e2e2f
     6bc:	6d6d6f63 	stclvs	15, cr6, [sp, #-396]!	; 0xfffffe74
     6c0:	6c2f6e6f 	stcvs	14, cr6, [pc], #-444	; 50c <LOADER_PHYS_START-0x3ffffaf4>
     6c4:	732f676f 	teqvc	pc, #29097984	; 0x1bc0000
     6c8:	6e697274 	mcrvs	2, 3, r7, cr9, cr4, {3}
     6cc:	00632e67 	rsbeq	r2, r3, r7, ror #28
     6d0:	6378655f 	cmnvs	r8, #398458880	; 0x17c00000
     6d4:	5f747065 	svcpl	0x00747065
     6d8:	61686e75 	smcvs	34533	; 0x86e5
     6dc:	656c646e 	strbvs	r6, [ip, #-1134]!	; 0x46e
     6e0:	2e2e0064 	cdpcs	0, 2, cr0, cr14, cr4, {3}
     6e4:	2f2e2e2f 	svccs	0x002e2e2f
     6e8:	2e2f2e2e 	cdpcs	14, 2, cr2, cr15, cr14, {1}
     6ec:	6f632f2e 	svcvs	0x00632f2e
     6f0:	6e6f6d6d 	cdpvs	13, 6, cr6, cr15, cr13, {3}
     6f4:	6575672f 	ldrbvs	r6, [r5, #-1839]!	; 0x72f
     6f8:	632f7473 	teqvs	pc, #1929379840	; 0x73000000
     6fc:	2f65726f 	svccs	0x0065726f
     700:	65637865 	strbvs	r7, [r3, #-2149]!	; 0x865
     704:	6f697470 	svcvs	0x00697470
     708:	00632e6e 	rsbeq	r2, r3, lr, ror #28
     70c:	72737063 	rsbsvc	r7, r3, #99	; 0x63
     710:	63726100 	cmnvs	r2, #0
     714:	65725f68 	ldrbvs	r5, [r2, #-3944]!	; 0xf68
     718:	5f007367 	svcpl	0x00007367
     71c:	65637865 	strbvs	r7, [r3, #-2149]!	; 0x865
     720:	695f7470 	ldmdbvs	pc, {r4, r5, r6, sl, ip, sp, lr}^	; <UNPREDICTABLE>
     724:	67007172 	smlsdxvs	r0, r2, r1, r7
     728:	695f6369 	ldmdbvs	pc, {r0, r3, r5, r6, r8, r9, sp, lr}^	; <UNPREDICTABLE>
     72c:	7265746e 	rsbvc	r7, r5, #1845493760	; 0x6e000000
     730:	74707572 	ldrbtvc	r7, [r0], #-1394	; 0x572
     734:	78655f00 	stmdavc	r5!, {r8, r9, sl, fp, ip, lr}^
     738:	74706563 	ldrbtvc	r6, [r0], #-1379	; 0x563
     73c:	6376735f 	cmnvs	r6, #2080374785	; 0x7c000001
     740:	5f616200 	svcpl	0x00616200
     744:	63636967 	cmnvs	r3, #1687552	; 0x19c000
     748:	5f616200 	svcpl	0x00616200
     74c:	64636967 	strbtvs	r6, [r3], #-2407	; 0x967
     750:	4d564800 	ldclmi	8, cr4, [r6, #-0]
     754:	54535f4d 	ldrbpl	r5, [r3], #-3917	; 0xf4d
     758:	53555441 	cmppl	r5, #1090519040	; 0x41000000
     75c:	544f4e5f 	strbpl	r4, [pc], #-3679	; 764 <LOADER_PHYS_START-0x3ffff89c>
     760:	554f465f 	strbpl	r4, [pc, #-1631]	; 109 <LOADER_PHYS_START-0x3ffffef7>
     764:	7200444e 	andvc	r4, r0, #1308622848	; 0x4e000000
     768:	6c757365 	ldclvs	3, cr7, [r5], #-404	; 0xfffffe6c
     76c:	69670074 	stmdbvs	r7!, {r2, r4, r5, r6}^
     770:	6e655f63 	cdpvs	15, 6, cr5, cr5, cr3, {3}
     774:	656c6261 	strbvs	r6, [ip, #-609]!	; 0x261
     778:	7172695f 	cmnvc	r2, pc, asr r9
     77c:	696e6900 	stmdbvs	lr!, {r8, fp, sp, lr}^
     780:	6c616974 	stclvs	9, cr6, [r1], #-464	; 0xfffffe30
     784:	64657a69 	strbtvs	r7, [r5], #-2665	; 0xa69
     788:	63696700 	cmnvs	r9, #0
     78c:	7369645f 	cmnvc	r9, #1593835520	; 0x5f000000
     790:	656c6261 	strbvs	r6, [ip, #-609]!	; 0x261
     794:	7172695f 	cmnvc	r2, pc, asr r9
     798:	4d564800 	ldclmi	8, cr4, [r6, #-0]
     79c:	54535f4d 	ldrbpl	r5, [r3], #-3917	; 0xf4d
     7a0:	53555441 	cmppl	r5, #1090519040	; 0x41000000
     7a4:	4355535f 	cmpmi	r5, #2080374785	; 0x7c000001
     7a8:	53534543 	cmppl	r3, #281018368	; 0x10c00000
     7ac:	63696700 	cmnvs	r9, #0
     7b0:	6d75645f 	cfldrdvs	mvd6, [r5, #-380]!	; 0xfffffe84
     7b4:	65725f70 	ldrbvs	r5, [r2, #-3952]!	; 0xf70
     7b8:	74736967 	ldrbtvc	r6, [r3], #-2407	; 0x967
     7bc:	00737265 	rsbseq	r7, r3, r5, ror #4
     7c0:	6c617672 	stclvs	6, cr7, [r1], #-456	; 0xfffffe38
     7c4:	4d564800 	ldclmi	8, cr4, [r6, #-0]
     7c8:	54535f4d 	ldrbpl	r5, [r3], #-3917	; 0xf4d
     7cc:	53555441 	cmppl	r5, #1090519040	; 0x41000000
     7d0:	4441425f 	strbmi	r4, [r1], #-607	; 0x25f
     7d4:	4343415f 	movtmi	r4, #12639	; 0x315f
     7d8:	00535345 	subseq	r5, r3, r5, asr #6
     7dc:	6369675f 	cmnvs	r9, #24903680	; 0x17c0000
     7e0:	2f2e2e00 	svccs	0x002e2e00
     7e4:	2e2f2e2e 	cdpcs	14, 2, cr2, cr15, cr14, {1}
     7e8:	2e2e2f2e 	cdpcs	15, 2, cr2, cr14, cr14, {1}
     7ec:	6d6f632f 	stclvs	3, cr6, [pc, #-188]!	; 738 <LOADER_PHYS_START-0x3ffff8c8>
     7f0:	2f6e6f6d 	svccs	0x006e6f6d
     7f4:	73657567 	cmnvc	r5, #432013312	; 0x19c00000
     7f8:	6f632f74 	svcvs	0x00632f74
     7fc:	672f6572 			; <UNDEFINED> instruction: 0x672f6572
     800:	632e6369 	teqvs	lr, #-1543503871	; 0xa4000001
     804:	63696700 	cmnvs	r9, #0
     808:	696e695f 	stmdbvs	lr!, {r0, r1, r2, r3, r4, r6, r8, fp, sp, lr}^
     80c:	61760074 	cmnvs	r6, r4, ror r0
     810:	7361625f 	cmnvc	r1, #-268435451	; 0xf0000005
     814:	69670065 	stmdbvs	r7!, {r0, r2, r5, r6}^
     818:	6e695f63 	cdpvs	15, 6, cr5, cr9, cr3, {3}
     81c:	625f7469 	subsvs	r7, pc, #1761607680	; 0x69000000
     820:	61657361 	cmnvs	r5, r1, ror #6
     824:	00726464 	rsbseq	r6, r2, r4, ror #8
     828:	6d6d7668 	stclvs	6, cr7, [sp, #-416]!	; 0xfffffe60
     82c:	6174735f 	cmnvs	r4, pc, asr r3
     830:	5f737574 	svcpl	0x00737574
     834:	69670074 	stmdbvs	r7!, {r2, r4, r5, r6}^
     838:	72695f63 	rsbvc	r5, r9, #396	; 0x18c
     83c:	61685f71 	smcvs	34289	; 0x85f1
     840:	656c646e 	strbvs	r6, [ip, #-1134]!	; 0x46e
     844:	00745f72 	rsbseq	r5, r4, r2, ror pc
     848:	646e6168 	strbtvs	r6, [lr], #-360	; 0x168
     84c:	7372656c 	cmnvc	r2, #452984832	; 0x1b000000
     850:	725f7300 	subsvc	r7, pc, #0
     854:	00386765 	eorseq	r6, r8, r5, ror #14
     858:	7264696d 	rsbvc	r6, r4, #1785856	; 0x1b4000
     85c:	4d564800 	ldclmi	8, cr4, [r6, #-0]
     860:	54535f4d 	ldrbpl	r5, [r3], #-3917	; 0xf4d
     864:	53555441 	cmppl	r5, #1090519040	; 0x41000000
     868:	4e47495f 	mcrmi	9, 2, r4, cr7, cr15, {2}
     86c:	4445524f 	strbmi	r5, [r5], #-591	; 0x24f
     870:	4d564800 	ldclmi	8, cr4, [r6, #-0]
     874:	54535f4d 	ldrbpl	r5, [r3], #-3917	; 0xf4d
     878:	53555441 	cmppl	r5, #1090519040	; 0x41000000
     87c:	5355425f 	cmppl	r5, #-268435451	; 0xf0000005
     880:	69670059 	stmdbvs	r7!, {r0, r3, r4, r6}^
     884:	65735f63 	ldrbvs	r5, [r3, #-3939]!	; 0xf63
     888:	72695f74 	rsbvc	r5, r9, #464	; 0x1d0
     88c:	61685f71 	smcvs	34289	; 0x85f1
     890:	656c646e 	strbvs	r6, [ip, #-1134]!	; 0x46e
     894:	56480072 			; <UNDEFINED> instruction: 0x56480072
     898:	535f4d4d 	cmppl	pc, #4928	; 0x1340
     89c:	55544154 	ldrbpl	r4, [r4, #-340]	; 0x154
     8a0:	4e555f53 	mrcmi	15, 2, r5, cr5, cr3, {2}
     8a4:	574f4e4b 	strbpl	r4, [pc, -fp, asr #28]
     8a8:	52455f4e 	subpl	r5, r5, #312	; 0x138
     8ac:	00524f52 	subseq	r4, r2, r2, asr pc
     8b0:	4d4d5648 	stclmi	6, cr5, [sp, #-288]	; 0xfffffee0
     8b4:	4154535f 	cmpmi	r4, pc, asr r3
     8b8:	5f535554 	svcpl	0x00535554
     8bc:	55534e55 	ldrbpl	r4, [r3, #-3669]	; 0xe55
     8c0:	524f5050 	subpl	r5, pc, #80	; 0x50
     8c4:	5f444554 	svcpl	0x00444554
     8c8:	54414546 	strbpl	r4, [r1], #-1350	; 0x546
     8cc:	00455255 	subeq	r5, r5, r5, asr r2
     8d0:	73757063 	cmnvc	r5, #99	; 0x63
     8d4:	6d766800 	ldclvs	8, cr6, [r6, #-0]
     8d8:	74735f6d 	ldrbtvc	r5, [r3], #-3949	; 0xf6d
     8dc:	73757461 	cmnvc	r5, #1627389952	; 0x61000000
     8e0:	706d7300 	rsbvc	r7, sp, r0, lsl #6
     8e4:	6f72705f 	svcvs	0x0072705f
     8e8:	73736563 	cmnvc	r3, #415236096	; 0x18c00000
     8ec:	695f726f 	ldmdbvs	pc, {r0, r1, r2, r3, r5, r6, r9, ip, sp, lr}^	; <UNPREDICTABLE>
     8f0:	69670064 	stmdbvs	r7!, {r2, r5, r6}^
     8f4:	65745f63 	ldrbvs	r5, [r4, #-3939]!	; 0xf63
     8f8:	765f7473 			; <UNDEFINED> instruction: 0x765f7473
     8fc:	5f766564 	svcpl	0x00766564
     900:	65636361 	strbvs	r6, [r3, #-865]!	; 0x361
     904:	76007373 			; <UNDEFINED> instruction: 0x76007373
     908:	656d6974 	strbvs	r6, [sp, #-2420]!	; 0x974
     90c:	616d5f72 	smcvs	54770	; 0xd5f2
     910:	2e006b73 	vmovcs.16	d0[1], r6
     914:	2e2e2f2e 	cdpcs	15, 2, cr2, cr14, cr14, {1}
     918:	2f2e2e2f 	svccs	0x002e2e2f
     91c:	632f2e2e 	teqvs	pc, #736	; 0x2e0
     920:	6f6d6d6f 	svcvs	0x006d6d6f
     924:	75672f6e 	strbvc	r2, [r7, #-3950]!	; 0xf6e
     928:	2f747365 	svccs	0x00747365
     92c:	74736574 	ldrbtvc	r6, [r3], #-1396	; 0x574
     930:	7365742f 	cmnvc	r5, #788529152	; 0x2f000000
     934:	74765f74 	ldrbtvc	r5, [r6], #-3956	; 0xf74
     938:	72656d69 	rsbvc	r6, r5, #6720	; 0x1a40
     93c:	7600632e 	strvc	r6, [r0], -lr, lsr #6
     940:	6f656469 	svcvs	0x00656469
     944:	6167655f 	cmnvs	r7, pc, asr r5
     948:	0078625f 	rsbseq	r6, r8, pc, asr r2
     94c:	67617461 	strbvs	r7, [r1, -r1, ror #8]!
     950:	7265735f 	rsbvc	r7, r5, #2080374785	; 0x7c000001
     954:	6e6c6169 	powvsez	f6, f4, #1.0
     958:	61700072 	cmnvs	r0, r2, ror r0
     95c:	69736567 	ldmdbvs	r3!, {r0, r1, r2, r5, r6, r8, sl, sp, lr}^
     960:	6100657a 	tstvs	r0, sl, ror r5
     964:	5f676174 	svcpl	0x00676174
     968:	65726f63 	ldrbvs	r6, [r2, #-3939]!	; 0xf63
     96c:	61746100 	cmnvs	r4, r0, lsl #2
     970:	69765f67 	ldmdbvs	r6!, {r0, r1, r2, r5, r6, r8, r9, sl, fp, ip, lr}^
     974:	6c6f6564 	cfstr64vs	mvdx6, [pc], #-400	; 7ec <LOADER_PHYS_START-0x3ffff814>
     978:	73006266 	movwvc	r6, #614	; 0x266
     97c:	70757465 	rsbsvc	r7, r5, r5, ror #8
     980:	646e655f 	strbtvs	r6, [lr], #-1375	; 0x55f
     984:	6761745f 			; <UNDEFINED> instruction: 0x6761745f
     988:	64697600 	strbtvs	r7, [r9], #-1536	; 0x600
     98c:	6d5f6f65 	ldclvs	15, cr6, [pc, #-404]	; 800 <LOADER_PHYS_START-0x3ffff800>
     990:	0065646f 	rsbeq	r6, r5, pc, ror #8
     994:	67617461 	strbvs	r7, [r1, -r1, ror #8]!
     998:	6469765f 	strbtvs	r7, [r9], #-1631	; 0x65f
     99c:	65746f65 	ldrbvs	r6, [r4, #-3941]!	; 0xf65
     9a0:	73007478 	movwvc	r7, #1144	; 0x478
     9a4:	70757465 	rsbsvc	r7, r5, r5, ror #8
     9a8:	6d656d5f 	stclvs	13, cr6, [r5, #-380]!	; 0xfffffe84
     9ac:	6761745f 			; <UNDEFINED> instruction: 0x6761745f
     9b0:	61746100 	cmnvs	r4, r0, lsl #2
     9b4:	74610067 	strbtvc	r0, [r1], #-103	; 0x67
     9b8:	6d5f6761 	ldclvs	7, cr6, [pc, #-388]	; 83c <LOADER_PHYS_START-0x3ffff7c4>
     9bc:	67006d65 	strvs	r6, [r0, -r5, ror #26]
     9c0:	6e656572 	mcrvs	5, 3, r6, cr5, cr2, {3}
     9c4:	736f705f 	cmnvc	pc, #95	; 0x5f
     9c8:	6f6f7200 	svcvs	0x006f7200
     9cc:	76656474 			; <UNDEFINED> instruction: 0x76656474
     9d0:	62666c00 	rsbvs	r6, r6, #0
     9d4:	6e696c5f 	mcrvs	12, 3, r6, cr9, cr15, {2}
     9d8:	6e656c65 	cdpvs	12, 6, cr6, cr5, cr5, {3}
     9dc:	00687467 	rsbeq	r7, r8, r7, ror #8
     9e0:	65657267 	strbvs	r7, [r5, #-615]!	; 0x267
     9e4:	69735f6e 	ldmdbvs	r3!, {r1, r2, r3, r5, r6, r8, r9, sl, fp, ip, lr}^
     9e8:	6300657a 	movwvs	r6, #1402	; 0x57a
     9ec:	616d6d6f 	cmnvs	sp, pc, ror #26
     9f0:	696c646e 	stmdbvs	ip!, {r1, r2, r3, r5, r6, sl, sp, lr}^
     9f4:	7200656e 	andvc	r6, r0, #461373440	; 0x1b800000
     9f8:	5f647673 	svcpl	0x00647673
     9fc:	657a6973 	ldrbvs	r6, [sl, #-2419]!	; 0x973
     a00:	61746100 	cmnvs	r4, r0, lsl #2
     a04:	61725f67 	cmnvs	r2, r7, ror #30
     a08:	7369646d 	cmnvc	r9, #1828716544	; 0x6d000000
     a0c:	7372006b 	cmnvc	r2, #107	; 0x6b
     a10:	705f6476 	subsvc	r6, pc, r6, ror r4	; <UNPREDICTABLE>
     a14:	7200736f 	andvc	r7, r0, #-1140850687	; 0xbc000001
     a18:	705f6465 	subsvc	r6, pc, r5, ror #8
     a1c:	7600736f 	strvc	r7, [r0], -pc, ror #6
     a20:	6f656469 	svcvs	0x00656469
     a24:	6c6f635f 	stclvs	3, cr6, [pc], #-380	; 8b0 <LOADER_PHYS_START-0x3ffff750>
     a28:	65720073 	ldrbvs	r0, [r2, #-115]!	; 0x73
     a2c:	69735f64 	ldmdbvs	r3!, {r2, r5, r6, r8, r9, sl, fp, ip, lr}^
     a30:	6c00657a 	cfstr32vs	mvfx6, [r0], {122}	; 0x7a
     a34:	78756e69 	ldmdavc	r5!, {r0, r3, r5, r6, r9, sl, fp, sp, lr}^
     a38:	64616f6c 	strbtvs	r6, [r1], #-3948	; 0xf6c
     a3c:	735f7265 	cmpvc	pc, #1342177286	; 0x50000006
     a40:	70757465 	rsbsvc	r7, r5, r5, ror #8
     a44:	6174615f 	cmnvs	r4, pc, asr r1
     a48:	6c007367 	stcvs	3, cr7, [r0], {103}	; 0x67
     a4c:	685f6266 	ldmdavs	pc, {r1, r2, r5, r6, r9, sp, lr}^	; <UNPREDICTABLE>
     a50:	68676965 	stmdavs	r7!, {r0, r2, r5, r6, r8, fp, sp, lr}^
     a54:	69680074 	stmdbvs	r8!, {r2, r4, r5, r6}^
     a58:	73006867 	movwvc	r6, #2151	; 0x867
     a5c:	70757465 	rsbsvc	r7, r5, r5, ror #8
     a60:	7665725f 			; <UNDEFINED> instruction: 0x7665725f
     a64:	6f697369 	svcvs	0x00697369
     a68:	61745f6e 	cmnvs	r4, lr, ror #30
     a6c:	6c620067 	stclvs	0, cr0, [r2], #-412	; 0xfffffe64
     a70:	705f6575 	subsvc	r6, pc, r5, ror r5	; <UNPREDICTABLE>
     a74:	7600736f 	strvc	r7, [r0], -pc, ror #6
     a78:	6f656469 	svcvs	0x00656469
     a7c:	6761705f 			; <UNDEFINED> instruction: 0x6761705f
     a80:	705f0065 	subsvc	r0, pc, r5, rrx
     a84:	6d617261 	sfmvs	f7, 2, [r1, #-388]!	; 0xfffffe7c
     a88:	74610073 	strbtvc	r0, [r1], #-115	; 0x73
     a8c:	635f6761 	cmpvs	pc, #25427968	; 0x1840000
     a90:	696c646d 	stmdbvs	ip!, {r0, r2, r3, r5, r6, sl, sp, lr}^
     a94:	6c00656e 	cfstr32vs	mvfx6, [r0], {110}	; 0x6e
     a98:	645f6266 	ldrbvs	r6, [pc], #-614	; aa0 <LOADER_PHYS_START-0x3ffff560>
     a9c:	68747065 	ldmdavs	r4!, {r0, r2, r5, r6, ip, sp, lr}^
     aa0:	74657300 	strbtvc	r7, [r5], #-768	; 0x300
     aa4:	635f7075 	cmpvs	pc, #117	; 0x75
     aa8:	5f65726f 	svcpl	0x0065726f
     aac:	00676174 	rsbeq	r6, r7, r4, ror r1
     ab0:	656e696c 	strbvs	r6, [lr, #-2412]!	; 0x96c
     ab4:	006e656c 	rsbeq	r6, lr, ip, ror #10
     ab8:	65646976 	strbvs	r6, [r4, #-2422]!	; 0x976
     abc:	696c5f6f 	stmdbvs	ip!, {r0, r1, r2, r3, r5, r6, r8, r9, sl, fp, ip, lr}^
     ac0:	0073656e 	rsbseq	r6, r3, lr, ror #10
     ac4:	5f62666c 	svcpl	0x0062666c
     ac8:	657a6973 	ldrbvs	r6, [sl, #-2419]!	; 0x973
     acc:	61746100 	cmnvs	r4, r0, lsl #2
     ad0:	65685f67 	strbvs	r5, [r8, #-3943]!	; 0xf67
     ad4:	72656461 	rsbvc	r6, r5, #1627389952	; 0x61000000
     ad8:	756c6200 	strbvc	r6, [ip, #-512]!	; 0x200
     adc:	69735f65 	ldmdbvs	r3!, {r0, r2, r5, r6, r8, r9, sl, fp, ip, lr}^
     ae0:	6100657a 	tstvs	r0, sl, ror r5
     ae4:	5f676174 	svcpl	0x00676174
     ae8:	65736162 	ldrbvs	r6, [r3, #-354]!	; 0x162
     aec:	6464615f 	strbtvs	r6, [r4], #-351	; 0x15f
     af0:	2e2e0072 	mcrcs	0, 1, r0, cr14, cr2, {3}
     af4:	2f2e2e2f 	svccs	0x002e2e2f
     af8:	2e2f2e2e 	cdpcs	14, 2, cr2, cr15, cr14, {1}
     afc:	6f632f2e 	svcvs	0x00632f2e
     b00:	6e6f6d6d 	cdpvs	13, 6, cr6, cr15, cr13, {3}
     b04:	6575672f 	ldrbvs	r6, [r5, #-1839]!	; 0x72f
     b08:	6c2f7473 	cfstrsvs	mvf7, [pc], #-460	; 944 <LOADER_PHYS_START-0x3ffff6bc>
     b0c:	6564616f 	strbvs	r6, [r4, #-367]!	; 0x16f
     b10:	696c2f72 	stmdbvs	ip!, {r1, r4, r5, r6, r8, r9, sl, fp, sp}^
     b14:	6c78756e 	cfldr64vs	mvdx7, [r8], #-440	; 0xfffffe48
     b18:	6564616f 	strbvs	r6, [r4, #-367]!	; 0x16f
     b1c:	00632e72 	rsbeq	r2, r3, r2, ror lr
     b20:	5f62666c 	svcpl	0x0062666c
     b24:	65736162 	ldrbvs	r6, [r3, #-354]!	; 0x162
     b28:	6e697500 	cdpvs	5, 6, cr7, cr9, cr0, {0}
     b2c:	5f363174 	svcpl	0x00363174
     b30:	69760074 	ldmdbvs	r6!, {r2, r4, r5, r6}^
     b34:	5f6f6564 	svcpl	0x006f6564
     b38:	6e696f70 	mcrvs	15, 3, r6, cr9, cr0, {3}
     b3c:	61007374 	tstvs	r0, r4, ror r3
     b40:	5f676174 	svcpl	0x00676174
     b44:	69766572 	ldmdbvs	r6!, {r1, r4, r5, r6, r8, sl, sp, lr}^
     b48:	6e6f6973 	mcrvs	9, 3, r6, cr15, cr3, {3}
     b4c:	6e696c00 	cdpvs	12, 6, cr6, cr9, cr0, {0}
     b50:	6f6c7875 	svcvs	0x006c7875
     b54:	72656461 	rsbvc	r6, r5, #1627389952	; 0x61000000
     b58:	7465675f 	strbtvc	r6, [r5], #-1887	; 0x75f
     b5c:	6174615f 	cmnvs	r4, pc, asr r1
     b60:	615f7367 	cmpvs	pc, r7, ror #6
     b64:	00726464 	rsbseq	r6, r2, r4, ror #8
     b68:	67617461 	strbvs	r7, [r1, -r1, ror #8]!
     b6c:	696e695f 	stmdbvs	lr!, {r0, r1, r2, r3, r4, r6, r8, fp, sp, lr}^
     b70:	32647274 	rsbcc	r7, r4, #1073741831	; 0x40000007
     b74:	64697600 	strbtvs	r7, [r9], #-1536	; 0x600
     b78:	695f6f65 	ldmdbvs	pc, {r0, r2, r5, r6, r8, r9, sl, fp, sp, lr}^	; <UNPREDICTABLE>
     b7c:	61677673 	smcvs	30563	; 0x7763
     b80:	62666c00 	rsbvs	r6, r6, #0
     b84:	6469775f 	strbtvs	r7, [r9], #-1887	; 0x75f
     b88:	73006874 	movwvc	r6, #2164	; 0x874
     b8c:	70757465 	rsbsvc	r7, r5, r5, ror #8
     b90:	646d635f 	strbtvs	r6, [sp], #-863	; 0x35f
     b94:	656e696c 	strbvs	r6, [lr, #-2412]!	; 0x96c
     b98:	6761745f 			; <UNDEFINED> instruction: 0x6761745f
     b9c:	616f6c00 	cmnvs	pc, r0, lsl #24
     ba0:	5f726564 	svcpl	0x00726564
     ba4:	746f6f62 	strbtvc	r6, [pc], #-3938	; bac <LOADER_PHYS_START-0x3ffff454>
     ba8:	6575675f 	ldrbvs	r6, [r5, #-1887]!	; 0x75f
     bac:	67007473 	smlsdxvs	r0, r3, r4, r7
     bb0:	74736575 	ldrbtvc	r6, [r3], #-1397	; 0x575
     bb4:	6174735f 	cmnvs	r4, pc, asr r3
     bb8:	67007472 	smlsdxvs	r0, r2, r4, r7
     bbc:	74736575 	ldrbtvc	r6, [r3], #-1397	; 0x575
     bc0:	5f736f5f 	svcpl	0x00736f5f
     bc4:	65707974 	ldrbvs	r7, [r0, #-2420]!	; 0x974
     bc8:	66666f00 	strbtvs	r6, [r6], -r0, lsl #30
     bcc:	00746573 	rsbseq	r6, r4, r3, ror r5
     bd0:	79706f63 	ldmdbvc	r0!, {r0, r1, r5, r6, r8, r9, sl, fp, sp, lr}^
     bd4:	616d695f 	cmnvs	sp, pc, asr r9
     bd8:	745f6567 	ldrbvc	r6, [pc], #-1383	; be0 <LOADER_PHYS_START-0x3ffff420>
     bdc:	7364006f 	cmnvc	r4, #111	; 0x6f
     be0:	64615f74 	strbtvs	r5, [r1], #-3956	; 0xf74
     be4:	73007264 	movwvc	r7, #612	; 0x264
     be8:	615f6372 	cmpvs	pc, r2, ror r3	; <UNPREDICTABLE>
     bec:	00726464 	rsbseq	r6, r2, r4, ror #8
     bf0:	73657567 	cmnvc	r5, #432013312	; 0x19c00000
     bf4:	6e655f74 	mcrvs	15, 3, r5, cr5, cr4, {3}
     bf8:	6e650064 	cdpvs	0, 6, cr0, cr5, cr4, {3}
     bfc:	64615f64 	strbtvs	r5, [r1], #-3940	; 0xf64
     c00:	6c007264 	sfmvs	f7, 4, [r0], {100}	; 0x64
     c04:	6564616f 	strbvs	r6, [r4, #-367]!	; 0x16f
     c08:	6e655f72 	mcrvs	15, 3, r5, cr5, cr2, {3}
     c0c:	2e2e0064 	cdpcs	0, 2, cr0, cr14, cr4, {3}
     c10:	2f2e2e2f 	svccs	0x002e2e2f
     c14:	2e2f2e2e 	cdpcs	14, 2, cr2, cr15, cr14, {1}
     c18:	6f632f2e 	svcvs	0x00632f2e
     c1c:	6e6f6d6d 	cdpvs	13, 6, cr6, cr15, cr13, {3}
     c20:	6575672f 	ldrbvs	r6, [r5, #-1839]!	; 0x72f
     c24:	6c2f7473 	cfstrsvs	mvf7, [pc], #-460	; a60 <LOADER_PHYS_START-0x3ffff5a0>
     c28:	6564616f 	strbvs	r6, [r4, #-367]!	; 0x16f
     c2c:	75672f72 	strbvc	r2, [r7, #-3954]!	; 0xf72
     c30:	6c747365 	ldclvs	3, cr7, [r4], #-404	; 0xfffffe6c
     c34:	6564616f 	strbvs	r6, [r4, #-367]!	; 0x16f
     c38:	6f635f72 	svcvs	0x00635f72
     c3c:	6e6f6d6d 	cdpvs	13, 6, cr6, cr15, cr13, {3}
     c40:	6c00632e 	stcvs	3, cr6, [r0], {46}	; 0x2e
     c44:	6564616f 	strbvs	r6, [r4, #-367]!	; 0x16f
     c48:	74735f72 	ldrbtvc	r5, [r3], #-3954	; 0xf72
     c4c:	00747261 	rsbseq	r7, r4, r1, ror #4
     c50:	494e4f4d 	stmdbmi	lr, {r0, r2, r3, r6, r8, r9, sl, fp, lr}^
     c54:	00524f54 	subseq	r4, r2, r4, asr pc
     c58:	6e697270 	mcrvs	2, 3, r7, cr9, cr0, {3}
     c5c:	6c635f74 	stclvs	15, cr5, [r3], #-464	; 0xfffffe30
     c60:	73755f69 	cmnvc	r5, #420	; 0x1a4
     c64:	00656761 	rsbeq	r6, r5, r1, ror #14
     c68:	2e2f2e2e 	cdpcs	14, 2, cr2, cr15, cr14, {1}
     c6c:	2e2e2f2e 	cdpcs	15, 2, cr2, cr14, cr14, {1}
     c70:	2f2e2e2f 	svccs	0x002e2e2f
     c74:	6d6d6f63 	stclvs	15, cr6, [sp, #-396]!	; 0xfffffe74
     c78:	672f6e6f 	strvs	r6, [pc, -pc, ror #28]!
     c7c:	74736575 	ldrbtvc	r6, [r3], #-1397	; 0x575
     c80:	616f6c2f 	cmnvs	pc, pc, lsr #24
     c84:	2f726564 	svccs	0x00726564
     c88:	2e696c63 	cdpcs	12, 6, cr6, cr9, cr3, {3}
     c8c:	6c630063 	stclvs	0, cr0, [r3], #-396	; 0xfffffe74
     c90:	78655f69 	stmdavc	r5!, {r0, r3, r5, r6, r8, r9, sl, fp, ip, lr}^
     c94:	635f6365 	cmpvs	pc, #-1811939327	; 0x94000001
     c98:	6700646d 	strvs	r6, [r0, -sp, ror #8]
     c9c:	635f7465 	cmpvs	pc, #1694498816	; 0x65000000
     ca0:	745f646d 	ldrbvc	r6, [pc], #-1133	; ca8 <LOADER_PHYS_START-0x3ffff358>
     ca4:	00657079 	rsbeq	r7, r5, r9, ror r0
     ca8:	766e6f63 	strbtvc	r6, [lr], -r3, ror #30
     cac:	5f747265 	svcpl	0x00747265
     cb0:	635f6f74 	cmpvs	pc, #464	; 0x1d0
     cb4:	745f646d 	ldrbvc	r6, [pc], #-1133	; cbc <LOADER_PHYS_START-0x3ffff344>
     cb8:	00657079 	rsbeq	r7, r5, r9, ror r0
     cbc:	65736162 	ldrbvs	r6, [r3, #-354]!	; 0x162
     cc0:	6365725f 	cmnvs	r5, #-268435451	; 0xf0000005
     cc4:	7265766f 	rsbvc	r7, r5, #116391936	; 0x6f00000
     cc8:	6f6d0079 	svcvs	0x006d0079
     ccc:	6f74696e 	svcvs	0x0074696e
     cd0:	676e6972 			; <UNDEFINED> instruction: 0x676e6972
     cd4:	6c6c615f 	stfvse	f6, [ip], #-380	; 0xfffffe84
     cd8:	656c635f 	strbvs	r6, [ip, #-863]!	; 0x35f
     cdc:	76006e61 	strvc	r6, [r0], -r1, ror #28
     ce0:	5f64696d 	svcpl	0x0064696d
     ce4:	696e6f6d 	stmdbvs	lr!, {r0, r2, r3, r5, r6, r8, r9, sl, fp, sp, lr}^
     ce8:	00726f74 	rsbseq	r6, r2, r4, ror pc
     cec:	494e4f4d 	stmdbmi	lr, {r0, r2, r3, r6, r8, r9, sl, fp, lr}^
     cf0:	49524f54 	ldmdbmi	r2, {r2, r4, r6, r8, r9, sl, fp, lr}^
     cf4:	455f474e 	ldrbmi	r4, [pc, #-1870]	; 5ae <LOADER_PHYS_START-0x3ffffa52>
     cf8:	00544958 	subseq	r4, r4, r8, asr r9
     cfc:	494e4f4d 	stmdbmi	lr, {r0, r2, r3, r6, r8, r9, sl, fp, lr}^
     d00:	49524f54 	ldmdbmi	r2, {r2, r4, r6, r8, r9, sl, fp, lr}^
     d04:	535f474e 	cmppl	pc, #20447232	; 0x1380000
     d08:	6d005445 	cfstrsvs	mvf5, [r0, #-276]	; 0xfffffeec
     d0c:	74696e6f 	strbtvc	r6, [r9], #-3695	; 0xe6f
     d10:	6e69726f 	cdpvs	2, 6, cr7, cr9, cr15, {3}
     d14:	72625f67 	rsbvc	r5, r2, #412	; 0x19c
     d18:	006b6165 	rsbeq	r6, fp, r5, ror #2
     d1c:	65736162 	ldrbvs	r6, [r3, #-354]!	; 0x162
     d20:	656c635f 	strbvs	r6, [ip, #-863]!	; 0x35f
     d24:	6d006e61 	stcvs	14, cr6, [r0, #-388]	; 0xfffffe7c
     d28:	74696e6f 	strbtvc	r6, [r9], #-3695	; 0xe6f
     d2c:	6e69726f 	cdpvs	2, 6, cr7, cr9, cr15, {3}
     d30:	6d635f67 	stclvs	15, cr5, [r3, #-412]!	; 0xfffffe64
     d34:	79745f64 	ldmdbvc	r4!, {r2, r5, r6, r8, r9, sl, fp, ip, lr}^
     d38:	6d5f6570 	cfldr64vs	mvdx6, [pc, #-448]	; b80 <LOADER_PHYS_START-0x3ffff480>
     d3c:	745f7061 	ldrbvc	r7, [pc], #-97	; d44 <LOADER_PHYS_START-0x3ffff2bc>
     d40:	63006c62 	movwvs	r6, #3170	; 0xc62
     d44:	735f646d 	cmpvc	pc, #1828716544	; 0x6d000000
     d48:	75746174 	ldrbvc	r6, [r4, #-372]!	; 0x174
     d4c:	4f4d0073 	svcmi	0x004d0073
     d50:	4f54494e 	svcmi	0x0054494e
     d54:	474e4952 	smlsldmi	r4, lr, r2, r9
     d58:	454c435f 	strbmi	r4, [ip, #-863]	; 0x35f
     d5c:	6d004e41 	stcvs	14, cr4, [r0, #-260]	; 0xfffffefc
     d60:	74696e6f 	strbtvc	r6, [r9], #-3695	; 0xe6f
     d64:	6e69726f 	cdpvs	2, 6, cr7, cr9, cr15, {3}
     d68:	72625f67 	rsbvc	r5, r2, #412	; 0x19c
     d6c:	5f6b6165 	svcpl	0x006b6165
     d70:	61656c63 	cmnvs	r5, r3, ror #24
     d74:	4f4d006e 	svcmi	0x004d006e
     d78:	4f54494e 	svcmi	0x0054494e
     d7c:	474e4952 	smlsldmi	r4, lr, r2, r9
     d80:	4c4c415f 	stfmie	f4, [ip], {95}	; 0x5f
     d84:	454c435f 	strbmi	r4, [ip, #-863]	; 0x35f
     d88:	76004e41 	strvc	r4, [r0], -r1, asr #28
     d8c:	7364696d 	cmnvc	r4, #1785856	; 0x1b4000
     d90:	6e6f6d00 	cdpvs	13, 6, cr6, cr15, cr0, {0}
     d94:	726f7469 	rsbvc	r7, pc, #1761607680	; 0x69000000
     d98:	5f676e69 	svcpl	0x00676e69
     d9c:	69676572 	stmdbvs	r7!, {r1, r4, r5, r6, r8, sl, sp, lr}^
     da0:	72657473 	rsbvc	r7, r5, #1929379840	; 0x73000000
     da4:	6e6f6d00 	cdpvs	13, 6, cr6, cr15, cr0, {0}
     da8:	726f7469 	rsbvc	r7, pc, #1761607680	; 0x69000000
     dac:	5f676e69 	svcpl	0x00676e69
     db0:	6f636572 	svcvs	0x00636572
     db4:	79726576 	ldmdbvc	r2!, {r1, r2, r4, r5, r6, r8, sl, sp, lr}^
     db8:	444d4300 	strbmi	r4, [sp], #-768	; 0x300
     dbc:	4154535f 	cmpmi	r4, pc, asr r3
     dc0:	5f535554 	svcpl	0x00535554
     dc4:	43435553 	movtmi	r5, #13651	; 0x3553
     dc8:	00535345 	subseq	r5, r3, r5, asr #6
     dcc:	494e4f4d 	stmdbmi	lr, {r0, r2, r3, r6, r8, r9, sl, fp, lr}^
     dd0:	49524f54 	ldmdbmi	r2, {r2, r4, r6, r8, r9, sl, fp, lr}^
     dd4:	535f474e 	cmppl	pc, #20447232	; 0x1380000
     dd8:	00504f54 	subseq	r4, r0, r4, asr pc
     ddc:	696e6f6d 	stmdbvs	lr!, {r0, r2, r3, r5, r6, r8, r9, sl, fp, sp, lr}^
     de0:	69726f74 	ldmdbvs	r2!, {r2, r4, r5, r6, r8, r9, sl, fp, sp, lr}^
     de4:	685f676e 	ldmdavs	pc, {r1, r2, r3, r5, r6, r8, r9, sl, sp, lr}^	; <UNPREDICTABLE>
     de8:	00706c65 	rsbseq	r6, r0, r5, ror #24
     dec:	696e6f6d 	stmdbvs	lr!, {r0, r2, r3, r5, r6, r8, r9, sl, fp, sp, lr}^
     df0:	5f726f74 	svcpl	0x00726f74
     df4:	64696d76 	strbtvs	r6, [r9], #-3446	; 0xd76
     df8:	73616200 	cmnvc	r1, #0
     dfc:	72625f65 	rsbvc	r5, r2, #404	; 0x194
     e00:	006b6165 	rsbeq	r6, fp, r5, ror #2
     e04:	494e4f4d 	stmdbmi	lr, {r0, r2, r3, r6, r8, r9, sl, fp, lr}^
     e08:	49524f54 	ldmdbmi	r2, {r2, r4, r6, r8, r9, sl, fp, lr}^
     e0c:	485f474e 	ldmdami	pc, {r1, r2, r3, r6, r8, r9, sl, lr}^	; <UNPREDICTABLE>
     e10:	00504c45 	subseq	r4, r0, r5, asr #24
     e14:	65736162 	ldrbvs	r6, [r3, #-354]!	; 0x162
     e18:	6265725f 	rsbvs	r7, r5, #-268435451	; 0xf0000005
     e1c:	00746f6f 	rsbseq	r6, r4, pc, ror #30
     e20:	494e4f4d 	stmdbmi	lr, {r0, r2, r3, r6, r8, r9, sl, fp, lr}^
     e24:	49524f54 	ldmdbmi	r2, {r2, r4, r6, r8, r9, sl, fp, lr}^
     e28:	525f474e 	subspl	r4, pc, #20447232	; 0x1380000
     e2c:	53494745 	movtpl	r4, #38725	; 0x9745
     e30:	00524554 	subseq	r4, r2, r4, asr r5
     e34:	494e4f4d 	stmdbmi	lr, {r0, r2, r3, r6, r8, r9, sl, fp, lr}^
     e38:	49524f54 	ldmdbmi	r2, {r2, r4, r6, r8, r9, sl, fp, lr}^
     e3c:	425f474e 	subsmi	r4, pc, #20447232	; 0x1380000
     e40:	4b414552 	blmi	1052390 <LOADER_PHYS_START-0x3efadc70>
     e44:	65686300 	strbvs	r6, [r8, #-768]!	; 0x300
     e48:	765f6b63 	ldrbvc	r6, [pc], -r3, ror #22
     e4c:	646c6961 	strbtvs	r6, [ip], #-2401	; 0x961
     e50:	0061765f 	rsbeq	r7, r1, pc, asr r6
     e54:	5f746567 	svcpl	0x00746567
     e58:	696e6f6d 	stmdbvs	lr!, {r0, r2, r3, r5, r6, r8, r9, sl, fp, sp, lr}^
     e5c:	69726f74 	ldmdbvs	r2!, {r2, r4, r5, r6, r8, r9, sl, fp, sp, lr}^
     e60:	635f676e 	cmpvs	pc, #28835840	; 0x1b80000
     e64:	6200646d 	andvs	r6, r0, #1828716544	; 0x6d000000
     e68:	5f657361 	svcpl	0x00657361
     e6c:	69676572 	stmdbvs	r7!, {r1, r4, r5, r6, r8, sl, sp, lr}^
     e70:	72657473 	rsbvc	r7, r5, #1929379840	; 0x73000000
     e74:	6e6f6d00 	cdpvs	13, 6, cr6, cr15, cr0, {0}
     e78:	726f7469 	rsbvc	r7, pc, #1761607680	; 0x69000000
     e7c:	5f676e69 	svcpl	0x00676e69
     e80:	706d7564 	rsbvc	r7, sp, r4, ror #10
     e84:	6d656d5f 	stclvs	13, cr6, [r5, #-380]!	; 0xfffffe84
     e88:	0079726f 	rsbseq	r7, r9, pc, ror #4
     e8c:	766e6f63 	strbtvc	r6, [lr], -r3, ror #30
     e90:	5f747265 	svcpl	0x00747265
     e94:	6d5f6f74 	ldclvs	15, cr6, [pc, #-464]	; ccc <LOADER_PHYS_START-0x3ffff334>
     e98:	74696e6f 	strbtvc	r6, [r9], #-3695	; 0xe6f
     e9c:	6e69726f 	cdpvs	2, 6, cr7, cr9, cr15, {3}
     ea0:	6d635f67 	stclvs	15, cr5, [r3, #-412]!	; 0xfffffe64
     ea4:	79745f64 	ldmdbvc	r4!, {r2, r5, r6, r8, r9, sl, fp, ip, lr}^
     ea8:	62006570 	andvs	r6, r0, #469762048	; 0x1c000000
     eac:	5f657361 	svcpl	0x00657361
     eb0:	706f7473 	rsbvc	r7, pc, r3, ror r4	; <UNPREDICTABLE>
     eb4:	4e4f4d00 	cdpmi	13, 4, cr4, cr15, cr0, {0}
     eb8:	524f5449 	subpl	r5, pc, #1224736768	; 0x49000000
     ebc:	5f474e49 	svcpl	0x00474e49
     ec0:	4f434552 	svcmi	0x00434552
     ec4:	59524556 	ldmdbpl	r2, {r1, r2, r4, r6, r8, sl, lr}^
     ec8:	73616200 	cmnvc	r1, #0
     ecc:	656d5f65 	strbvs	r5, [sp, #-3941]!	; 0xf65
     ed0:	79726f6d 	ldmdbvc	r2!, {r0, r2, r3, r5, r6, r8, r9, sl, fp, sp, lr}^
     ed4:	6d75645f 	cfldrdvs	mvd6, [r5, #-380]!	; 0xfffffe84
     ed8:	6d760070 	ldclvs	0, cr0, [r6, #-448]!	; 0xfffffe40
     edc:	745f6469 	ldrbvc	r6, [pc], #-1129	; ee4 <LOADER_PHYS_START-0x3ffff11c>
     ee0:	65677261 	strbvs	r7, [r7, #-609]!	; 0x261
     ee4:	4d430074 	stclmi	0, cr0, [r3, #-464]	; 0xfffffe30
     ee8:	54535f44 	ldrbpl	r5, [r3], #-3908	; 0xf44
     eec:	53555441 	cmppl	r5, #1090519040	; 0x41000000
     ef0:	5252455f 	subspl	r4, r2, #398458880	; 0x17c00000
     ef4:	4d00524f 	sfmmi	f5, 4, [r0, #-316]	; 0xfffffec4
     ef8:	54494e4f 	strbpl	r4, [r9], #-3663	; 0xe4f
     efc:	4e49524f 	cdpmi	2, 4, cr5, cr9, cr15, {2}
     f00:	52425f47 	subpl	r5, r2, #284	; 0x11c
     f04:	5f4b4145 	svcpl	0x004b4145
     f08:	41454c43 	cmpmi	r5, r3, asr #24
     f0c:	4f4d004e 	svcmi	0x004d004e
     f10:	4f54494e 	svcmi	0x0054494e
     f14:	474e4952 	smlsldmi	r4, lr, r2, r9
     f18:	494f4e5f 	stmdbmi	pc, {r0, r1, r2, r3, r4, r6, r9, sl, fp, lr}^	; <UNPREDICTABLE>
     f1c:	5455504e 	ldrbpl	r5, [r5], #-78	; 0x4e
     f20:	67726100 	ldrbvs	r6, [r2, -r0, lsl #2]!
     f24:	2e2e0076 	mcrcs	0, 1, r0, cr14, cr6, {3}
     f28:	2f2e2e2f 	svccs	0x002e2e2f
     f2c:	2e2f2e2e 	cdpcs	14, 2, cr2, cr15, cr14, {1}
     f30:	6f632f2e 	svcvs	0x00632f2e
     f34:	6e6f6d6d 	cdpvs	13, 6, cr6, cr15, cr13, {3}
     f38:	6575672f 	ldrbvs	r6, [r5, #-1839]!	; 0x72f
     f3c:	6c2f7473 	cfstrsvs	mvf7, [pc], #-460	; d78 <LOADER_PHYS_START-0x3ffff288>
     f40:	6564616f 	strbvs	r6, [r4, #-367]!	; 0x16f
     f44:	6f6d2f72 	svcvs	0x006d2f72
     f48:	6f74696e 	svcvs	0x0074696e
     f4c:	6f6d2f72 	svcvs	0x006d2f72
     f50:	6f74696e 	svcvs	0x0074696e
     f54:	6c635f72 	stclvs	15, cr5, [r3], #-456	; 0xfffffe38
     f58:	00632e69 	rsbeq	r2, r3, r9, ror #28
     f5c:	65736162 	ldrbvs	r6, [r3, #-354]!	; 0x162
     f60:	6572625f 	ldrbvs	r6, [r2, #-607]!	; 0x25f
     f64:	635f6b61 	cmpvs	pc, #99328	; 0x18400
     f68:	6e61656c 	cdpvs	5, 6, cr6, cr1, cr12, {3}
     f6c:	4e4f4d00 	cdpmi	13, 4, cr4, cr15, cr0, {0}
     f70:	524f5449 	subpl	r5, pc, #1224736768	; 0x49000000
     f74:	5f474e49 	svcpl	0x00474e49
     f78:	4f424552 	svcmi	0x00424552
     f7c:	6200544f 	andvs	r5, r0, #1325400064	; 0x4f000000
     f80:	5f657361 	svcpl	0x00657361
     f84:	00746573 	rsbseq	r6, r4, r3, ror r5
     f88:	72615f70 	rsbvc	r5, r1, #448	; 0x1c0
     f8c:	6d006367 	stcvs	3, cr6, [r0, #-412]	; 0xfffffe64
     f90:	74696e6f 	strbtvc	r6, [r9], #-3695	; 0xe6f
     f94:	6e69726f 	cdpvs	2, 6, cr7, cr9, cr15, {3}
     f98:	6f675f67 	svcvs	0x00675f67
     f9c:	6e6f6d00 	cdpvs	13, 6, cr6, cr15, cr0, {0}
     fa0:	726f7469 	rsbvc	r7, pc, #1761607680	; 0x69000000
     fa4:	5f676e69 	svcpl	0x00676e69
     fa8:	6f626572 	svcvs	0x00626572
     fac:	4d00746f 	cfstrsmi	mvf7, [r0, #-444]	; 0xfffffe44
     fb0:	54494e4f 	strbpl	r4, [r9], #-3663	; 0xe4f
     fb4:	4e49524f 	cdpmi	2, 4, cr5, cr9, cr15, {2}
     fb8:	494c5f47 	stmdbmi	ip, {r0, r1, r2, r6, r8, r9, sl, fp, ip, lr}^
     fbc:	6d005453 	cfstrsvs	mvf5, [r0, #-332]	; 0xfffffeb4
     fc0:	74696e6f 	strbtvc	r6, [r9], #-3695	; 0xe6f
     fc4:	6e69726f 	cdpvs	2, 6, cr7, cr9, cr15, {3}
     fc8:	65735f67 	ldrbvs	r5, [r3, #-3943]!	; 0xf67
     fcc:	6f6d0074 	svcvs	0x006d0074
     fd0:	6f74696e 	svcvs	0x0074696e
     fd4:	676e6972 			; <UNDEFINED> instruction: 0x676e6972
     fd8:	6c6c615f 	stfvse	f6, [ip], #-380	; 0xfffffe84
     fdc:	00746573 	rsbseq	r6, r4, r3, ror r5
     fe0:	494e4f4d 	stmdbmi	lr, {r0, r2, r3, r6, r8, r9, sl, fp, lr}^
     fe4:	49524f54 	ldmdbmi	r2, {r2, r4, r6, r8, r9, sl, fp, lr}^
     fe8:	4d5f474e 	ldclmi	7, cr4, [pc, #-312]	; eb8 <LOADER_PHYS_START-0x3ffff148>
     fec:	524f4d45 	subpl	r4, pc, #4416	; 0x1140
     ff0:	55445f59 	strbpl	r5, [r4, #-3929]	; 0xf59
     ff4:	7300504d 	movwvc	r5, #77	; 0x4d
     ff8:	65726168 	ldrbvs	r6, [r2, #-360]!	; 0x168
     ffc:	656d5f64 	strbvs	r5, [sp, #-3940]!	; 0xf64
    1000:	79726f6d 	ldmdbvc	r2!, {r0, r2, r3, r5, r6, r8, r9, sl, fp, sp, lr}^
    1004:	6174735f 	cmnvs	r4, pc, asr r3
    1008:	4d007472 	cfstrsmi	mvf7, [r0, #-456]	; 0xfffffe38
    100c:	54494e4f 	strbpl	r4, [r9], #-3663	; 0xe4f
    1010:	4e49524f 	cdpmi	2, 4, cr5, cr9, cr15, {2}
    1014:	4f475f47 	svcmi	0x00475f47
    1018:	6e6f6d00 	cdpvs	13, 6, cr6, cr15, cr0, {0}
    101c:	726f7469 	rsbvc	r7, pc, #1761607680	; 0x69000000
    1020:	5f676e69 	svcpl	0x00676e69
    1024:	61656c63 	cmnvs	r5, r3, ror #24
    1028:	6162006e 	cmnvs	r2, lr, rrx
    102c:	615f6573 	cmpvs	pc, r3, ror r5	; <UNPREDICTABLE>
    1030:	635f6c6c 	cmpvs	pc, #27648	; 0x6c00
    1034:	6e61656c 	cdpvs	5, 6, cr6, cr1, cr12, {3}
    1038:	73616200 	cmnvc	r1, #0
    103c:	6f675f65 	svcvs	0x00675f65
    1040:	73616200 	cmnvc	r1, #0
    1044:	696c5f65 	stmdbvs	ip!, {r0, r2, r5, r6, r8, r9, sl, fp, ip, lr}^
    1048:	67007473 	smlsdxvs	r0, r3, r4, r7
    104c:	705f7465 	subsvc	r7, pc, r5, ror #8
    1050:	656b6361 	strbvs	r6, [fp, #-865]!	; 0x361
    1054:	2e2e0074 	mcrcs	0, 1, r0, cr14, cr4, {3}
    1058:	2f2e2e2f 	svccs	0x002e2e2f
    105c:	2e2f2e2e 	cdpcs	14, 2, cr2, cr15, cr14, {1}
    1060:	6f632f2e 	svcvs	0x00632f2e
    1064:	6e6f6d6d 	cdpvs	13, 6, cr6, cr15, cr13, {3}
    1068:	6575672f 	ldrbvs	r6, [r5, #-1839]!	; 0x72f
    106c:	6c2f7473 	cfstrsvs	mvf7, [pc], #-460	; ea8 <LOADER_PHYS_START-0x3ffff158>
    1070:	6564616f 	strbvs	r6, [r4, #-367]!	; 0x16f
    1074:	6f6d2f72 	svcvs	0x006d2f72
    1078:	6f74696e 	svcvs	0x0074696e
    107c:	64672f72 	strbtvs	r2, [r7], #-3954	; 0xf72
    1080:	74735f62 	ldrbtvc	r5, [r3], #-3938	; 0xf62
    1084:	632e6275 	teqvs	lr, #1342177287	; 0x50000007
    1088:	63617000 	cmnvs	r1, #0
    108c:	5f74656b 	svcpl	0x0074656b
    1090:	00667562 	rsbeq	r7, r6, r2, ror #10
    1094:	72616873 	rsbvc	r6, r1, #7536640	; 0x730000
    1098:	615f6465 	cmpvs	pc, r5, ror #8
    109c:	65726464 	ldrbvs	r6, [r2, #-1124]!	; 0x464
    10a0:	63007373 	movwvs	r7, #883	; 0x373
    10a4:	6b636568 	blvs	18da64c <LOADER_PHYS_START-0x3e7259b4>
    10a8:	006d7573 	rsbeq	r7, sp, r3, ror r5
    10ac:	6c706572 	cfldr64vs	mvdx6, [r0], #-456	; 0xfffffe38
    10b0:	69735f79 	ldmdbvs	r3!, {r0, r3, r4, r5, r6, r8, r9, sl, fp, ip, lr}^
    10b4:	6c616e67 	stclvs	14, cr6, [r1], #-412	; 0xfffffe64
    10b8:	68637200 	stmdavs	r3!, {r9, ip, sp, lr}^
    10bc:	6d75736b 	ldclvs	3, cr7, [r5, #-428]!	; 0xfffffe54
    10c0:	646d6300 	strbtvs	r6, [sp], #-768	; 0x300
    10c4:	7465675f 	strbtvc	r6, [r5], #-1887	; 0x75f
    10c8:	6765725f 			; <UNDEFINED> instruction: 0x6765725f
    10cc:	65747369 	ldrbvs	r7, [r4, #-873]!	; 0x369
    10d0:	72620072 	rsbvc	r0, r2, #114	; 0x72
    10d4:	5f6b6165 	svcpl	0x006b6165
    10d8:	6e676973 	mcrvs	9, 3, r6, cr7, cr3, {3}
    10dc:	63006c61 	movwvs	r6, #3169	; 0xc61
    10e0:	715f646d 	cmpvc	pc, sp, ror #8
    10e4:	79726575 	ldmdbvc	r2!, {r0, r2, r4, r5, r6, r8, sl, sp, lr}^
    10e8:	78656800 	stmdavc	r5!, {fp, sp, lr}^
    10ec:	726f775f 	rsbvc	r7, pc, #24903680	; 0x17c0000
    10f0:	6f6e0064 	svcvs	0x006e0064
    10f4:	7065725f 	rsbvc	r7, r5, pc, asr r2
    10f8:	6100796c 	tstvs	r0, ip, ror #18
    10fc:	00736772 	rsbseq	r6, r3, r2, ror r7
    1100:	5f646d63 	svcpl	0x00646d63
    1104:	5f747570 	svcpl	0x00747570
    1108:	6f6d656d 	svcvs	0x006d656d
    110c:	72007972 	andvc	r7, r0, #1867776	; 0x1c8000
    1110:	796c7065 	stmdbvc	ip!, {r0, r2, r5, r6, ip, sp, lr}^
    1114:	006b6f5f 	rsbeq	r6, fp, pc, asr pc
    1118:	6c706572 	cfldr64vs	mvdx6, [r0], #-456	; 0xfffffe38
    111c:	72655f79 	rsbvc	r5, r5, #484	; 0x1e4
    1120:	00726f72 	rsbseq	r6, r2, r2, ror pc
    1124:	5f747570 	svcpl	0x00747570
    1128:	6b636170 	blvs	18d96f0 <LOADER_PHYS_START-0x3e726910>
    112c:	65007465 	strvs	r7, [r0, #-1125]	; 0x465
    1130:	70616373 	rsbvc	r6, r1, r3, ror r3
    1134:	73006465 	movwvc	r6, #1125	; 0x465
    1138:	61697265 	cmnvs	r9, r5, ror #4
    113c:	72775f6c 	rsbsvc	r5, r7, #432	; 0x1b0
    1140:	00657469 	rsbeq	r7, r5, r9, ror #8
    1144:	6c706572 	cfldr64vs	mvdx6, [r0], #-456	; 0xfffffe38
    1148:	75625f79 	strbvc	r5, [r2, #-3961]!	; 0xf79
    114c:	65720066 	ldrbvs	r0, [r2, #-102]!	; 0x66
    1150:	5f796c70 	svcpl	0x00796c70
    1154:	6e676973 	mcrvs	9, 3, r6, cr7, cr3, {3}
    1158:	665f6c61 	ldrbvs	r6, [pc], -r1, ror #24
    115c:	5f6d6f72 	svcpl	0x006d6f72
    1160:	61657262 	cmnvs	r5, r2, ror #4
    1164:	5f67006b 	svcpl	0x0067006b
    1168:	6c706572 	cfldr64vs	mvdx6, [r0], #-456	; 0xfffffe38
    116c:	65670079 	strbvs	r0, [r7, #-121]!	; 0x79
    1170:	65685f74 	strbvs	r5, [r8, #-3956]!	; 0xf74
    1174:	79625f78 	stmdbvc	r2!, {r3, r4, r5, r6, r8, r9, sl, fp, ip, lr}^
    1178:	64006574 	strvs	r6, [r0], #-1396	; 0x574
    117c:	5f706d75 	svcpl	0x00706d75
    1180:	65736162 	ldrbvs	r6, [r3, #-354]!	; 0x162
    1184:	646d6300 	strbtvs	r6, [sp], #-768	; 0x300
    1188:	7465675f 	strbtvc	r6, [r5], #-1887	; 0x75f
    118c:	6d656d5f 	stclvs	13, cr6, [r5, #-380]!	; 0xfffffe84
    1190:	0079726f 	rsbseq	r7, r9, pc, ror #4
    1194:	74737973 	ldrbtvc	r7, [r3], #-2419	; 0x973
    1198:	6d5f6d65 	ldclvs	13, cr6, [pc, #-404]	; 100c <LOADER_PHYS_START-0x3fffeff4>
    119c:	5f737061 	svcpl	0x00737061
    11a0:	65646f63 	strbvs	r6, [r4, #-3939]!	; 0xf63
    11a4:	73707300 	cmnvc	r0, #0
    11a8:	72695f72 	rsbvc	r5, r9, #456	; 0x1c8
    11ac:	70730071 	rsbsvc	r0, r3, r1, ror r0
    11b0:	6376735f 	cmnvs	r6, #2080374785	; 0x7c000001
    11b4:	67657200 	strbvs	r7, [r5, -r0, lsl #4]!
    11b8:	6f635f73 	svcvs	0x00635f73
    11bc:	61740070 	cmnvs	r4, r0, ror r0
    11c0:	74656772 	strbtvc	r6, [r5], #-1906	; 0x772
    11c4:	6765725f 			; <UNDEFINED> instruction: 0x6765725f
    11c8:	70730073 	rsbsvc	r0, r3, r3, ror r0
    11cc:	7273755f 	rsbsvc	r7, r3, #398458880	; 0x17c00000
    11d0:	6d756e00 	ldclvs	14, cr6, [r5, #-0]
    11d4:	6d79735f 	ldclvs	3, cr7, [r9, #-380]!	; 0xfffffe84
    11d8:	736c6f62 	cmnvc	ip, #392	; 0x188
    11dc:	646f635f 	strbtvs	r6, [pc], #-863	; 11e4 <LOADER_PHYS_START-0x3fffee1c>
    11e0:	726c0065 	rsbvc	r0, ip, #101	; 0x65
    11e4:	7462615f 	strbtvc	r6, [r2], #-351	; 0x15f
    11e8:	6d797300 	ldclvs	3, cr7, [r9, #-0]
    11ec:	5f6c6f62 	svcpl	0x006c6f62
    11f0:	73726170 	cmnvc	r2, #28
    11f4:	695f7265 	ldmdbvs	pc, {r0, r2, r5, r6, r9, ip, sp, lr}^	; <UNPREDICTABLE>
    11f8:	0074696e 	rsbseq	r6, r4, lr, ror #18
    11fc:	68637261 	stmdavs	r3!, {r0, r5, r6, r9, ip, sp, lr}^
    1200:	6e6f635f 	mcrvs	3, 3, r6, cr15, cr15, {2}
    1204:	74786574 	ldrbtvc	r6, [r8], #-1396	; 0x574
    1208:	30317200 	eorscc	r7, r1, r0, lsl #4
    120c:	7169665f 	cmnvc	r9, pc, asr r6
    1210:	5f707300 	svcpl	0x00707300
    1214:	00717269 	rsbseq	r7, r1, r9, ror #4
    1218:	5f746567 	svcpl	0x00746567
    121c:	656e6567 	strbvs	r6, [lr, #-1383]!	; 0x567
    1220:	5f6c6172 	svcpl	0x006c6172
    1224:	00676572 	rsbeq	r6, r7, r2, ror r5
    1228:	6c6c6163 	stfvse	f6, [ip], #-396	; 0xfffffe74
    122c:	735f6565 	cmpvc	pc, #423624704	; 0x19400000
    1230:	6f626d79 	svcvs	0x00626d79
    1234:	6d69006c 	stclvs	0, cr0, [r9, #-432]!	; 0xfffffe50
    1238:	73007861 	movwvc	r7, #2145	; 0x861
    123c:	6f626d79 	svcvs	0x00626d79
    1240:	69625f6c 	stmdbvs	r2!, {r2, r3, r5, r6, r8, r9, sl, fp, ip, lr}^
    1244:	7972616e 	ldmdbvc	r2!, {r1, r2, r3, r5, r6, r8, sp, lr}^
    1248:	6165735f 	cmnvs	r5, pc, asr r3
    124c:	00686372 	rsbeq	r6, r8, r2, ror r3
    1250:	646e6573 	strbtvs	r6, [lr], #-1395	; 0x573
    1254:	6e6f6d5f 	mcrvs	13, 3, r6, cr15, cr15, {2}
    1258:	726f7469 	rsbvc	r7, pc, #1761607680	; 0x69000000
    125c:	5f676e69 	svcpl	0x00676e69
    1260:	61746164 	cmnvs	r4, r4, ror #2
    1264:	6c616300 	stclvs	3, cr6, [r1], #-0
    1268:	5f72656c 	svcpl	0x0072656c
    126c:	73006176 	movwvc	r6, #374	; 0x176
    1270:	6f626d79 	svcvs	0x00626d79
    1274:	65675f6c 	strbvs	r5, [r7, #-3948]!	; 0xf6c
    1278:	72657474 	rsbvc	r7, r5, #1946157056	; 0x74000000
    127c:	6f72665f 	svcvs	0x0072665f
    1280:	61765f6d 	cmnvs	r6, sp, ror #30
    1284:	5f726c00 	svcpl	0x00726c00
    1288:	00637673 	rsbeq	r7, r3, r3, ror r6
    128c:	626d756e 	rsbvs	r7, sp, #461373440	; 0x1b800000
    1290:	735f7265 	cmpvc	pc, #1342177286	; 0x50000006
    1294:	6f626d79 	svcvs	0x00626d79
    1298:	6873006c 	ldmdavs	r3!, {r2, r3, r5, r6}^
    129c:	64657261 	strbtvs	r7, [r5], #-609	; 0x261
    12a0:	6174735f 	cmnvs	r4, pc, asr r3
    12a4:	72007472 	andvc	r7, r0, #1912602624	; 0x72000000
    12a8:	6f747365 	svcvs	0x00747365
    12ac:	735f6572 	cmpvc	pc, #478150656	; 0x1c800000
    12b0:	74726174 	ldrbtvc	r6, [r2], #-372	; 0x174
    12b4:	736e6900 	cmnvc	lr, #0
    12b8:	6e630074 	mcrvs	0, 3, r0, cr3, cr4, {3}
    12bc:	6f635f74 	svcvs	0x00635f74
    12c0:	2e006564 	cfsh32cs	mvfx6, mvfx0, #52
    12c4:	2e2e2f2e 	cdpcs	15, 2, cr2, cr14, cr14, {1}
    12c8:	2f2e2e2f 	svccs	0x002e2e2f
    12cc:	632f2e2e 	teqvs	pc, #736	; 0x2e0
    12d0:	6f6d6d6f 	svcvs	0x006d6d6f
    12d4:	75672f6e 	strbvc	r2, [r7, #-3950]!	; 0xf6e
    12d8:	2f747365 	svccs	0x00747365
    12dc:	64616f6c 	strbtvs	r6, [r1], #-3948	; 0xf6c
    12e0:	6d2f7265 	sfmvs	f7, 4, [pc, #-404]!	; 1154 <LOADER_PHYS_START-0x3fffeeac>
    12e4:	74696e6f 	strbtvc	r6, [r9], #-3695	; 0xe6f
    12e8:	672f726f 	strvs	r7, [pc, -pc, ror #4]!
    12ec:	74736575 	ldrbtvc	r6, [r3], #-1397	; 0x575
    12f0:	6e6f6d5f 	mcrvs	13, 3, r6, cr15, cr15, {2}
    12f4:	726f7469 	rsbvc	r7, pc, #1761607680	; 0x69000000
    12f8:	7200632e 	andvc	r6, r0, #-1207959552	; 0xb8000000
    12fc:	69665f39 	stmdbvs	r6!, {r0, r3, r4, r5, r8, r9, sl, fp, ip, lr}^
    1300:	74730071 	ldrbtvc	r0, [r3], #-113	; 0x71
    1304:	5f747261 	svcpl	0x00747261
    1308:	6f6d656d 	svcvs	0x006d656d
    130c:	6c007972 	stcvs	9, cr7, [r0], {114}	; 0x72
    1310:	69665f72 	stmdbvs	r6!, {r1, r4, r5, r6, r8, r9, sl, fp, ip, lr}^
    1314:	61740071 	cmnvs	r4, r1, ror r0
    1318:	74656772 	strbtvc	r6, [r5], #-1906	; 0x772
    131c:	0070735f 	rsbseq	r7, r0, pc, asr r3
    1320:	6c746373 	ldclvs	3, cr6, [r4], #-460	; 0xfffffe34
    1324:	726c0072 	rsbvc	r0, ip, #114	; 0x72
    1328:	7172695f 	cmnvc	r2, pc, asr r9
    132c:	6e6f6d00 	cdpvs	13, 6, cr6, cr15, cr0, {0}
    1330:	726f7469 	rsbvc	r7, pc, #1761607680	; 0x69000000
    1334:	746e635f 	strbtvc	r6, [lr], #-863	; 0x35f
    1338:	65756700 	ldrbvs	r6, [r5, #-1792]!	; 0x700
    133c:	735f7473 	cmpvc	pc, #1929379840	; 0x73000000
    1340:	63757274 	cmnvs	r5, #1073741831	; 0x40000007
    1344:	6d690074 	stclvs	0, cr0, [r9, #-464]!	; 0xfffffe30
    1348:	62006469 	andvs	r6, r0, #1761607680	; 0x69000000
    134c:	5f657361 	svcpl	0x00657361
    1350:	6f6d656d 	svcvs	0x006d656d
    1354:	73007972 	movwvc	r7, #2418	; 0x972
    1358:	5f727370 	svcpl	0x00727370
    135c:	00646e75 	rsbeq	r6, r4, r5, ror lr
    1360:	5f313172 	svcpl	0x00313172
    1364:	00716966 	rsbseq	r6, r1, r6, ror #18
    1368:	79735f6e 	ldmdbvc	r3!, {r1, r2, r3, r5, r6, r8, r9, sl, fp, ip, lr}^
    136c:	6c6f626d 	sfmvs	f6, 2, [pc], #-436	; 11c0 <LOADER_PHYS_START-0x3fffee40>
    1370:	73797300 	cmnvc	r9, #0
    1374:	5f6d6574 	svcpl	0x006d6574
    1378:	5f70616d 	svcpl	0x0070616d
    137c:	72617473 	rsbvc	r7, r1, #1929379840	; 0x73000000
    1380:	74740074 	ldrbtvc	r0, [r4], #-116	; 0x74
    1384:	00307262 	eorseq	r7, r0, r2, ror #4
    1388:	72627474 	rsbvc	r7, r2, #1946157056	; 0x74000000
    138c:	616c0031 	cmnvs	ip, r1, lsr r0
    1390:	73007473 	movwvc	r7, #1139	; 0x473
    1394:	65747379 	ldrbvs	r7, [r4, #-889]!	; 0x379
    1398:	616d5f6d 	cmnvs	sp, sp, ror #30
    139c:	70730070 	rsbsvc	r0, r3, r0, ror r0
    13a0:	646e755f 	strbtvs	r7, [lr], #-1375	; 0x55f
    13a4:	73707300 	cmnvc	r0, #0
    13a8:	62615f72 	rsbvs	r5, r1, #456	; 0x1c8
    13ac:	61630074 	smcvs	12292	; 0x3004
    13b0:	735f6c6c 	cmpvc	pc, #27648	; 0x6c00
    13b4:	6f626d79 	svcvs	0x00626d79
    13b8:	6567006c 	strbvs	r0, [r7, #-108]!	; 0x6c
    13bc:	75675f74 	strbvc	r5, [r7, #-3956]!	; 0xf74
    13c0:	5f747365 	svcpl	0x00747365
    13c4:	65646f6d 	strbvs	r6, [r4, #-3949]!	; 0xf6d
    13c8:	696d6900 	stmdbvs	sp!, {r8, fp, sp, lr}^
    13cc:	6572006e 	ldrbvs	r0, [r2, #-110]!	; 0x6e
    13d0:	65766f63 	ldrbvs	r6, [r6, #-3939]!	; 0xf63
    13d4:	635f7972 	cmpvs	pc, #1867776	; 0x1c8000
    13d8:	7200746e 	andvc	r7, r0, #1845493760	; 0x6e000000
    13dc:	6f747365 	svcvs	0x00747365
    13e0:	655f6572 	ldrbvs	r6, [pc, #-1394]	; e76 <LOADER_PHYS_START-0x3ffff18a>
    13e4:	7600646e 	strvc	r6, [r0], -lr, ror #8
    13e8:	00726162 	rsbseq	r6, r2, r2, ror #2
    13ec:	6f6d656d 	svcvs	0x006d656d
    13f0:	725f7972 	subsvc	r7, pc, #1867776	; 0x1c8000
    13f4:	65676e61 	strbvs	r6, [r7, #-3681]!	; 0xe61
    13f8:	74657300 	strbtvc	r7, [r5], #-768	; 0x300
    13fc:	6575675f 	ldrbvs	r6, [r5, #-1887]!	; 0x75f
    1400:	6d5f7473 	cfldrdvs	mvd7, [pc, #-460]	; 123c <LOADER_PHYS_START-0x3fffedc4>
    1404:	0065646f 	rsbeq	r6, r5, pc, ror #8
    1408:	73676572 	cmnvc	r7, #478150656	; 0x1c800000
    140c:	6e61625f 	mcrvs	2, 3, r6, cr1, cr15, {2}
    1410:	0064656b 	rsbeq	r6, r4, fp, ror #10
    1414:	72616873 	rsbvc	r6, r1, #7536640	; 0x730000
    1418:	6d5f6465 	cfldrdvs	mvd6, [pc, #-404]	; 128c <LOADER_PHYS_START-0x3fffed74>
    141c:	726f6d65 	rsbvc	r6, pc, #6464	; 0x1940
    1420:	6e655f79 	mcrvs	15, 3, r5, cr5, cr9, {3}
    1424:	70730064 	rsbsvc	r0, r3, r4, rrx
    1428:	7462615f 	strbtvc	r6, [r2], #-351	; 0x15f
    142c:	62747400 	rsbsvs	r7, r4, #0
    1430:	6d007263 	sfmvs	f7, 4, [r0, #-396]	; 0xfffffe74
    1434:	74696e6f 	strbtvc	r6, [r9], #-3695	; 0xe6f
    1438:	6e69726f 	cdpvs	2, 6, cr7, cr9, cr15, {3}
    143c:	6e695f67 	cdpvs	15, 6, cr5, cr9, cr7, {3}
    1440:	73007469 	movwvc	r7, #1129	; 0x469
    1444:	5f776f68 	svcpl	0x00776f68
    1448:	626d7973 	rsbvs	r7, sp, #1884160	; 0x1cc000
    144c:	63006c6f 	movwvs	r6, #3183	; 0xc6f
    1450:	656c6c61 	strbvs	r6, [ip, #-3169]!	; 0xc61
    1454:	61765f65 	cmnvs	r6, r5, ror #30
    1458:	32317200 	eorscc	r7, r1, #0
    145c:	7169665f 	cmnvc	r9, pc, asr r6
    1460:	73707300 	cmnvc	r0, #0
    1464:	76735f72 	uhsub16vc	r5, r3, r2
    1468:	726c0063 	rsbvc	r0, ip, #99	; 0x63
    146c:	646e755f 	strbtvs	r7, [lr], #-1375	; 0x55f
    1470:	73707300 	cmnvc	r0, #0
    1474:	69665f72 	stmdbvs	r6!, {r1, r4, r5, r6, r8, r9, sl, fp, ip, lr}^
    1478:	38720071 	ldmdacc	r2!, {r0, r4, r5, r6}^
    147c:	7169665f 	cmnvc	r9, pc, asr r6
    1480:	74657300 	strbtvc	r7, [r5], #-768	; 0x300
    1484:	6365725f 	cmnvs	r5, #-268435451	; 0xf0000005
    1488:	7265766f 	rsbvc	r7, r5, #116391936	; 0x6f00000
    148c:	6f6d0079 	svcvs	0x006d0079
    1490:	6f74696e 	svcvs	0x0074696e
    1494:	676e6972 			; <UNDEFINED> instruction: 0x676e6972
    1498:	6e61685f 	mcrvs	8, 3, r6, cr1, cr15, {2}
    149c:	72656c64 	rsbvc	r6, r5, #25600	; 0x6400
	...

Disassembly of section .debug_frame:

00000000 <.debug_frame>:
   0:	0000000c 	andeq	r0, r0, ip
   4:	ffffffff 			; <UNDEFINED> instruction: 0xffffffff
   8:	7c020001 	stcvc	0, cr0, [r2], {1}
   c:	000d0c0e 	andeq	r0, sp, lr, lsl #24
  10:	0000000c 	andeq	r0, r0, ip
  14:	00000000 	andeq	r0, r0, r0
  18:	400000c0 	andmi	r0, r0, r0, asr #1
  1c:	00000010 	andeq	r0, r0, r0, lsl r0
  20:	00000018 	andeq	r0, r0, r8, lsl r0
  24:	00000000 	andeq	r0, r0, r0
  28:	40002fa0 	andmi	r2, r0, r0, lsr #31
  2c:	0000006c 	andeq	r0, r0, ip, rrx
  30:	8e040e44 	cdphi	14, 0, cr0, cr4, cr4, {2}
  34:	880e4201 	stmdahi	lr, {r0, r9, lr}
  38:	00000002 	andeq	r0, r0, r2
  3c:	0000000c 	andeq	r0, r0, ip
  40:	ffffffff 			; <UNDEFINED> instruction: 0xffffffff
  44:	7c020001 	stcvc	0, cr0, [r2], {1}
  48:	000d0c0e 	andeq	r0, sp, lr, lsl #24
  4c:	0000000c 	andeq	r0, r0, ip
  50:	0000003c 	andeq	r0, r0, ip, lsr r0
  54:	400000d0 	ldrdmi	r0, [r0], -r0	; <UNPREDICTABLE>
  58:	00000020 	andeq	r0, r0, r0, lsr #32
  5c:	0000000c 	andeq	r0, r0, ip
  60:	0000003c 	andeq	r0, r0, ip, lsr r0
  64:	400000f0 	strdmi	r0, [r0], -r0	; <UNPREDICTABLE>
  68:	0000004c 	andeq	r0, r0, ip, asr #32
  6c:	0000000c 	andeq	r0, r0, ip
  70:	0000003c 	andeq	r0, r0, ip, lsr r0
  74:	4000013c 	andmi	r0, r0, ip, lsr r1
  78:	0000001c 	andeq	r0, r0, ip, lsl r0
  7c:	0000000c 	andeq	r0, r0, ip
  80:	0000003c 	andeq	r0, r0, ip, lsr r0
  84:	40000158 	andmi	r0, r0, r8, asr r1
  88:	00000038 	andeq	r0, r0, r8, lsr r0
  8c:	0000000c 	andeq	r0, r0, ip
  90:	0000003c 	andeq	r0, r0, ip, lsr r0
  94:	40000190 	mulmi	r0, r0, r1
  98:	00000030 	andeq	r0, r0, r0, lsr r0
  9c:	0000000c 	andeq	r0, r0, ip
  a0:	0000003c 	andeq	r0, r0, ip, lsr r0
  a4:	400001c0 	andmi	r0, r0, r0, asr #3
  a8:	00000014 	andeq	r0, r0, r4, lsl r0
  ac:	0000000c 	andeq	r0, r0, ip
  b0:	0000003c 	andeq	r0, r0, ip, lsr r0
  b4:	400001d4 	ldrdmi	r0, [r0], -r4
  b8:	0000003c 	andeq	r0, r0, ip, lsr r0
  bc:	0000000c 	andeq	r0, r0, ip
  c0:	ffffffff 			; <UNDEFINED> instruction: 0xffffffff
  c4:	7c020001 	stcvc	0, cr0, [r2], {1}
  c8:	000d0c0e 	andeq	r0, sp, lr, lsl #24
  cc:	00000014 	andeq	r0, r0, r4, lsl r0
  d0:	000000bc 	strheq	r0, [r0], -ip
  d4:	40000210 	andmi	r0, r0, r0, lsl r2
  d8:	00000028 	andeq	r0, r0, r8, lsr #32
  dc:	8e080e44 	cdphi	14, 0, cr0, cr8, cr4, {2}
  e0:	00028401 	andeq	r8, r2, r1, lsl #8
  e4:	00000014 	andeq	r0, r0, r4, lsl r0
  e8:	000000bc 	strheq	r0, [r0], -ip
  ec:	40000238 	andmi	r0, r0, r8, lsr r2
  f0:	00000014 	andeq	r0, r0, r4, lsl r0
  f4:	8e080e42 	cdphi	14, 0, cr0, cr8, cr2, {2}
  f8:	00028301 	andeq	r8, r2, r1, lsl #6
  fc:	00000018 	andeq	r0, r0, r8, lsl r0
 100:	000000bc 	strheq	r0, [r0], -ip
 104:	4000024c 	andmi	r0, r0, ip, asr #4
 108:	0000005c 	andeq	r0, r0, ip, asr r0
 10c:	8e100e42 	cdphi	14, 1, cr0, cr0, cr2, {2}
 110:	84028501 	strhi	r8, [r2], #-1281	; 0x501
 114:	00048303 	andeq	r8, r4, r3, lsl #6
 118:	00000018 	andeq	r0, r0, r8, lsl r0
 11c:	000000bc 	strheq	r0, [r0], -ip
 120:	400002a8 	andmi	r0, r0, r8, lsr #5
 124:	00000040 	andeq	r0, r0, r0, asr #32
 128:	8e100e42 	cdphi	14, 1, cr0, cr0, cr2, {2}
 12c:	84028501 	strhi	r8, [r2], #-1281	; 0x501
 130:	00048303 	andeq	r8, r4, r3, lsl #6
 134:	00000014 	andeq	r0, r0, r4, lsl r0
 138:	000000bc 	strheq	r0, [r0], -ip
 13c:	400002e8 	andmi	r0, r0, r8, ror #5
 140:	0000001c 	andeq	r0, r0, ip, lsl r0
 144:	8e080e42 	cdphi	14, 0, cr0, cr8, cr2, {2}
 148:	00028401 	andeq	r8, r2, r1, lsl #8
 14c:	00000014 	andeq	r0, r0, r4, lsl r0
 150:	000000bc 	strheq	r0, [r0], -ip
 154:	40000304 	andmi	r0, r0, r4, lsl #6
 158:	00000030 	andeq	r0, r0, r0, lsr r0
 15c:	8e080e42 	cdphi	14, 0, cr0, cr8, cr2, {2}
 160:	00028401 	andeq	r8, r2, r1, lsl #8
 164:	00000018 	andeq	r0, r0, r8, lsl r0
 168:	000000bc 	strheq	r0, [r0], -ip
 16c:	40000334 	andmi	r0, r0, r4, lsr r3
 170:	00000068 	andeq	r0, r0, r8, rrx
 174:	8e100e42 	cdphi	14, 1, cr0, cr0, cr2, {2}
 178:	85028601 	strhi	r8, [r2, #-1537]	; 0x601
 17c:	00048403 	andeq	r8, r4, r3, lsl #8
 180:	00000014 	andeq	r0, r0, r4, lsl r0
 184:	000000bc 	strheq	r0, [r0], -ip
 188:	4000039c 	mulmi	r0, ip, r3
 18c:	00000010 	andeq	r0, r0, r0, lsl r0
 190:	8e080e42 	cdphi	14, 0, cr0, cr8, cr2, {2}
 194:	00028301 	andeq	r8, r2, r1, lsl #6
 198:	0000000c 	andeq	r0, r0, ip
 19c:	ffffffff 			; <UNDEFINED> instruction: 0xffffffff
 1a0:	7c020001 	stcvc	0, cr0, [r2], {1}
 1a4:	000d0c0e 	andeq	r0, sp, lr, lsl #24
 1a8:	00000018 	andeq	r0, r0, r8, lsl r0
 1ac:	00000198 	muleq	r0, r8, r1
 1b0:	400003ac 	andmi	r0, r0, ip, lsr #7
 1b4:	00000088 	andeq	r0, r0, r8, lsl #1
 1b8:	8e100e42 	cdphi	14, 1, cr0, cr0, cr2, {2}
 1bc:	84028501 	strhi	r8, [r2], #-1281	; 0x501
 1c0:	00048303 	andeq	r8, r4, r3, lsl #6
 1c4:	0000000c 	andeq	r0, r0, ip
 1c8:	00000198 	muleq	r0, r8, r1
 1cc:	40000434 	andmi	r0, r0, r4, lsr r4
 1d0:	00000008 	andeq	r0, r0, r8
 1d4:	0000000c 	andeq	r0, r0, ip
 1d8:	00000198 	muleq	r0, r8, r1
 1dc:	4000043c 	andmi	r0, r0, ip, lsr r4
 1e0:	00000008 	andeq	r0, r0, r8
 1e4:	00000014 	andeq	r0, r0, r4, lsl r0
 1e8:	00000198 	muleq	r0, r8, r1
 1ec:	40000444 	andmi	r0, r0, r4, asr #8
 1f0:	00000020 	andeq	r0, r0, r0, lsr #32
 1f4:	8e080e44 	cdphi	14, 0, cr0, cr8, cr4, {2}
 1f8:	00028301 	andeq	r8, r2, r1, lsl #6
 1fc:	0000000c 	andeq	r0, r0, ip
 200:	ffffffff 			; <UNDEFINED> instruction: 0xffffffff
 204:	7c020001 	stcvc	0, cr0, [r2], {1}
 208:	000d0c0e 	andeq	r0, sp, lr, lsl #24
 20c:	0000000c 	andeq	r0, r0, ip
 210:	000001fc 	strdeq	r0, [r0], -ip
 214:	40000464 	andmi	r0, r0, r4, ror #8
 218:	0000001c 	andeq	r0, r0, ip, lsl r0
 21c:	00000014 	andeq	r0, r0, r4, lsl r0
 220:	000001fc 	strdeq	r0, [r0], -ip
 224:	40000480 	andmi	r0, r0, r0, lsl #9
 228:	00000040 	andeq	r0, r0, r0, asr #32
 22c:	84040e42 	strhi	r0, [r4], #-3650	; 0xe42
 230:	00000001 	andeq	r0, r0, r1
 234:	0000000c 	andeq	r0, r0, ip
 238:	000001fc 	strdeq	r0, [r0], -ip
 23c:	400004c0 	andmi	r0, r0, r0, asr #9
 240:	00000018 	andeq	r0, r0, r8, lsl r0
 244:	0000000c 	andeq	r0, r0, ip
 248:	000001fc 	strdeq	r0, [r0], -ip
 24c:	400004d8 	ldrdmi	r0, [r0], -r8
 250:	00000020 	andeq	r0, r0, r0, lsr #32
 254:	0000000c 	andeq	r0, r0, ip
 258:	000001fc 	strdeq	r0, [r0], -ip
 25c:	400004f8 	strdmi	r0, [r0], -r8
 260:	00000018 	andeq	r0, r0, r8, lsl r0
 264:	0000000c 	andeq	r0, r0, ip
 268:	000001fc 	strdeq	r0, [r0], -ip
 26c:	40000510 	andmi	r0, r0, r0, lsl r5
 270:	00000034 	andeq	r0, r0, r4, lsr r0
 274:	0000000c 	andeq	r0, r0, ip
 278:	000001fc 	strdeq	r0, [r0], -ip
 27c:	40000544 	andmi	r0, r0, r4, asr #10
 280:	00000024 	andeq	r0, r0, r4, lsr #32
 284:	0000000c 	andeq	r0, r0, ip
 288:	000001fc 	strdeq	r0, [r0], -ip
 28c:	40000568 	andmi	r0, r0, r8, ror #10
 290:	00000028 	andeq	r0, r0, r8, lsr #32
 294:	0000000c 	andeq	r0, r0, ip
 298:	000001fc 	strdeq	r0, [r0], -ip
 29c:	40000590 	mulmi	r0, r0, r5
 2a0:	00000038 	andeq	r0, r0, r8, lsr r0
 2a4:	0000000c 	andeq	r0, r0, ip
 2a8:	000001fc 	strdeq	r0, [r0], -ip
 2ac:	400005c8 	andmi	r0, r0, r8, asr #11
 2b0:	00000008 	andeq	r0, r0, r8
 2b4:	0000000c 	andeq	r0, r0, ip
 2b8:	000001fc 	strdeq	r0, [r0], -ip
 2bc:	400005d0 	ldrdmi	r0, [r0], -r0	; <UNPREDICTABLE>
 2c0:	00000008 	andeq	r0, r0, r8
 2c4:	0000000c 	andeq	r0, r0, ip
 2c8:	000001fc 	strdeq	r0, [r0], -ip
 2cc:	400005d8 	ldrdmi	r0, [r0], -r8
 2d0:	00000008 	andeq	r0, r0, r8
 2d4:	00000014 	andeq	r0, r0, r4, lsl r0
 2d8:	000001fc 	strdeq	r0, [r0], -ip
 2dc:	400005e0 	andmi	r0, r0, r0, ror #11
 2e0:	00000054 	andeq	r0, r0, r4, asr r0
 2e4:	84040e44 	strhi	r0, [r4], #-3652	; 0xe44
 2e8:	00000001 	andeq	r0, r0, r1
 2ec:	00000014 	andeq	r0, r0, r4, lsl r0
 2f0:	000001fc 	strdeq	r0, [r0], -ip
 2f4:	40000634 	andmi	r0, r0, r4, lsr r6
 2f8:	0000004c 	andeq	r0, r0, ip, asr #32
 2fc:	8e080e44 	cdphi	14, 0, cr0, cr8, cr4, {2}
 300:	00028301 	andeq	r8, r2, r1, lsl #6
 304:	0000000c 	andeq	r0, r0, ip
 308:	000001fc 	strdeq	r0, [r0], -ip
 30c:	40000680 	andmi	r0, r0, r0, lsl #13
 310:	0000004c 	andeq	r0, r0, ip, asr #32
 314:	0000000c 	andeq	r0, r0, ip
 318:	000001fc 	strdeq	r0, [r0], -ip
 31c:	400006cc 	andmi	r0, r0, ip, asr #13
 320:	00000058 	andeq	r0, r0, r8, asr r0
 324:	0000000c 	andeq	r0, r0, ip
 328:	ffffffff 			; <UNDEFINED> instruction: 0xffffffff
 32c:	7c020001 	stcvc	0, cr0, [r2], {1}
 330:	000d0c0e 	andeq	r0, sp, lr, lsl #24
 334:	00000014 	andeq	r0, r0, r4, lsl r0
 338:	00000324 	andeq	r0, r0, r4, lsr #6
 33c:	40000724 	andmi	r0, r0, r4, lsr #14
 340:	00000020 	andeq	r0, r0, r0, lsr #32
 344:	8e080e44 	cdphi	14, 0, cr0, cr8, cr4, {2}
 348:	00028301 	andeq	r8, r2, r1, lsl #6
 34c:	00000020 	andeq	r0, r0, r0, lsr #32
 350:	00000324 	andeq	r0, r0, r4, lsr #6
 354:	40000744 	andmi	r0, r0, r4, asr #14
 358:	00000030 	andeq	r0, r0, r0, lsr r0
 35c:	83100e42 	tsthi	r0, #1056	; 0x420
 360:	81028201 	tsthi	r2, r1, lsl #4
 364:	42048003 	andmi	r8, r4, #3
 368:	058e140e 	streq	r1, [lr, #1038]	; 0x40e
 36c:	00200e42 	eoreq	r0, r0, r2, asr #28
 370:	0000000c 	andeq	r0, r0, ip
 374:	ffffffff 			; <UNDEFINED> instruction: 0xffffffff
 378:	7c020001 	stcvc	0, cr0, [r2], {1}
 37c:	000d0c0e 	andeq	r0, sp, lr, lsl #24
 380:	0000000c 	andeq	r0, r0, ip
 384:	00000370 	andeq	r0, r0, r0, ror r3
 388:	40000774 	andmi	r0, r0, r4, ror r7
 38c:	0000000c 	andeq	r0, r0, ip
 390:	0000000c 	andeq	r0, r0, ip
 394:	00000370 	andeq	r0, r0, r0, ror r3
 398:	40000780 	andmi	r0, r0, r0, lsl #15
 39c:	00000010 	andeq	r0, r0, r0, lsl r0
 3a0:	00000018 	andeq	r0, r0, r8, lsl r0
 3a4:	00000370 	andeq	r0, r0, r0, ror r3
 3a8:	40000790 	mulmi	r0, r0, r7
 3ac:	000000bc 	strheq	r0, [r0], -ip
 3b0:	87100e46 	ldrhi	r0, [r0, -r6, asr #28]
 3b4:	85028601 	strhi	r8, [r2, #-1537]	; 0x601
 3b8:	00048403 	andeq	r8, r4, r3, lsl #8
 3bc:	00000018 	andeq	r0, r0, r8, lsl r0
 3c0:	00000370 	andeq	r0, r0, r0, ror r3
 3c4:	4000084c 	andmi	r0, r0, ip, asr #16
 3c8:	00000094 	muleq	r0, r4, r0
 3cc:	87100e46 	ldrhi	r0, [r0, -r6, asr #28]
 3d0:	85028601 	strhi	r8, [r2, #-1537]	; 0x601
 3d4:	00048403 	andeq	r8, r4, r3, lsl #8
 3d8:	0000002c 	andeq	r0, r0, ip, lsr #32
 3dc:	00000370 	andeq	r0, r0, r0, ror r3
 3e0:	400008e0 	andmi	r0, r0, r0, ror #17
 3e4:	00000380 	andeq	r0, r0, r0, lsl #7
 3e8:	830c0e42 	movwhi	r0, #52802	; 0xce42
 3ec:	81028201 	tsthi	r2, r1, lsl #4
 3f0:	280e4203 	stmdacs	lr, {r0, r1, r9, lr}
 3f4:	058a048e 	streq	r0, [sl, #1166]	; 0x48e
 3f8:	07870688 	streq	r0, [r7, r8, lsl #13]
 3fc:	09850886 	stmibeq	r5, {r1, r2, r7, fp}
 400:	0e420a84 	vmlaeq.f32	s1, s5, s8
 404:	00000038 	andeq	r0, r0, r8, lsr r0
 408:	0000000c 	andeq	r0, r0, ip
 40c:	ffffffff 			; <UNDEFINED> instruction: 0xffffffff
 410:	7c020001 	stcvc	0, cr0, [r2], {1}
 414:	000d0c0e 	andeq	r0, sp, lr, lsl #24
 418:	0000001c 	andeq	r0, r0, ip, lsl r0
 41c:	00000408 	andeq	r0, r0, r8, lsl #8
 420:	40000c60 	andmi	r0, r0, r0, ror #24
 424:	000000d0 	ldrdeq	r0, [r0], -r0	; <UNPREDICTABLE>
 428:	8e140e44 	cdphi	14, 1, cr0, cr4, cr4, {2}
 42c:	86028701 	strhi	r8, [r2], -r1, lsl #14
 430:	84048503 	strhi	r8, [r4], #-1283	; 0x503
 434:	280e4405 	stmdacs	lr, {r0, r2, sl, lr}
 438:	0000001c 	andeq	r0, r0, ip, lsl r0
 43c:	00000408 	andeq	r0, r0, r8, lsl #8
 440:	40000d30 	andmi	r0, r0, r0, lsr sp
 444:	00000128 	andeq	r0, r0, r8, lsr #2
 448:	8e180e42 	cdphi	14, 1, cr0, cr8, cr2, {2}
 44c:	86028701 	strhi	r8, [r2], -r1, lsl #14
 450:	84048503 	strhi	r8, [r4], #-1283	; 0x503
 454:	00068305 	andeq	r8, r6, r5, lsl #6
 458:	0000000c 	andeq	r0, r0, ip
 45c:	00000408 	andeq	r0, r0, r8, lsl #8
 460:	40000e58 	andmi	r0, r0, r8, asr lr
 464:	00000010 	andeq	r0, r0, r0, lsl r0
 468:	0000000c 	andeq	r0, r0, ip
 46c:	00000408 	andeq	r0, r0, r8, lsl #8
 470:	40000e68 	andmi	r0, r0, r8, ror #28
 474:	00000010 	andeq	r0, r0, r0, lsl r0
 478:	0000000c 	andeq	r0, r0, ip
 47c:	ffffffff 			; <UNDEFINED> instruction: 0xffffffff
 480:	7c020001 	stcvc	0, cr0, [r2], {1}
 484:	000d0c0e 	andeq	r0, sp, lr, lsl #24
 488:	0000000c 	andeq	r0, r0, ip
 48c:	00000478 	andeq	r0, r0, r8, ror r4
 490:	40000e78 	andmi	r0, r0, r8, ror lr
 494:	00000024 	andeq	r0, r0, r4, lsr #32
 498:	00000014 	andeq	r0, r0, r4, lsl r0
 49c:	00000478 	andeq	r0, r0, r8, ror r4
 4a0:	40000e9c 	mulmi	r0, ip, lr
 4a4:	00000068 	andeq	r0, r0, r8, rrx
 4a8:	84040e44 	strhi	r0, [r4], #-3652	; 0xe44
 4ac:	00000001 	andeq	r0, r0, r1
 4b0:	0000000c 	andeq	r0, r0, ip
 4b4:	00000478 	andeq	r0, r0, r8, ror r4
 4b8:	40000f04 	andmi	r0, r0, r4, lsl #30
 4bc:	00000020 	andeq	r0, r0, r0, lsr #32
 4c0:	0000000c 	andeq	r0, r0, ip
 4c4:	00000478 	andeq	r0, r0, r8, ror r4
 4c8:	40000f24 	andmi	r0, r0, r4, lsr #30
 4cc:	00000040 	andeq	r0, r0, r0, asr #32
 4d0:	0000000c 	andeq	r0, r0, ip
 4d4:	00000478 	andeq	r0, r0, r8, ror r4
 4d8:	40000f64 	andmi	r0, r0, r4, ror #30
 4dc:	0000005c 	andeq	r0, r0, ip, asr r0
 4e0:	00000014 	andeq	r0, r0, r4, lsl r0
 4e4:	00000478 	andeq	r0, r0, r8, ror r4
 4e8:	40000fc0 	andmi	r0, r0, r0, asr #31
 4ec:	0000005c 	andeq	r0, r0, ip, asr r0
 4f0:	84040e44 	strhi	r0, [r4], #-3652	; 0xe44
 4f4:	00000001 	andeq	r0, r0, r1
 4f8:	0000000c 	andeq	r0, r0, ip
 4fc:	00000478 	andeq	r0, r0, r8, ror r4
 500:	4000101c 	andmi	r1, r0, ip, lsl r0
 504:	0000002c 	andeq	r0, r0, ip, lsr #32
 508:	00000014 	andeq	r0, r0, r4, lsl r0
 50c:	00000478 	andeq	r0, r0, r8, ror r4
 510:	40001048 	andmi	r1, r0, r8, asr #32
 514:	00000078 	andeq	r0, r0, r8, ror r0
 518:	84040e44 	strhi	r0, [r4], #-3652	; 0xe44
 51c:	00000001 	andeq	r0, r0, r1
 520:	0000000c 	andeq	r0, r0, ip
 524:	00000478 	andeq	r0, r0, r8, ror r4
 528:	400010c0 	andmi	r1, r0, r0, asr #1
 52c:	00000084 	andeq	r0, r0, r4, lsl #1
 530:	00000018 	andeq	r0, r0, r8, lsl r0
 534:	00000478 	andeq	r0, r0, r8, ror r4
 538:	40001144 	andmi	r1, r0, r4, asr #2
 53c:	000000d8 	ldrdeq	r0, [r0], -r8
 540:	87100e42 	ldrhi	r0, [r0, -r2, asr #28]
 544:	85028601 	strhi	r8, [r2, #-1537]	; 0x601
 548:	00048403 	andeq	r8, r4, r3, lsl #8
 54c:	0000000c 	andeq	r0, r0, ip
 550:	00000478 	andeq	r0, r0, r8, ror r4
 554:	4000121c 	andmi	r1, r0, ip, lsl r2
 558:	00000044 	andeq	r0, r0, r4, asr #32
 55c:	00000014 	andeq	r0, r0, r4, lsl r0
 560:	00000478 	andeq	r0, r0, r8, ror r4
 564:	40001260 	andmi	r1, r0, r0, ror #4
 568:	000000b4 	strheq	r0, [r0], -r4
 56c:	84040e42 	strhi	r0, [r4], #-3650	; 0xe42
 570:	00000001 	andeq	r0, r0, r1
 574:	00000014 	andeq	r0, r0, r4, lsl r0
 578:	00000478 	andeq	r0, r0, r8, ror r4
 57c:	40001314 	andmi	r1, r0, r4, lsl r3
 580:	00000068 	andeq	r0, r0, r8, rrx
 584:	85080e48 	strhi	r0, [r8, #-3656]	; 0xe48
 588:	00028401 	andeq	r8, r2, r1, lsl #8
 58c:	0000000c 	andeq	r0, r0, ip
 590:	00000478 	andeq	r0, r0, r8, ror r4
 594:	4000137c 	andmi	r1, r0, ip, ror r3
 598:	00000054 	andeq	r0, r0, r4, asr r0
 59c:	0000000c 	andeq	r0, r0, ip
 5a0:	ffffffff 			; <UNDEFINED> instruction: 0xffffffff
 5a4:	7c020001 	stcvc	0, cr0, [r2], {1}
 5a8:	000d0c0e 	andeq	r0, sp, lr, lsl #24
 5ac:	0000000c 	andeq	r0, r0, ip
 5b0:	0000059c 	muleq	r0, ip, r5
 5b4:	400013d0 	ldrdmi	r1, [r0], -r0
 5b8:	00000004 	andeq	r0, r0, r4
 5bc:	0000000c 	andeq	r0, r0, ip
 5c0:	0000059c 	muleq	r0, ip, r5
 5c4:	400013d4 	ldrdmi	r1, [r0], -r4
 5c8:	00000004 	andeq	r0, r0, r4
 5cc:	0000000c 	andeq	r0, r0, ip
 5d0:	0000059c 	muleq	r0, ip, r5
 5d4:	400013d8 	ldrdmi	r1, [r0], -r8
 5d8:	0000000c 	andeq	r0, r0, ip
 5dc:	0000000c 	andeq	r0, r0, ip
 5e0:	ffffffff 			; <UNDEFINED> instruction: 0xffffffff
 5e4:	7c020001 	stcvc	0, cr0, [r2], {1}
 5e8:	000d0c0e 	andeq	r0, sp, lr, lsl #24
 5ec:	0000000c 	andeq	r0, r0, ip
 5f0:	000005dc 	ldrdeq	r0, [r0], -ip
 5f4:	400013e4 	andmi	r1, r0, r4, ror #7
 5f8:	0000002c 	andeq	r0, r0, ip, lsr #32
 5fc:	0000000c 	andeq	r0, r0, ip
 600:	000005dc 	ldrdeq	r0, [r0], -ip
 604:	40001410 	andmi	r1, r0, r0, lsl r4
 608:	0000002c 	andeq	r0, r0, ip, lsr #32
 60c:	0000000c 	andeq	r0, r0, ip
 610:	000005dc 	ldrdeq	r0, [r0], -ip
 614:	4000143c 	andmi	r1, r0, ip, lsr r4
 618:	0000002c 	andeq	r0, r0, ip, lsr #32
 61c:	00000018 	andeq	r0, r0, r8, lsl r0
 620:	000005dc 	ldrdeq	r0, [r0], -ip
 624:	40001468 	andmi	r1, r0, r8, ror #8
 628:	000002cc 	andeq	r0, r0, ip, asr #5
 62c:	8e100e46 	cdphi	14, 1, cr0, cr0, cr6, {2}
 630:	85028601 	strhi	r8, [r2, #-1537]	; 0x601
 634:	00048403 	andeq	r8, r4, r3, lsl #8
 638:	00000018 	andeq	r0, r0, r8, lsl r0
 63c:	000005dc 	ldrdeq	r0, [r0], -ip
 640:	40001734 	andmi	r1, r0, r4, lsr r7
 644:	000000c4 	andeq	r0, r0, r4, asr #1
 648:	8e0c0e42 	cdphi	14, 0, cr0, cr12, cr2, {2}
 64c:	84028501 	strhi	r8, [r2], #-1281	; 0x501
 650:	180e4203 	stmdane	lr, {r0, r1, r9, lr}
 654:	0000000c 	andeq	r0, r0, ip
 658:	ffffffff 			; <UNDEFINED> instruction: 0xffffffff
 65c:	7c020001 	stcvc	0, cr0, [r2], {1}
 660:	000d0c0e 	andeq	r0, sp, lr, lsl #24
 664:	0000000c 	andeq	r0, r0, ip
 668:	00000654 	andeq	r0, r0, r4, asr r6
 66c:	400017f8 	strdmi	r1, [r0], -r8
 670:	00000014 	andeq	r0, r0, r4, lsl r0
 674:	0000000c 	andeq	r0, r0, ip
 678:	ffffffff 			; <UNDEFINED> instruction: 0xffffffff
 67c:	7c020001 	stcvc	0, cr0, [r2], {1}
 680:	000d0c0e 	andeq	r0, sp, lr, lsl #24
 684:	00000018 	andeq	r0, r0, r8, lsl r0
 688:	00000674 	andeq	r0, r0, r4, ror r6
 68c:	4000180c 	andmi	r1, r0, ip, lsl #16
 690:	000000e4 	andeq	r0, r0, r4, ror #1
 694:	8e100e42 	cdphi	14, 1, cr0, cr0, cr2, {2}
 698:	84028501 	strhi	r8, [r2], #-1281	; 0x501
 69c:	00048303 	andeq	r8, r4, r3, lsl #6
 6a0:	00000014 	andeq	r0, r0, r4, lsl r0
 6a4:	00000674 	andeq	r0, r0, r4, ror r6
 6a8:	400018f0 	strdmi	r1, [r0], -r0
 6ac:	0000002c 	andeq	r0, r0, ip, lsr #32
 6b0:	8e080e42 	cdphi	14, 0, cr0, cr8, cr2, {2}
 6b4:	00028301 	andeq	r8, r2, r1, lsl #6
 6b8:	0000000c 	andeq	r0, r0, ip
 6bc:	ffffffff 			; <UNDEFINED> instruction: 0xffffffff
 6c0:	7c020001 	stcvc	0, cr0, [r2], {1}
 6c4:	000d0c0e 	andeq	r0, sp, lr, lsl #24
 6c8:	0000000c 	andeq	r0, r0, ip
 6cc:	000006b8 			; <UNDEFINED> instruction: 0x000006b8
 6d0:	4000191c 	andmi	r1, r0, ip, lsl r9
 6d4:	0000001c 	andeq	r0, r0, ip, lsl r0
 6d8:	00000014 	andeq	r0, r0, r4, lsl r0
 6dc:	000006b8 			; <UNDEFINED> instruction: 0x000006b8
 6e0:	40001938 	andmi	r1, r0, r8, lsr r9
 6e4:	000000bc 	strheq	r0, [r0], -ip
 6e8:	8e080e42 	cdphi	14, 0, cr0, cr8, cr2, {2}
 6ec:	00028401 	andeq	r8, r2, r1, lsl #8
 6f0:	0000000c 	andeq	r0, r0, ip
 6f4:	ffffffff 			; <UNDEFINED> instruction: 0xffffffff
 6f8:	7c020001 	stcvc	0, cr0, [r2], {1}
 6fc:	000d0c0e 	andeq	r0, sp, lr, lsl #24
 700:	0000001c 	andeq	r0, r0, ip, lsl r0
 704:	000006f0 	strdeq	r0, [r0], -r0	; <UNPREDICTABLE>
 708:	400019f4 	strdmi	r1, [r0], -r4
 70c:	000000cc 	andeq	r0, r0, ip, asr #1
 710:	8e180e42 	cdphi	14, 1, cr0, cr8, cr2, {2}
 714:	86028701 	strhi	r8, [r2], -r1, lsl #14
 718:	84048503 	strhi	r8, [r4], #-1283	; 0x503
 71c:	00068305 	andeq	r8, r6, r5, lsl #6
 720:	0000000c 	andeq	r0, r0, ip
 724:	ffffffff 			; <UNDEFINED> instruction: 0xffffffff
 728:	7c020001 	stcvc	0, cr0, [r2], {1}
 72c:	000d0c0e 	andeq	r0, sp, lr, lsl #24
 730:	00000018 	andeq	r0, r0, r8, lsl r0
 734:	00000720 	andeq	r0, r0, r0, lsr #14
 738:	40001ac0 	andmi	r1, r0, r0, asr #21
 73c:	00000070 	andeq	r0, r0, r0, ror r0
 740:	8e100e44 	cdphi	14, 1, cr0, cr0, cr4, {2}
 744:	85028601 	strhi	r8, [r2, #-1537]	; 0x601
 748:	00048403 	andeq	r8, r4, r3, lsl #8
 74c:	0000000c 	andeq	r0, r0, ip
 750:	00000720 	andeq	r0, r0, r0, lsr #14
 754:	40001b30 	andmi	r1, r0, r0, lsr fp
 758:	00000014 	andeq	r0, r0, r4, lsl r0
 75c:	00000014 	andeq	r0, r0, r4, lsl r0
 760:	00000720 	andeq	r0, r0, r0, lsr #14
 764:	40001b44 	andmi	r1, r0, r4, asr #22
 768:	00000024 	andeq	r0, r0, r4, lsr #32
 76c:	8e080e44 	cdphi	14, 0, cr0, cr8, cr4, {2}
 770:	00028301 	andeq	r8, r2, r1, lsl #6
 774:	0000000c 	andeq	r0, r0, ip
 778:	00000720 	andeq	r0, r0, r0, lsr #14
 77c:	40001b68 	andmi	r1, r0, r8, ror #22
 780:	00000014 	andeq	r0, r0, r4, lsl r0
 784:	00000024 	andeq	r0, r0, r4, lsr #32
 788:	00000720 	andeq	r0, r0, r0, lsr #14
 78c:	40001b7c 	andmi	r1, r0, ip, ror fp
 790:	00000394 	muleq	r0, r4, r3
 794:	8e1c0e46 	cdphi	14, 1, cr0, cr12, cr6, {2}
 798:	88028a01 	stmdahi	r2, {r0, r9, fp, pc}
 79c:	86048703 	strhi	r8, [r4], -r3, lsl #14
 7a0:	84068505 	strhi	r8, [r6], #-1285	; 0x505
 7a4:	a80e4207 	stmdage	lr, {r0, r1, r2, r9, lr}
 7a8:	00000003 	andeq	r0, r0, r3
 7ac:	0000000c 	andeq	r0, r0, ip
 7b0:	ffffffff 			; <UNDEFINED> instruction: 0xffffffff
 7b4:	7c020001 	stcvc	0, cr0, [r2], {1}
 7b8:	000d0c0e 	andeq	r0, sp, lr, lsl #24
 7bc:	00000014 	andeq	r0, r0, r4, lsl r0
 7c0:	000007ac 	andeq	r0, r0, ip, lsr #15
 7c4:	40001f10 	andmi	r1, r0, r0, lsl pc
 7c8:	00000044 	andeq	r0, r0, r4, asr #32
 7cc:	84040e46 	strhi	r0, [r4], #-3654	; 0xe46
 7d0:	00000001 	andeq	r0, r0, r1
 7d4:	0000000c 	andeq	r0, r0, ip
 7d8:	000007ac 	andeq	r0, r0, ip, lsr #15
 7dc:	40001f54 	andmi	r1, r0, r4, asr pc
 7e0:	00000048 	andeq	r0, r0, r8, asr #32
 7e4:	00000018 	andeq	r0, r0, r8, lsl r0
 7e8:	000007ac 	andeq	r0, r0, ip, lsr #15
 7ec:	40001f9c 	mulmi	r0, ip, pc	; <UNPREDICTABLE>
 7f0:	0000002c 	andeq	r0, r0, ip, lsr #32
 7f4:	8e100e42 	cdphi	14, 1, cr0, cr0, cr2, {2}
 7f8:	85028601 	strhi	r8, [r2, #-1537]	; 0x601
 7fc:	00048403 	andeq	r8, r4, r3, lsl #8
 800:	00000020 	andeq	r0, r0, r0, lsr #32
 804:	000007ac 	andeq	r0, r0, ip, lsr #15
 808:	40001fc8 	andmi	r1, r0, r8, asr #31
 80c:	000000c0 	andeq	r0, r0, r0, asr #1
 810:	8e180e42 	cdphi	14, 1, cr0, cr8, cr2, {2}
 814:	87028801 	strhi	r8, [r2, -r1, lsl #16]
 818:	85048603 	strhi	r8, [r4, #-1539]	; 0x603
 81c:	46068405 	strmi	r8, [r6], -r5, lsl #8
 820:	0000200e 	andeq	r2, r0, lr
 824:	0000001c 	andeq	r0, r0, ip, lsl r0
 828:	000007ac 	andeq	r0, r0, ip, lsr #15
 82c:	40002088 	andmi	r2, r0, r8, lsl #1
 830:	00000108 	andeq	r0, r0, r8, lsl #2
 834:	8e100e42 	cdphi	14, 1, cr0, cr0, cr2, {2}
 838:	85028601 	strhi	r8, [r2, #-1537]	; 0x601
 83c:	42048403 	andmi	r8, r4, #50331648	; 0x3000000
 840:	0000180e 	andeq	r1, r0, lr, lsl #16
 844:	00000018 	andeq	r0, r0, r8, lsl r0
 848:	000007ac 	andeq	r0, r0, ip, lsr #15
 84c:	40002190 	mulmi	r0, r0, r1
 850:	000000ac 	andeq	r0, r0, ip, lsr #1
 854:	8e0c0e44 	cdphi	14, 0, cr0, cr12, cr4, {2}
 858:	84028501 	strhi	r8, [r2], #-1281	; 0x501
 85c:	480e4403 	stmdami	lr, {r0, r1, sl, lr}
 860:	0000000c 	andeq	r0, r0, ip
 864:	000007ac 	andeq	r0, r0, ip, lsr #15
 868:	4000223c 	andmi	r2, r0, ip, lsr r2
 86c:	00000024 	andeq	r0, r0, r4, lsr #32
 870:	00000028 	andeq	r0, r0, r8, lsr #32
 874:	000007ac 	andeq	r0, r0, ip, lsr #15
 878:	40002260 	andmi	r2, r0, r0, ror #4
 87c:	00000564 	andeq	r0, r0, r4, ror #10
 880:	8e240e44 	cdphi	14, 2, cr0, cr4, cr4, {2}
 884:	8a028b01 	bhi	a3490 <LOADER_PHYS_START-0x3ff5cb70>
 888:	88048903 	stmdahi	r4, {r0, r1, r8, fp, pc}
 88c:	86068705 	strhi	r8, [r6], -r5, lsl #14
 890:	84088507 	strhi	r8, [r8], #-1287	; 0x507
 894:	800e4609 	andhi	r4, lr, r9, lsl #12
 898:	00000001 	andeq	r0, r0, r1
 89c:	0000000c 	andeq	r0, r0, ip
 8a0:	ffffffff 			; <UNDEFINED> instruction: 0xffffffff
 8a4:	7c020001 	stcvc	0, cr0, [r2], {1}
 8a8:	000d0c0e 	andeq	r0, sp, lr, lsl #24
 8ac:	00000014 	andeq	r0, r0, r4, lsl r0
 8b0:	0000089c 	muleq	r0, ip, r8
 8b4:	400027c4 	andmi	r2, r0, r4, asr #15
 8b8:	0000006c 	andeq	r0, r0, ip, rrx
 8bc:	85080e44 	strhi	r0, [r8, #-3652]	; 0xe44
 8c0:	00028401 	andeq	r8, r2, r1, lsl #8
 8c4:	00000020 	andeq	r0, r0, r0, lsr #32
 8c8:	0000089c 	muleq	r0, ip, r8
 8cc:	40002830 	andmi	r2, r0, r0, lsr r8
 8d0:	000000e8 	andeq	r0, r0, r8, ror #1
 8d4:	8e140e42 	cdphi	14, 1, cr0, cr4, cr2, {2}
 8d8:	86028701 	strhi	r8, [r2], -r1, lsl #14
 8dc:	84048503 	strhi	r8, [r4], #-1283	; 0x503
 8e0:	800e4405 	andhi	r4, lr, r5, lsl #8
 8e4:	00000001 	andeq	r0, r0, r1
 8e8:	00000028 	andeq	r0, r0, r8, lsr #32
 8ec:	0000089c 	muleq	r0, ip, r8
 8f0:	40002918 	andmi	r2, r0, r8, lsl r9
 8f4:	00000150 	andeq	r0, r0, r0, asr r1
 8f8:	8e240e42 	cdphi	14, 2, cr0, cr4, cr2, {2}
 8fc:	8a028b01 	bhi	a3508 <LOADER_PHYS_START-0x3ff5caf8>
 900:	88048903 	stmdahi	r4, {r0, r1, r8, fp, pc}
 904:	86068705 	strhi	r8, [r6], -r5, lsl #14
 908:	84088507 	strhi	r8, [r8], #-1287	; 0x507
 90c:	980e4609 	stmdals	lr, {r0, r3, r9, sl, lr}
 910:	00000001 	andeq	r0, r0, r1
 914:	0000000c 	andeq	r0, r0, ip
 918:	0000089c 	muleq	r0, ip, r8
 91c:	40002a68 	andmi	r2, r0, r8, ror #20
 920:	00000038 	andeq	r0, r0, r8, lsr r0
 924:	0000001c 	andeq	r0, r0, ip, lsl r0
 928:	0000089c 	muleq	r0, ip, r8
 92c:	40002aa0 	andmi	r2, r0, r0, lsr #21
 930:	000000c8 	andeq	r0, r0, r8, asr #1
 934:	8e140e46 	cdphi	14, 1, cr0, cr4, cr6, {2}
 938:	86028701 	strhi	r8, [r2], -r1, lsl #14
 93c:	84048503 	strhi	r8, [r4], #-1283	; 0x503
 940:	300e4605 	andcc	r4, lr, r5, lsl #12
 944:	00000024 	andeq	r0, r0, r4, lsr #32
 948:	0000089c 	muleq	r0, ip, r8
 94c:	40002b68 	andmi	r2, r0, r8, ror #22
 950:	000002d0 	ldrdeq	r0, [r0], -r0	; <UNPREDICTABLE>
 954:	8e1c0e42 	cdphi	14, 1, cr0, cr12, cr2, {2}
 958:	88028a01 	stmdahi	r2, {r0, r9, fp, pc}
 95c:	86048703 	strhi	r8, [r4], -r3, lsl #14
 960:	84068505 	strhi	r8, [r6], #-1285	; 0x505
 964:	b00e4207 	andlt	r4, lr, r7, lsl #4
 968:	00000002 	andeq	r0, r0, r2
 96c:	0000000c 	andeq	r0, r0, ip
 970:	0000089c 	muleq	r0, ip, r8
 974:	40002e38 	andmi	r2, r0, r8, lsr lr
 978:	00000014 	andeq	r0, r0, r4, lsl r0
 97c:	0000000c 	andeq	r0, r0, ip
 980:	0000089c 	muleq	r0, ip, r8
 984:	40002e4c 	andmi	r2, r0, ip, asr #28
 988:	00000010 	andeq	r0, r0, r0, lsl r0
 98c:	00000018 	andeq	r0, r0, r8, lsl r0
 990:	0000089c 	muleq	r0, ip, r8
 994:	40002e5c 	andmi	r2, r0, ip, asr lr
 998:	00000074 	andeq	r0, r0, r4, ror r0
 99c:	8e100e42 	cdphi	14, 1, cr0, cr0, cr2, {2}
 9a0:	84028501 	strhi	r8, [r2], #-1281	; 0x501
 9a4:	00048303 	andeq	r8, r4, r3, lsl #6
 9a8:	0000001c 	andeq	r0, r0, ip, lsl r0
 9ac:	0000089c 	muleq	r0, ip, r8
 9b0:	40002ed0 	ldrdmi	r2, [r0], -r0
 9b4:	00000048 	andeq	r0, r0, r8, asr #32
 9b8:	8e180e42 	cdphi	14, 1, cr0, cr8, cr2, {2}
 9bc:	86028701 	strhi	r8, [r2], -r1, lsl #14
 9c0:	84048503 	strhi	r8, [r4], #-1283	; 0x503
 9c4:	00068305 	andeq	r8, r6, r5, lsl #6
 9c8:	00000014 	andeq	r0, r0, r4, lsl r0
 9cc:	0000089c 	muleq	r0, ip, r8
 9d0:	40002f18 	andmi	r2, r0, r8, lsl pc
 9d4:	00000038 	andeq	r0, r0, r8, lsr r0
 9d8:	8e080e48 	cdphi	14, 0, cr0, cr8, cr8, {2}
 9dc:	00028301 	andeq	r8, r2, r1, lsl #6
 9e0:	00000014 	andeq	r0, r0, r4, lsl r0
 9e4:	0000089c 	muleq	r0, ip, r8
 9e8:	40002f50 	andmi	r2, r0, r0, asr pc
 9ec:	00000030 	andeq	r0, r0, r0, lsr r0
 9f0:	8e080e44 	cdphi	14, 0, cr0, cr8, cr4, {2}
 9f4:	00028301 	andeq	r8, r2, r1, lsl #6
 9f8:	0000000c 	andeq	r0, r0, ip
 9fc:	0000089c 	muleq	r0, ip, r8
 a00:	40002f80 	andmi	r2, r0, r0, lsl #31
 a04:	00000010 	andeq	r0, r0, r0, lsl r0
 a08:	0000000c 	andeq	r0, r0, ip
 a0c:	0000089c 	muleq	r0, ip, r8
 a10:	40002f90 	mulmi	r0, r0, pc	; <UNPREDICTABLE>
 a14:	00000010 	andeq	r0, r0, r0, lsl r0
